(dp1
S'layout'
p2
(ilayout
Layout
p3
(dp4
S'capsules'
p5
(lp6
sS'numGhosts'
p7
I4
sS'food'
p8
(igame
Grid
p9
(dp10
S'CELLS_PER_INT'
p11
I30
sS'width'
p12
I34
sS'data'
p13
(lp14
(lp15
I00
aI00
aI00
aI00
aI00
aI00
aI00
aI00
aI00
aI00
aI00
aI00
aI00
aI00
aI00
aI00
aI00
aI00
aa(lp16
I00
aI00
aI00
aI00
aI00
aI00
aI00
aI00
aI01
aI00
aI01
aI00
aI00
aI00
aI01
aI00
aI01
aI00
aa(lp17
I00
aI00
aI00
aI00
aI00
aI00
aI00
aI00
aI00
aI00
aI00
aI00
aI00
aI00
aI00
aI01
aI00
aI00
aa(lp18
I00
aI00
aI00
aI00
aI00
aI00
aI00
aI00
aI01
aI00
aI00
aI00
aI00
aI00
aI01
aI00
aI00
aI00
aa(lp19
I00
aI00
aI00
aI00
aI00
aI00
aI01
aI00
aI00
aI00
aI00
aI01
aI00
aI00
aI01
aI00
aI00
aI00
aa(lp20
I00
aI00
aI00
aI00
aI00
aI00
aI00
aI00
aI00
aI00
aI00
aI00
aI00
aI00
aI00
aI00
aI01
aI00
aa(lp21
I00
aI00
aI01
aI00
aI00
aI00
aI00
aI00
aI00
aI00
aI00
aI00
aI01
aI00
aI01
aI00
aI00
aI00
aa(lp22
I00
aI00
aI00
aI00
aI00
aI00
aI00
aI00
aI00
aI00
aI00
aI00
aI00
aI00
aI00
aI00
aI00
aI00
aa(lp23
I00
aI00
aI01
aI00
aI00
aI00
aI00
aI00
aI00
aI01
aI00
aI00
aI00
aI00
aI00
aI00
aI00
aI00
aa(lp24
I00
aI00
aI00
aI00
aI00
aI00
aI00
aI00
aI00
aI00
aI00
aI00
aI00
aI00
aI00
aI00
aI00
aI00
aa(lp25
I00
aI00
aI00
aI00
aI00
aI00
aI00
aI00
aI00
aI00
aI00
aI00
aI00
aI00
aI00
aI00
aI01
aI00
aa(lp26
I00
aI00
aI00
aI00
aI00
aI00
aI00
aI00
aI00
aI00
aI00
aI00
aI00
aI00
aI00
aI00
aI00
aI00
aa(lp27
I00
aI00
aI01
aI00
aI00
aI00
aI00
aI00
aI00
aI00
aI00
aI00
aI01
aI00
aI00
aI00
aI00
aI00
aa(lp28
I00
aI00
aI01
aI00
aI00
aI01
aI00
aI00
aI00
aI00
aI00
aI00
aI00
aI00
aI00
aI00
aI01
aI00
aa(lp29
I00
aI00
aI00
aI00
aI00
aI00
aI00
aI00
aI00
aI00
aI00
aI00
aI00
aI01
aI01
aI00
aI01
aI00
aa(lp30
I00
aI00
aI00
aI00
aI00
aI00
aI00
aI00
aI00
aI00
aI00
aI00
aI00
aI00
aI00
aI00
aI00
aI00
aa(lp31
I00
aI01
aI01
aI01
aI00
aI00
aI00
aI00
aI01
aI00
aI00
aI00
aI00
aI00
aI00
aI00
aI01
aI00
aa(lp32
I00
aI01
aI00
aI00
aI00
aI00
aI00
aI00
aI00
aI01
aI00
aI00
aI00
aI00
aI01
aI01
aI01
aI00
aa(lp33
I00
aI00
aI00
aI00
aI00
aI00
aI00
aI00
aI00
aI00
aI00
aI00
aI00
aI00
aI00
aI00
aI00
aI00
aa(lp34
I00
aI01
aI00
aI01
aI01
aI00
aI00
aI00
aI00
aI00
aI00
aI00
aI00
aI00
aI00
aI00
aI00
aI00
aa(lp35
I00
aI01
aI00
aI00
aI00
aI00
aI00
aI00
aI00
aI00
aI00
aI00
aI01
aI00
aI00
aI01
aI00
aI00
aa(lp36
I00
aI00
aI00
aI00
aI00
aI01
aI00
aI00
aI00
aI00
aI00
aI00
aI00
aI00
aI00
aI01
aI00
aI00
aa(lp37
I00
aI00
aI00
aI00
aI00
aI00
aI00
aI00
aI00
aI00
aI00
aI00
aI00
aI00
aI00
aI00
aI00
aI00
aa(lp38
I00
aI01
aI00
aI00
aI00
aI00
aI00
aI00
aI00
aI00
aI00
aI00
aI00
aI00
aI00
aI00
aI00
aI00
aa(lp39
I00
aI00
aI00
aI00
aI00
aI00
aI00
aI00
aI00
aI00
aI00
aI00
aI00
aI00
aI00
aI00
aI00
aI00
aa(lp40
I00
aI00
aI00
aI00
aI00
aI00
aI00
aI00
aI01
aI00
aI00
aI00
aI00
aI00
aI00
aI01
aI00
aI00
aa(lp41
I00
aI00
aI00
aI00
aI00
aI00
aI00
aI00
aI00
aI00
aI00
aI00
aI00
aI00
aI00
aI00
aI00
aI00
aa(lp42
I00
aI00
aI00
aI01
aI00
aI01
aI00
aI00
aI00
aI00
aI00
aI00
aI00
aI00
aI00
aI01
aI00
aI00
aa(lp43
I00
aI01
aI00
aI00
aI00
aI00
aI00
aI00
aI00
aI00
aI00
aI00
aI00
aI00
aI00
aI00
aI00
aI00
aa(lp44
I00
aI00
aI00
aI01
aI00
aI00
aI01
aI00
aI00
aI00
aI00
aI01
aI00
aI00
aI00
aI00
aI00
aI00
aa(lp45
I00
aI00
aI00
aI01
aI00
aI00
aI00
aI00
aI00
aI01
aI00
aI00
aI00
aI00
aI00
aI00
aI00
aI00
aa(lp46
I00
aI00
aI01
aI00
aI00
aI00
aI00
aI00
aI00
aI00
aI00
aI00
aI00
aI00
aI00
aI00
aI00
aI00
aa(lp47
I00
aI01
aI00
aI01
aI00
aI00
aI00
aI01
aI00
aI01
aI00
aI00
aI00
aI00
aI00
aI00
aI00
aI00
aa(lp48
I00
aI00
aI00
aI00
aI00
aI00
aI00
aI00
aI00
aI00
aI00
aI00
aI00
aI00
aI00
aI00
aI00
aI00
aasS'height'
p49
I18
sbsS'agentPositions'
p50
(lp51
(I00
(I1
I2
tp52
tp53
a(I00
(I32
I15
tp54
tp55
a(I00
(I1
I1
tp56
tp57
a(I00
(I32
I16
tp58
tp59
asg49
I18
sg12
I34
sS'walls'
p60
(igame
Grid
p61
(dp62
g11
I30
sg12
I34
sg13
(lp63
(lp64
I01
aI01
aI01
aI01
aI01
aI01
aI01
aI01
aI01
aI01
aI01
aI01
aI01
aI01
aI01
aI01
aI01
aI01
aa(lp65
I01
aI00
aI00
aI00
aI01
aI00
aI00
aI01
aI00
aI00
aI00
aI00
aI00
aI01
aI00
aI01
aI00
aI01
aa(lp66
I01
aI00
aI00
aI00
aI00
aI00
aI00
aI01
aI01
aI00
aI01
aI01
aI00
aI01
aI00
aI00
aI00
aI01
aa(lp67
I01
aI01
aI01
aI00
aI01
aI01
aI01
aI01
aI00
aI00
aI01
aI00
aI00
aI01
aI00
aI01
aI00
aI01
aa(lp68
I01
aI00
aI00
aI00
aI00
aI01
aI00
aI01
aI00
aI00
aI01
aI00
aI00
aI01
aI00
aI01
aI00
aI01
aa(lp69
I01
aI00
aI01
aI01
aI00
aI00
aI00
aI01
aI01
aI01
aI01
aI01
aI00
aI01
aI01
aI01
aI00
aI01
aa(lp70
I01
aI00
aI00
aI01
aI00
aI01
aI00
aI00
aI00
aI00
aI00
aI00
aI00
aI01
aI00
aI01
aI00
aI01
aa(lp71
I01
aI00
aI01
aI01
aI00
aI01
aI00
aI01
aI00
aI01
aI01
aI00
aI01
aI01
aI00
aI00
aI00
aI01
aa(lp72
I01
aI00
aI00
aI01
aI00
aI01
aI00
aI01
aI00
aI00
aI01
aI00
aI00
aI00
aI00
aI00
aI00
aI01
aa(lp73
I01
aI00
aI00
aI00
aI00
aI01
aI00
aI00
aI00
aI01
aI01
aI01
aI01
aI01
aI01
aI00
aI01
aI01
aa(lp74
I01
aI00
aI00
aI01
aI00
aI01
aI00
aI01
aI00
aI00
aI00
aI00
aI01
aI00
aI00
aI00
aI00
aI01
aa(lp75
I01
aI00
aI00
aI01
aI00
aI00
aI00
aI01
aI00
aI00
aI00
aI00
aI01
aI00
aI01
aI01
aI01
aI01
aa(lp76
I01
aI00
aI00
aI01
aI01
aI00
aI00
aI00
aI00
aI00
aI01
aI00
aI00
aI00
aI00
aI00
aI00
aI01
aa(lp77
I01
aI00
aI00
aI01
aI00
aI00
aI00
aI01
aI00
aI00
aI00
aI00
aI01
aI00
aI01
aI01
aI00
aI01
aa(lp78
I01
aI00
aI00
aI00
aI00
aI00
aI00
aI01
aI00
aI00
aI00
aI00
aI01
aI00
aI00
aI01
aI00
aI01
aa(lp79
I01
aI00
aI00
aI00
aI00
aI00
aI01
aI01
aI01
aI00
aI01
aI01
aI01
aI01
aI01
aI01
aI01
aI01
aa(lp80
I01
aI00
aI00
aI00
aI00
aI00
aI00
aI00
aI00
aI00
aI00
aI00
aI00
aI00
aI00
aI00
aI00
aI01
aa(lp81
I01
aI00
aI00
aI00
aI00
aI00
aI00
aI00
aI00
aI00
aI00
aI00
aI00
aI00
aI00
aI00
aI00
aI01
aa(lp82
I01
aI01
aI01
aI01
aI01
aI01
aI01
aI01
aI00
aI01
aI01
aI01
aI00
aI00
aI00
aI00
aI00
aI01
aa(lp83
I01
aI00
aI01
aI00
aI00
aI01
aI00
aI00
aI00
aI00
aI01
aI00
aI00
aI00
aI00
aI00
aI00
aI01
aa(lp84
I01
aI00
aI01
aI01
aI00
aI01
aI00
aI00
aI00
aI00
aI01
aI00
aI00
aI00
aI01
aI00
aI00
aI01
aa(lp85
I01
aI00
aI00
aI00
aI00
aI00
aI00
aI01
aI00
aI00
aI00
aI00
aI00
aI01
aI01
aI00
aI00
aI01
aa(lp86
I01
aI01
aI01
aI01
aI00
aI01
aI00
aI00
aI00
aI00
aI01
aI00
aI00
aI00
aI01
aI00
aI00
aI01
aa(lp87
I01
aI00
aI00
aI00
aI00
aI01
aI00
aI00
aI00
aI00
aI01
aI00
aI01
aI00
aI01
aI00
aI00
aI01
aa(lp88
I01
aI01
aI00
aI01
aI01
aI01
aI01
aI01
aI01
aI00
aI00
aI00
aI01
aI00
aI00
aI00
aI00
aI01
aa(lp89
I01
aI00
aI00
aI00
aI00
aI00
aI00
aI01
aI00
aI00
aI01
aI00
aI01
aI00
aI01
aI00
aI00
aI01
aa(lp90
I01
aI00
aI00
aI00
aI01
aI01
aI00
aI01
aI01
aI00
aI01
aI00
aI01
aI00
aI01
aI01
aI00
aI01
aa(lp91
I01
aI00
aI01
aI00
aI01
aI00
aI00
aI00
aI00
aI00
aI00
aI00
aI01
aI00
aI01
aI00
aI00
aI01
aa(lp92
I01
aI00
aI01
aI01
aI01
aI00
aI01
aI01
aI01
aI01
aI01
aI00
aI00
aI00
aI01
aI01
aI00
aI01
aa(lp93
I01
aI00
aI01
aI00
aI01
aI00
aI00
aI01
aI00
aI00
aI01
aI00
aI01
aI00
aI00
aI00
aI00
aI01
aa(lp94
I01
aI00
aI01
aI00
aI01
aI00
aI00
aI01
aI00
aI00
aI01
aI01
aI01
aI01
aI00
aI01
aI01
aI01
aa(lp95
I01
aI00
aI00
aI00
aI01
aI00
aI01
aI01
aI00
aI01
aI01
aI00
aI00
aI00
aI00
aI00
aI00
aI01
aa(lp96
I01
aI00
aI01
aI00
aI01
aI00
aI00
aI00
aI00
aI00
aI01
aI00
aI00
aI01
aI00
aI00
aI00
aI01
aa(lp97
I01
aI01
aI01
aI01
aI01
aI01
aI01
aI01
aI01
aI01
aI01
aI01
aI01
aI01
aI01
aI01
aI01
aI01
aasg49
I18
sbsS'totalFood'
p98
I60
sS'layoutText'
p99
(lp100
S'%%%%%%%%%%%%%%%%%%%%%%%%%%%%%%%%%%'
p101
aS'%.   .   %.% ..%..            % 4%'
p102
aS'%%.%%%%    % %%% .  ..   .%.% % 2%'
p103
aS'%. ..%.  % % %.% .  %%%% %%%%    %'
p104
aS'%%%%%%%% %    .%     %        % %%'
p105
aS'%     .% %%%.%%%    .  %%%%% %%  %'
p106
aS'% % .%   %     %  %          .%  %'
p107
aS'%.%%%% %%%  %  %  %%% %% %% %%%%%%'
p108
aS'%    % %.%       .%         % .%.%'
p109
aS'%.%. %         %.       %.% %    %'
p110
aS'%%%%%% %% %% %%%  %  %  %%% %%%%.%'
p111
aS'%  %.          %  %     %   %. % %'
p112
aS'%  %% %%%%%  .    %%%.%%% %.     %'
p113
aS'%% %        %     %.    % %%%%%%%%'
p114
aS'%    %%%% %%%%  . %.% % %  .%.. .%'
p115
aS'%1 % %.%.   ..  . %%% %    %%%%.%%'
p116
aS'%3 %            ..%.. %.%   .   .%'
p117
aS'%%%%%%%%%%%%%%%%%%%%%%%%%%%%%%%%%%'
p118
asbsS'blueTeamName'
p119
S'Blue'
p120
sS'actions'
p121
(lp122
(I1
S'South'
p123
tp124
a(I2
S'East'
p125
tp126
a(I3
g123
tp127
a(I0
g125
tp128
a(I1
S'West'
p129
tp130
a(I2
S'North'
p131
tp132
a(I3
g123
tp133
a(I0
g131
tp134
a(I1
g129
tp135
a(I2
g131
tp136
a(I3
g129
tp137
a(I0
g125
tp138
a(I1
g129
tp139
a(I2
g125
tp140
a(I3
g129
tp141
a(I0
g125
tp142
a(I1
g123
tp143
a(I2
g125
tp144
a(I3
g129
tp145
a(I0
g123
tp146
a(I1
g129
tp147
a(I2
g123
tp148
a(I3
g131
tp149
a(I0
g123
tp150
a(I1
g123
tp151
a(I2
g123
tp152
a(I3
g131
tp153
a(I0
g125
tp154
a(I1
g123
tp155
a(I2
g125
tp156
a(I3
g129
tp157
a(I0
g125
tp158
a(I1
g129
tp159
a(I2
g125
tp160
a(I3
g129
tp161
a(I0
g125
tp162
a(I1
g123
tp163
a(I2
g131
tp164
a(I3
g129
tp165
a(I0
g125
tp166
a(I1
g123
tp167
a(I2
g123
tp168
a(I3
g129
tp169
a(I0
g125
tp170
a(I1
g129
tp171
a(I2
g131
tp172
a(I3
g129
tp173
a(I0
g125
tp174
a(I1
g129
tp175
a(I2
g123
tp176
a(I3
g129
tp177
a(I0
g125
tp178
a(I1
g129
tp179
a(I2
g131
tp180
a(I3
g129
tp181
a(I0
g125
tp182
a(I1
g129
tp183
a(I2
g123
tp184
a(I3
g129
tp185
a(I0
g125
tp186
a(I1
g123
tp187
a(I2
g131
tp188
a(I3
g129
tp189
a(I0
g125
tp190
a(I1
g129
tp191
a(I2
g123
tp192
a(I3
g129
tp193
a(I0
g125
tp194
a(I1
g129
tp195
a(I2
g131
tp196
a(I3
g129
tp197
a(I0
g125
tp198
a(I1
g129
tp199
a(I2
g123
tp200
a(I3
g129
tp201
a(I0
g125
tp202
a(I1
g129
tp203
a(I2
g131
tp204
a(I3
g129
tp205
a(I0
g131
tp206
a(I1
g129
tp207
a(I2
g123
tp208
a(I3
g125
tp209
a(I0
g131
tp210
a(I1
g129
tp211
a(I2
g131
tp212
a(I3
g123
tp213
a(I0
g131
tp214
a(I1
g129
tp215
a(I2
g123
tp216
a(I3
g123
tp217
a(I0
g131
tp218
a(I1
g123
tp219
a(I2
g131
tp220
a(I3
g123
tp221
a(I0
g131
tp222
a(I1
g123
tp223
a(I2
g123
tp224
a(I3
g123
tp225
a(I0
g131
tp226
a(I1
g123
tp227
a(I2
g131
tp228
a(I3
g123
tp229
a(I0
g131
tp230
a(I1
g123
tp231
a(I2
g123
tp232
a(I3
g123
tp233
a(I0
g131
tp234
a(I1
g123
tp235
a(I2
g131
tp236
a(I3
g123
tp237
a(I0
g125
tp238
a(I1
g123
tp239
a(I2
g123
tp240
a(I3
g129
tp241
a(I0
g131
tp242
a(I1
g123
tp243
a(I2
g131
tp244
a(I3
g129
tp245
a(I0
g125
tp246
a(I1
g131
tp247
a(I2
g123
tp248
a(I3
g129
tp249
a(I0
g125
tp250
a(I1
g129
tp251
a(I2
g131
tp252
a(I3
g131
tp253
a(I0
g131
tp254
a(I1
g129
tp255
a(I2
g123
tp256
a(I3
g131
tp257
a(I0
g125
tp258
a(I1
g129
tp259
a(I2
g131
tp260
a(I3
g129
tp261
a(I0
g125
tp262
a(I1
g129
tp263
a(I2
g123
tp264
a(I3
g129
tp265
a(I0
g125
tp266
a(I1
g129
tp267
a(I2
g131
tp268
a(I3
g131
tp269
a(I0
g125
tp270
a(I1
g129
tp271
a(I2
g123
tp272
a(I3
g131
tp273
a(I0
g125
tp274
a(I1
g129
tp275
a(I2
g131
tp276
a(I3
g125
tp277
a(I0
g123
tp278
a(I1
g129
tp279
a(I2
g123
tp280
a(I3
g125
tp281
a(I0
g123
tp282
a(I1
S'Stop'
p283
tp284
a(I2
g131
tp285
a(I3
g131
tp286
a(I0
g129
tp287
a(I1
g123
tp288
a(I2
g123
tp289
a(I3
g123
tp290
a(I0
g125
tp291
a(I1
g129
tp292
a(I2
g129
tp293
a(I3
g129
tp294
a(I0
g125
tp295
a(I1
g129
tp296
a(I2
g125
tp297
a(I3
g129
tp298
a(I0
g125
tp299
a(I1
g129
tp300
a(I2
g125
tp301
a(I3
g131
tp302
a(I0
g125
tp303
a(I1
g123
tp304
a(I2
g129
tp305
a(I3
g131
tp306
a(I0
g125
tp307
a(I1
g129
tp308
a(I2
g131
tp309
a(I3
g131
tp310
a(I0
g125
tp311
a(I1
g123
tp312
a(I2
g123
tp313
a(I3
g125
tp314
a(I0
g131
tp315
a(I1
g123
tp316
a(I2
g129
tp317
a(I3
g125
tp318
a(I0
g131
tp319
a(I1
g129
tp320
a(I2
g125
tp321
a(I3
g129
tp322
a(I0
g131
tp323
a(I1
g123
tp324
a(I2
g129
tp325
a(I3
g129
tp326
a(I0
g125
tp327
a(I1
g123
tp328
a(I2
g125
tp329
a(I3
g123
tp330
a(I0
g125
tp331
a(I1
g129
tp332
a(I2
g131
tp333
a(I3
g123
tp334
a(I0
g125
tp335
a(I1
g129
tp336
a(I2
g123
tp337
a(I3
g123
tp338
a(I0
g131
tp339
a(I1
g129
tp340
a(I2
g125
tp341
a(I3
g129
tp342
a(I0
g131
tp343
a(I1
g129
tp344
a(I2
g125
tp345
a(I3
g129
tp346
a(I0
g131
tp347
a(I1
g123
tp348
a(I2
g129
tp349
a(I3
g131
tp350
a(I0
g131
tp351
a(I1
g129
tp352
a(I2
g129
tp353
a(I3
g131
tp354
a(I0
g131
tp355
a(I1
g129
tp356
a(I2
g125
tp357
a(I3
g131
tp358
a(I0
g131
tp359
a(I1
g129
tp360
a(I2
g125
tp361
a(I3
g123
tp362
a(I0
g131
tp363
a(I1
g129
tp364
a(I2
g129
tp365
a(I3
g129
tp366
a(I0
g131
tp367
a(I1
g129
tp368
a(I2
g129
tp369
a(I3
g129
tp370
a(I0
g131
tp371
a(I1
g129
tp372
a(I2
g125
tp373
a(I3
g123
tp374
a(I0
g131
tp375
a(I1
g123
tp376
a(I2
g129
tp377
a(I3
g129
tp378
a(I0
g131
tp379
a(I1
g123
tp380
a(I2
g125
tp381
a(I3
g129
tp382
a(I0
g125
tp383
a(I1
g123
tp384
a(I2
g125
tp385
a(I3
g125
tp386
a(I0
g125
tp387
a(I1
g129
tp388
a(I2
g131
tp389
a(I3
g131
tp390
a(I0
g125
tp391
a(I1
g129
tp392
a(I2
g123
tp393
a(I3
g131
tp394
a(I0
g123
tp395
a(I1
g129
tp396
a(I2
g131
tp397
a(I3
g129
tp398
a(I0
g125
tp399
a(I1
g129
tp400
a(I2
g125
tp401
a(I3
g129
tp402
a(I0
g125
tp403
a(I1
g129
tp404
a(I2
g129
tp405
a(I3
g129
tp406
a(I0
g125
tp407
a(I1
g129
tp408
a(I2
g123
tp409
a(I3
g129
tp410
a(I0
g125
tp411
a(I1
g123
tp412
a(I2
g125
tp413
a(I3
g129
tp414
a(I0
g125
tp415
a(I1
g129
tp416
a(I2
g125
tp417
a(I3
g123
tp418
a(I0
g131
tp419
a(I1
g129
tp420
a(I2
g129
tp421
a(I3
g131
tp422
a(I0
g125
tp423
a(I1
g123
tp424
a(I2
g131
tp425
a(I3
g129
tp426
a(I0
g125
tp427
a(I1
g131
tp428
a(I2
g131
tp429
a(I3
g125
tp430
a(I0
g123
tp431
a(I1
g129
tp432
a(I2
g131
tp433
a(I3
g123
tp434
a(I0
g131
tp435
a(I1
g129
tp436
a(I2
g129
tp437
a(I3
g123
tp438
a(I0
g125
tp439
a(I1
g129
tp440
a(I2
g129
tp441
a(I3
g125
tp442
a(I0
g125
tp443
a(I1
g129
tp444
a(I2
g129
tp445
a(I3
g125
tp446
a(I0
g123
tp447
a(I1
g129
tp448
a(I2
g129
tp449
a(I3
g129
tp450
a(I0
g123
tp451
a(I1
g123
tp452
a(I2
g129
tp453
a(I3
g129
tp454
a(I0
g123
tp455
a(I1
g123
tp456
a(I2
g123
tp457
a(I3
g129
tp458
a(I0
g129
tp459
a(I1
g123
tp460
a(I2
g123
tp461
a(I3
g125
tp462
a(I0
g123
tp463
a(I1
g125
tp464
a(I2
g123
tp465
a(I3
g131
tp466
a(I0
g123
tp467
a(I1
g125
tp468
a(I2
g125
tp469
a(I3
g131
tp470
a(I0
g125
tp471
a(I1
g125
tp472
a(I2
g125
tp473
a(I3
g125
tp474
a(I0
g129
tp475
a(I1
g125
tp476
a(I2
g125
tp477
a(I3
g125
tp478
a(I0
g129
tp479
a(I1
g125
tp480
a(I2
g125
tp481
a(I3
g125
tp482
a(I0
g123
tp483
a(I1
g131
tp484
a(I2
g125
tp485
a(I3
g125
tp486
a(I0
g123
tp487
a(I1
g125
tp488
a(I2
g125
tp489
a(I3
g125
tp490
a(I0
g129
tp491
a(I1
g125
tp492
a(I2
g131
tp493
a(I3
g123
tp494
a(I0
g129
tp495
a(I1
g125
tp496
a(I2
g125
tp497
a(I3
g123
tp498
a(I0
g123
tp499
a(I1
g125
tp500
a(I2
g125
tp501
a(I3
g125
tp502
a(I0
g131
tp503
a(I1
g125
tp504
a(I2
g125
tp505
a(I3
g123
tp506
a(I0
g125
tp507
a(I1
g125
tp508
a(I2
g125
tp509
a(I3
g123
tp510
a(I0
g125
tp511
a(I1
g125
tp512
a(I2
g125
tp513
a(I3
g123
tp514
a(I0
g123
tp515
a(I1
g125
tp516
a(I2
g123
tp517
a(I3
g129
tp518
a(I0
g123
tp519
a(I1
g131
tp520
a(I2
g129
tp521
a(I3
g129
tp522
a(I0
g123
tp523
a(I1
g131
tp524
a(I2
g129
tp525
a(I3
g131
tp526
a(I0
g123
tp527
a(I1
g131
tp528
a(I2
g129
tp529
a(I3
g129
tp530
a(I0
g125
tp531
a(I1
g131
tp532
a(I2
g129
tp533
a(I3
g129
tp534
a(I0
g125
tp535
a(I1
g131
tp536
a(I2
g129
tp537
a(I3
g123
tp538
a(I0
g131
tp539
a(I1
g131
tp540
a(I2
g129
tp541
a(I3
g131
tp542
a(I0
g123
tp543
a(I1
g125
tp544
a(I2
g129
tp545
a(I3
g129
tp546
a(I0
g125
tp547
a(I1
g125
tp548
a(I2
g129
tp549
a(I3
g129
tp550
a(I0
g125
tp551
a(I1
g131
tp552
a(I2
g129
tp553
a(I3
g129
tp554
a(I0
g125
tp555
a(I1
g125
tp556
a(I2
g131
tp557
a(I3
g123
tp558
a(I0
g131
tp559
a(I1
g125
tp560
a(I2
g123
tp561
a(I3
g123
tp562
a(I0
g131
tp563
a(I1
g125
tp564
a(I2
g131
tp565
a(I3
g123
tp566
a(I0
g131
tp567
a(I1
g125
tp568
a(I2
g123
tp569
a(I3
g123
tp570
a(I0
g131
tp571
a(I1
g125
tp572
a(I2
g131
tp573
a(I3
g131
tp574
a(I0
g123
tp575
a(I1
g125
tp576
a(I2
g123
tp577
a(I3
g125
tp578
a(I0
g129
tp579
a(I1
g125
tp580
a(I2
g131
tp581
a(I3
g125
tp582
a(I0
g129
tp583
a(I1
g125
tp584
a(I2
g123
tp585
a(I3
g129
tp586
a(I0
g131
tp587
a(I1
g123
tp588
a(I2
g131
tp589
a(I3
g129
tp590
a(I0
g123
tp591
a(I1
g123
tp592
a(I2
g123
tp593
a(I3
g131
tp594
a(I0
g125
tp595
a(I1
g123
tp596
a(I2
g131
tp597
a(I3
g123
tp598
a(I0
g125
tp599
a(I1
g123
tp600
a(I2
g123
tp601
a(I3
g131
tp602
a(I0
g123
tp603
a(I1
g125
tp604
a(I2
g131
tp605
a(I3
g131
tp606
a(I0
g123
tp607
a(I1
g125
tp608
a(I2
g123
tp609
a(I3
g131
tp610
a(I0
g123
tp611
a(I1
g125
tp612
a(I2
g131
tp613
a(I3
g125
tp614
a(I0
g131
tp615
a(I1
g125
tp616
a(I2
g123
tp617
a(I3
g125
tp618
a(I0
g131
tp619
a(I1
g125
tp620
a(I2
g131
tp621
a(I3
g125
tp622
a(I0
g131
tp623
a(I1
g131
tp624
a(I2
g123
tp625
a(I3
g125
tp626
a(I0
g129
tp627
a(I1
g131
tp628
a(I2
g131
tp629
a(I3
g125
tp630
a(I0
g129
tp631
a(I1
g131
tp632
a(I2
g123
tp633
a(I3
g123
tp634
a(I0
g129
tp635
a(I1
g129
tp636
a(I2
g131
tp637
a(I3
g123
tp638
a(I0
g131
tp639
a(I1
g129
tp640
a(I2
g123
tp641
a(I3
g123
tp642
a(I0
g283
tp643
a(I1
g131
tp644
a(I2
g131
tp645
a(I3
g123
tp646
a(I0
g125
tp647
a(I1
g123
tp648
a(I2
g123
tp649
a(I3
g123
tp650
a(I0
g283
tp651
a(I1
g125
tp652
a(I2
g131
tp653
a(I3
g123
tp654
a(I0
g283
tp655
a(I1
g125
tp656
a(I2
g123
tp657
a(I3
g125
tp658
a(I0
g283
tp659
a(I1
g123
tp660
a(I2
g131
tp661
a(I3
g125
tp662
a(I0
g283
tp663
a(I1
g123
tp664
a(I2
g123
tp665
a(I3
g125
tp666
a(I0
g283
tp667
a(I1
g123
tp668
a(I2
g131
tp669
a(I3
g125
tp670
a(I0
g283
tp671
a(I1
g129
tp672
a(I2
g123
tp673
a(I3
g125
tp674
a(I0
g283
tp675
a(I1
g129
tp676
a(I2
g131
tp677
a(I3
g123
tp678
a(I0
g283
tp679
a(I1
g129
tp680
a(I2
g123
tp681
a(I3
g125
tp682
a(I0
g283
tp683
a(I1
g129
tp684
a(I2
g131
tp685
a(I3
g125
tp686
a(I0
g283
tp687
a(I1
g129
tp688
a(I2
g123
tp689
a(I3
g125
tp690
a(I0
g283
tp691
a(I1
g131
tp692
a(I2
g131
tp693
a(I3
g125
tp694
a(I0
g283
tp695
a(I1
g131
tp696
a(I2
g123
tp697
a(I3
g125
tp698
a(I0
g283
tp699
a(I1
g131
tp700
a(I2
g131
tp701
a(I3
g131
tp702
a(I0
g283
tp703
a(I1
g131
tp704
a(I2
g123
tp705
a(I3
g125
tp706
a(I0
g283
tp707
a(I1
g129
tp708
a(I2
g131
tp709
a(I3
g131
tp710
a(I0
g283
tp711
a(I1
g129
tp712
a(I2
g123
tp713
a(I3
g131
tp714
a(I0
g283
tp715
a(I1
g129
tp716
a(I2
g131
tp717
a(I3
g131
tp718
a(I0
g283
tp719
a(I1
g129
tp720
a(I2
g123
tp721
a(I3
g129
tp722
a(I0
g283
tp723
a(I1
g123
tp724
a(I2
g131
tp725
a(I3
g129
tp726
a(I0
g283
tp727
a(I1
g129
tp728
a(I2
g123
tp729
a(I3
g129
tp730
a(I0
g283
tp731
a(I1
g129
tp732
a(I2
g131
tp733
a(I3
g123
tp734
a(I0
g283
tp735
a(I1
g129
tp736
a(I2
g123
tp737
a(I3
g129
tp738
a(I0
g283
tp739
a(I1
g129
tp740
a(I2
g131
tp741
a(I3
g129
tp742
a(I0
g283
tp743
a(I1
g129
tp744
a(I2
g123
tp745
a(I3
g129
tp746
a(I0
g283
tp747
a(I1
g129
tp748
a(I2
g131
tp749
a(I3
g129
tp750
a(I0
g283
tp751
a(I1
g123
tp752
a(I2
g123
tp753
a(I3
g129
tp754
a(I0
g283
tp755
a(I1
g123
tp756
a(I2
g131
tp757
a(I3
g129
tp758
a(I0
g283
tp759
a(I1
g123
tp760
a(I2
g123
tp761
a(I3
g131
tp762
a(I0
g283
tp763
a(I1
g123
tp764
a(I2
g131
tp765
a(I3
g123
tp766
a(I0
g283
tp767
a(I1
g123
tp768
a(I2
g123
tp769
a(I3
g129
tp770
a(I0
g283
tp771
a(I1
g123
tp772
a(I2
g131
tp773
a(I3
g129
tp774
a(I0
g283
tp775
a(I1
g123
tp776
a(I2
g123
tp777
a(I3
g123
tp778
a(I0
g283
tp779
a(I1
g283
tp780
a(I2
g131
tp781
a(I3
g123
tp782
a(I0
g283
tp783
a(I1
g283
tp784
a(I2
g123
tp785
a(I3
g129
tp786
a(I0
g283
tp787
a(I1
g283
tp788
a(I2
g131
tp789
a(I3
g129
tp790
a(I0
g283
tp791
a(I1
g283
tp792
a(I2
g123
tp793
a(I3
g125
tp794
a(I0
g283
tp795
a(I1
g283
tp796
a(I2
g131
tp797
a(I3
g125
tp798
a(I0
g283
tp799
a(I1
g283
tp800
a(I2
g123
tp801
a(I3
g125
tp802
a(I0
g283
tp803
a(I1
g283
tp804
a(I2
g131
tp805
a(I3
g125
tp806
a(I0
g283
tp807
a(I1
g283
tp808
a(I2
g123
tp809
a(I3
g125
tp810
a(I0
g283
tp811
a(I1
g283
tp812
a(I2
g131
tp813
a(I3
g125
tp814
a(I0
g283
tp815
a(I1
g283
tp816
a(I2
g123
tp817
a(I3
g125
tp818
a(I0
g283
tp819
a(I1
g283
tp820
a(I2
g131
tp821
a(I3
g123
tp822
a(I0
g283
tp823
a(I1
g283
tp824
a(I2
g123
tp825
a(I3
g125
tp826
a(I0
g283
tp827
a(I1
g283
tp828
a(I2
g131
tp829
a(I3
g125
tp830
a(I0
g283
tp831
a(I1
g283
tp832
a(I2
g123
tp833
a(I3
g125
tp834
a(I0
g283
tp835
a(I1
g283
tp836
a(I2
g131
tp837
a(I3
g125
tp838
a(I0
g283
tp839
a(I1
g283
tp840
a(I2
g123
tp841
a(I3
g125
tp842
a(I0
g283
tp843
a(I1
g283
tp844
a(I2
g131
tp845
a(I3
g125
tp846
asS'length'
p847
I1200
sS'agents'
p848
(lp849
(igame
Agent
p850
(dp851
S'index'
p852
I0
sba(igame
Agent
p853
(dp854
g852
I0
sba(igame
Agent
p855
(dp856
g852
I0
sba(igame
Agent
p857
(dp858
g852
I0
sbasS'redTeamName'
p859
S'Red'
p860
s.