(dp1
S'layout'
p2
(ilayout
Layout
p3
(dp4
S'capsules'
p5
(lp6
sS'numGhosts'
p7
I4
sS'food'
p8
(igame
Grid
p9
(dp10
S'CELLS_PER_INT'
p11
I30
sS'width'
p12
I34
sS'data'
p13
(lp14
(lp15
I00
aI00
aI00
aI00
aI00
aI00
aI00
aI00
aI00
aI00
aI00
aI00
aI00
aI00
aI00
aI00
aI00
aI00
aa(lp16
I00
aI00
aI00
aI00
aI00
aI00
aI00
aI00
aI01
aI00
aI01
aI00
aI00
aI00
aI01
aI00
aI01
aI00
aa(lp17
I00
aI00
aI00
aI00
aI00
aI00
aI00
aI00
aI00
aI00
aI00
aI00
aI00
aI00
aI00
aI01
aI00
aI00
aa(lp18
I00
aI00
aI00
aI00
aI00
aI00
aI00
aI00
aI01
aI00
aI00
aI00
aI00
aI00
aI01
aI00
aI00
aI00
aa(lp19
I00
aI00
aI00
aI00
aI00
aI00
aI01
aI00
aI00
aI00
aI00
aI01
aI00
aI00
aI01
aI00
aI00
aI00
aa(lp20
I00
aI00
aI00
aI00
aI00
aI00
aI00
aI00
aI00
aI00
aI00
aI00
aI00
aI00
aI00
aI00
aI01
aI00
aa(lp21
I00
aI00
aI01
aI00
aI00
aI00
aI00
aI00
aI00
aI00
aI00
aI00
aI01
aI00
aI01
aI00
aI00
aI00
aa(lp22
I00
aI00
aI00
aI00
aI00
aI00
aI00
aI00
aI00
aI00
aI00
aI00
aI00
aI00
aI00
aI00
aI00
aI00
aa(lp23
I00
aI00
aI01
aI00
aI00
aI00
aI00
aI00
aI00
aI01
aI00
aI00
aI00
aI00
aI00
aI00
aI00
aI00
aa(lp24
I00
aI00
aI00
aI00
aI00
aI00
aI00
aI00
aI00
aI00
aI00
aI00
aI00
aI00
aI00
aI00
aI00
aI00
aa(lp25
I00
aI00
aI00
aI00
aI00
aI00
aI00
aI00
aI00
aI00
aI00
aI00
aI00
aI00
aI00
aI00
aI01
aI00
aa(lp26
I00
aI00
aI00
aI00
aI00
aI00
aI00
aI00
aI00
aI00
aI00
aI00
aI00
aI00
aI00
aI00
aI00
aI00
aa(lp27
I00
aI00
aI01
aI00
aI00
aI00
aI00
aI00
aI00
aI00
aI00
aI00
aI01
aI00
aI00
aI00
aI00
aI00
aa(lp28
I00
aI00
aI01
aI00
aI00
aI01
aI00
aI00
aI00
aI00
aI00
aI00
aI00
aI00
aI00
aI00
aI01
aI00
aa(lp29
I00
aI00
aI00
aI00
aI00
aI00
aI00
aI00
aI00
aI00
aI00
aI00
aI00
aI01
aI01
aI00
aI01
aI00
aa(lp30
I00
aI00
aI00
aI00
aI00
aI00
aI00
aI00
aI00
aI00
aI00
aI00
aI00
aI00
aI00
aI00
aI00
aI00
aa(lp31
I00
aI01
aI01
aI01
aI00
aI00
aI00
aI00
aI01
aI00
aI00
aI00
aI00
aI00
aI00
aI00
aI01
aI00
aa(lp32
I00
aI01
aI00
aI00
aI00
aI00
aI00
aI00
aI00
aI01
aI00
aI00
aI00
aI00
aI01
aI01
aI01
aI00
aa(lp33
I00
aI00
aI00
aI00
aI00
aI00
aI00
aI00
aI00
aI00
aI00
aI00
aI00
aI00
aI00
aI00
aI00
aI00
aa(lp34
I00
aI01
aI00
aI01
aI01
aI00
aI00
aI00
aI00
aI00
aI00
aI00
aI00
aI00
aI00
aI00
aI00
aI00
aa(lp35
I00
aI01
aI00
aI00
aI00
aI00
aI00
aI00
aI00
aI00
aI00
aI00
aI01
aI00
aI00
aI01
aI00
aI00
aa(lp36
I00
aI00
aI00
aI00
aI00
aI01
aI00
aI00
aI00
aI00
aI00
aI00
aI00
aI00
aI00
aI01
aI00
aI00
aa(lp37
I00
aI00
aI00
aI00
aI00
aI00
aI00
aI00
aI00
aI00
aI00
aI00
aI00
aI00
aI00
aI00
aI00
aI00
aa(lp38
I00
aI01
aI00
aI00
aI00
aI00
aI00
aI00
aI00
aI00
aI00
aI00
aI00
aI00
aI00
aI00
aI00
aI00
aa(lp39
I00
aI00
aI00
aI00
aI00
aI00
aI00
aI00
aI00
aI00
aI00
aI00
aI00
aI00
aI00
aI00
aI00
aI00
aa(lp40
I00
aI00
aI00
aI00
aI00
aI00
aI00
aI00
aI01
aI00
aI00
aI00
aI00
aI00
aI00
aI01
aI00
aI00
aa(lp41
I00
aI00
aI00
aI00
aI00
aI00
aI00
aI00
aI00
aI00
aI00
aI00
aI00
aI00
aI00
aI00
aI00
aI00
aa(lp42
I00
aI00
aI00
aI01
aI00
aI01
aI00
aI00
aI00
aI00
aI00
aI00
aI00
aI00
aI00
aI01
aI00
aI00
aa(lp43
I00
aI01
aI00
aI00
aI00
aI00
aI00
aI00
aI00
aI00
aI00
aI00
aI00
aI00
aI00
aI00
aI00
aI00
aa(lp44
I00
aI00
aI00
aI01
aI00
aI00
aI01
aI00
aI00
aI00
aI00
aI01
aI00
aI00
aI00
aI00
aI00
aI00
aa(lp45
I00
aI00
aI00
aI01
aI00
aI00
aI00
aI00
aI00
aI01
aI00
aI00
aI00
aI00
aI00
aI00
aI00
aI00
aa(lp46
I00
aI00
aI01
aI00
aI00
aI00
aI00
aI00
aI00
aI00
aI00
aI00
aI00
aI00
aI00
aI00
aI00
aI00
aa(lp47
I00
aI01
aI00
aI01
aI00
aI00
aI00
aI01
aI00
aI01
aI00
aI00
aI00
aI00
aI00
aI00
aI00
aI00
aa(lp48
I00
aI00
aI00
aI00
aI00
aI00
aI00
aI00
aI00
aI00
aI00
aI00
aI00
aI00
aI00
aI00
aI00
aI00
aasS'height'
p49
I18
sbsS'agentPositions'
p50
(lp51
(I00
(I1
I2
tp52
tp53
a(I00
(I32
I15
tp54
tp55
a(I00
(I1
I1
tp56
tp57
a(I00
(I32
I16
tp58
tp59
asg49
I18
sg12
I34
sS'walls'
p60
(igame
Grid
p61
(dp62
g11
I30
sg12
I34
sg13
(lp63
(lp64
I01
aI01
aI01
aI01
aI01
aI01
aI01
aI01
aI01
aI01
aI01
aI01
aI01
aI01
aI01
aI01
aI01
aI01
aa(lp65
I01
aI00
aI00
aI00
aI01
aI00
aI00
aI01
aI00
aI00
aI00
aI00
aI00
aI01
aI00
aI01
aI00
aI01
aa(lp66
I01
aI00
aI00
aI00
aI00
aI00
aI00
aI01
aI01
aI00
aI01
aI01
aI00
aI01
aI00
aI00
aI00
aI01
aa(lp67
I01
aI01
aI01
aI00
aI01
aI01
aI01
aI01
aI00
aI00
aI01
aI00
aI00
aI01
aI00
aI01
aI00
aI01
aa(lp68
I01
aI00
aI00
aI00
aI00
aI01
aI00
aI01
aI00
aI00
aI01
aI00
aI00
aI01
aI00
aI01
aI00
aI01
aa(lp69
I01
aI00
aI01
aI01
aI00
aI00
aI00
aI01
aI01
aI01
aI01
aI01
aI00
aI01
aI01
aI01
aI00
aI01
aa(lp70
I01
aI00
aI00
aI01
aI00
aI01
aI00
aI00
aI00
aI00
aI00
aI00
aI00
aI01
aI00
aI01
aI00
aI01
aa(lp71
I01
aI00
aI01
aI01
aI00
aI01
aI00
aI01
aI00
aI01
aI01
aI00
aI01
aI01
aI00
aI00
aI00
aI01
aa(lp72
I01
aI00
aI00
aI01
aI00
aI01
aI00
aI01
aI00
aI00
aI01
aI00
aI00
aI00
aI00
aI00
aI00
aI01
aa(lp73
I01
aI00
aI00
aI00
aI00
aI01
aI00
aI00
aI00
aI01
aI01
aI01
aI01
aI01
aI01
aI00
aI01
aI01
aa(lp74
I01
aI00
aI00
aI01
aI00
aI01
aI00
aI01
aI00
aI00
aI00
aI00
aI01
aI00
aI00
aI00
aI00
aI01
aa(lp75
I01
aI00
aI00
aI01
aI00
aI00
aI00
aI01
aI00
aI00
aI00
aI00
aI01
aI00
aI01
aI01
aI01
aI01
aa(lp76
I01
aI00
aI00
aI01
aI01
aI00
aI00
aI00
aI00
aI00
aI01
aI00
aI00
aI00
aI00
aI00
aI00
aI01
aa(lp77
I01
aI00
aI00
aI01
aI00
aI00
aI00
aI01
aI00
aI00
aI00
aI00
aI01
aI00
aI01
aI01
aI00
aI01
aa(lp78
I01
aI00
aI00
aI00
aI00
aI00
aI00
aI01
aI00
aI00
aI00
aI00
aI01
aI00
aI00
aI01
aI00
aI01
aa(lp79
I01
aI00
aI00
aI00
aI00
aI00
aI01
aI01
aI01
aI00
aI01
aI01
aI01
aI01
aI01
aI01
aI01
aI01
aa(lp80
I01
aI00
aI00
aI00
aI00
aI00
aI00
aI00
aI00
aI00
aI00
aI00
aI00
aI00
aI00
aI00
aI00
aI01
aa(lp81
I01
aI00
aI00
aI00
aI00
aI00
aI00
aI00
aI00
aI00
aI00
aI00
aI00
aI00
aI00
aI00
aI00
aI01
aa(lp82
I01
aI01
aI01
aI01
aI01
aI01
aI01
aI01
aI00
aI01
aI01
aI01
aI00
aI00
aI00
aI00
aI00
aI01
aa(lp83
I01
aI00
aI01
aI00
aI00
aI01
aI00
aI00
aI00
aI00
aI01
aI00
aI00
aI00
aI00
aI00
aI00
aI01
aa(lp84
I01
aI00
aI01
aI01
aI00
aI01
aI00
aI00
aI00
aI00
aI01
aI00
aI00
aI00
aI01
aI00
aI00
aI01
aa(lp85
I01
aI00
aI00
aI00
aI00
aI00
aI00
aI01
aI00
aI00
aI00
aI00
aI00
aI01
aI01
aI00
aI00
aI01
aa(lp86
I01
aI01
aI01
aI01
aI00
aI01
aI00
aI00
aI00
aI00
aI01
aI00
aI00
aI00
aI01
aI00
aI00
aI01
aa(lp87
I01
aI00
aI00
aI00
aI00
aI01
aI00
aI00
aI00
aI00
aI01
aI00
aI01
aI00
aI01
aI00
aI00
aI01
aa(lp88
I01
aI01
aI00
aI01
aI01
aI01
aI01
aI01
aI01
aI00
aI00
aI00
aI01
aI00
aI00
aI00
aI00
aI01
aa(lp89
I01
aI00
aI00
aI00
aI00
aI00
aI00
aI01
aI00
aI00
aI01
aI00
aI01
aI00
aI01
aI00
aI00
aI01
aa(lp90
I01
aI00
aI00
aI00
aI01
aI01
aI00
aI01
aI01
aI00
aI01
aI00
aI01
aI00
aI01
aI01
aI00
aI01
aa(lp91
I01
aI00
aI01
aI00
aI01
aI00
aI00
aI00
aI00
aI00
aI00
aI00
aI01
aI00
aI01
aI00
aI00
aI01
aa(lp92
I01
aI00
aI01
aI01
aI01
aI00
aI01
aI01
aI01
aI01
aI01
aI00
aI00
aI00
aI01
aI01
aI00
aI01
aa(lp93
I01
aI00
aI01
aI00
aI01
aI00
aI00
aI01
aI00
aI00
aI01
aI00
aI01
aI00
aI00
aI00
aI00
aI01
aa(lp94
I01
aI00
aI01
aI00
aI01
aI00
aI00
aI01
aI00
aI00
aI01
aI01
aI01
aI01
aI00
aI01
aI01
aI01
aa(lp95
I01
aI00
aI00
aI00
aI01
aI00
aI01
aI01
aI00
aI01
aI01
aI00
aI00
aI00
aI00
aI00
aI00
aI01
aa(lp96
I01
aI00
aI01
aI00
aI01
aI00
aI00
aI00
aI00
aI00
aI01
aI00
aI00
aI01
aI00
aI00
aI00
aI01
aa(lp97
I01
aI01
aI01
aI01
aI01
aI01
aI01
aI01
aI01
aI01
aI01
aI01
aI01
aI01
aI01
aI01
aI01
aI01
aasg49
I18
sbsS'totalFood'
p98
I60
sS'layoutText'
p99
(lp100
S'%%%%%%%%%%%%%%%%%%%%%%%%%%%%%%%%%%'
p101
aS'%.   .   %.% ..%..            % 4%'
p102
aS'%%.%%%%    % %%% .  ..   .%.% % 2%'
p103
aS'%. ..%.  % % %.% .  %%%% %%%%    %'
p104
aS'%%%%%%%% %    .%     %        % %%'
p105
aS'%     .% %%%.%%%    .  %%%%% %%  %'
p106
aS'% % .%   %     %  %          .%  %'
p107
aS'%.%%%% %%%  %  %  %%% %% %% %%%%%%'
p108
aS'%    % %.%       .%         % .%.%'
p109
aS'%.%. %         %.       %.% %    %'
p110
aS'%%%%%% %% %% %%%  %  %  %%% %%%%.%'
p111
aS'%  %.          %  %     %   %. % %'
p112
aS'%  %% %%%%%  .    %%%.%%% %.     %'
p113
aS'%% %        %     %.    % %%%%%%%%'
p114
aS'%    %%%% %%%%  . %.% % %  .%.. .%'
p115
aS'%1 % %.%.   ..  . %%% %    %%%%.%%'
p116
aS'%3 %            ..%.. %.%   .   .%'
p117
aS'%%%%%%%%%%%%%%%%%%%%%%%%%%%%%%%%%%'
p118
asbsS'blueTeamName'
p119
S'Blue'
p120
sS'actions'
p121
(lp122
(I0
S'East'
p123
tp124
a(I1
S'South'
p125
tp126
a(I2
g123
tp127
a(I3
g125
tp128
a(I0
S'North'
p129
tp130
a(I1
S'West'
p131
tp132
a(I2
g129
tp133
a(I3
g125
tp134
a(I0
g123
tp135
a(I1
g131
tp136
a(I2
g129
tp137
a(I3
g131
tp138
a(I0
g123
tp139
a(I1
g131
tp140
a(I2
g123
tp141
a(I3
g131
tp142
a(I0
g125
tp143
a(I1
g125
tp144
a(I2
g123
tp145
a(I3
g131
tp146
a(I0
g125
tp147
a(I1
g131
tp148
a(I2
g129
tp149
a(I3
g129
tp150
a(I0
g123
tp151
a(I1
g125
tp152
a(I2
g123
tp153
a(I3
g129
tp154
a(I0
g123
tp155
a(I1
g125
tp156
a(I2
g123
tp157
a(I3
g131
tp158
a(I0
g123
tp159
a(I1
g131
tp160
a(I2
g123
tp161
a(I3
g131
tp162
a(I0
g123
tp163
a(I1
g125
tp164
a(I2
g123
tp165
a(I3
g131
tp166
a(I0
g123
tp167
a(I1
g125
tp168
a(I2
g123
tp169
a(I3
g131
tp170
a(I0
g123
tp171
a(I1
g131
tp172
a(I2
g123
tp173
a(I3
g131
tp174
a(I0
g123
tp175
a(I1
g131
tp176
a(I2
g123
tp177
a(I3
g131
tp178
a(I0
g123
tp179
a(I1
g131
tp180
a(I2
g129
tp181
a(I3
g131
tp182
a(I0
g123
tp183
a(I1
g131
tp184
a(I2
g123
tp185
a(I3
g131
tp186
a(I0
g123
tp187
a(I1
g125
tp188
a(I2
g123
tp189
a(I3
g131
tp190
a(I0
g123
tp191
a(I1
g131
tp192
a(I2
g123
tp193
a(I3
g131
tp194
a(I0
g123
tp195
a(I1
g131
tp196
a(I2
g123
tp197
a(I3
g131
tp198
a(I0
g123
tp199
a(I1
g131
tp200
a(I2
g123
tp201
a(I3
g131
tp202
a(I0
g131
tp203
a(I1
g131
tp204
a(I2
g123
tp205
a(I3
g131
tp206
a(I0
g123
tp207
a(I1
g131
tp208
a(I2
g131
tp209
a(I3
g125
tp210
a(I0
g129
tp211
a(I1
g131
tp212
a(I2
g129
tp213
a(I3
g125
tp214
a(I0
g129
tp215
a(I1
g125
tp216
a(I2
g129
tp217
a(I3
g125
tp218
a(I0
g131
tp219
a(I1
g125
tp220
a(I2
g129
tp221
a(I3
g123
tp222
a(I0
g131
tp223
a(I1
g125
tp224
a(I2
g129
tp225
a(I3
g125
tp226
a(I0
g131
tp227
a(I1
g125
tp228
a(I2
g131
tp229
a(I3
g125
tp230
a(I0
g129
tp231
a(I1
g125
tp232
a(I2
g131
tp233
a(I3
g125
tp234
a(I0
g131
tp235
a(I1
g131
tp236
a(I2
g123
tp237
a(I3
g125
tp238
a(I0
g123
tp239
a(I1
g125
tp240
a(I2
g123
tp241
a(I3
g125
tp242
a(I0
g123
tp243
a(I1
g125
tp244
a(I2
g125
tp245
a(I3
g125
tp246
a(I0
g123
tp247
a(I1
g129
tp248
a(I2
g125
tp249
a(I3
g125
tp250
a(I0
g125
tp251
a(I1
g131
tp252
a(I2
g125
tp253
a(I3
g129
tp254
a(I0
g131
tp255
a(I1
g131
tp256
a(I2
g125
tp257
a(I3
g129
tp258
a(I0
g131
tp259
a(I1
g131
tp260
a(I2
g131
tp261
a(I3
g131
tp262
a(I0
g125
tp263
a(I1
g131
tp264
a(I2
g123
tp265
a(I3
g123
tp266
a(I0
g131
tp267
a(I1
g131
tp268
a(I2
g131
tp269
a(I3
g129
tp270
a(I0
g131
tp271
a(I1
g131
tp272
a(I2
g131
tp273
a(I3
g131
tp274
a(I0
g131
tp275
a(I1
g131
tp276
a(I2
g131
tp277
a(I3
g131
tp278
a(I0
g131
tp279
a(I1
g131
tp280
a(I2
g131
tp281
a(I3
g131
tp282
a(I0
g131
tp283
a(I1
g125
tp284
a(I2
g131
tp285
a(I3
g129
tp286
a(I0
g131
tp287
a(I1
g123
tp288
a(I2
g125
tp289
a(I3
g129
tp290
a(I0
g123
tp291
a(I1
g123
tp292
a(I2
g131
tp293
a(I3
g131
tp294
a(I0
g123
tp295
a(I1
g123
tp296
a(I2
g131
tp297
a(I3
g131
tp298
a(I0
g123
tp299
a(I1
g123
tp300
a(I2
g125
tp301
a(I3
g129
tp302
a(I0
g123
tp303
a(I1
g123
tp304
a(I2
g125
tp305
a(I3
g129
tp306
a(I0
g123
tp307
a(I1
g123
tp308
a(I2
g123
tp309
a(I3
g123
tp310
a(I0
g123
tp311
a(I1
g123
tp312
a(I2
g123
tp313
a(I3
g123
tp314
a(I0
g123
tp315
a(I1
g123
tp316
a(I2
g123
tp317
a(I3
g129
tp318
a(I0
g123
tp319
a(I1
g131
tp320
a(I2
g123
tp321
a(I3
g125
tp322
a(I0
g131
tp323
a(I1
g123
tp324
a(I2
g123
tp325
a(I3
g131
tp326
a(I0
g123
tp327
a(I1
g123
tp328
a(I2
g123
tp329
a(I3
g131
tp330
a(I0
g125
tp331
a(I1
g129
tp332
a(I2
g123
tp333
a(I3
g129
tp334
a(I0
g129
tp335
a(I1
g129
tp336
a(I2
g125
tp337
a(I3
g129
tp338
a(I0
g129
tp339
a(I1
g129
tp340
a(I2
g131
tp341
a(I3
g129
tp342
a(I0
g129
tp343
a(I1
g129
tp344
a(I2
g131
tp345
a(I3
g123
tp346
a(I0
g129
tp347
a(I1
g125
tp348
a(I2
g129
tp349
a(I3
g123
tp350
a(I0
g129
tp351
a(I1
g131
tp352
a(I2
g123
tp353
a(I3
g131
tp354
a(I0
g125
tp355
a(I1
g131
tp356
a(I2
g129
tp357
a(I3
g131
tp358
a(I0
g131
tp359
a(I1
g131
tp360
a(I2
g131
tp361
a(I3
g125
tp362
a(I0
g131
tp363
a(I1
g123
tp364
a(I2
g123
tp365
a(I3
g125
tp366
a(I0
g123
tp367
a(I1
g131
tp368
a(I2
g131
tp369
a(I3
g125
tp370
a(I0
g131
tp371
a(I1
g123
tp372
a(I2
g123
tp373
a(I3
g131
tp374
a(I0
g123
tp375
a(I1
g131
tp376
a(I2
g131
tp377
a(I3
g131
tp378
a(I0
g131
tp379
a(I1
g123
tp380
a(I2
g123
tp381
a(I3
g129
tp382
a(I0
g123
tp383
a(I1
g131
tp384
a(I2
g131
tp385
a(I3
g129
tp386
a(I0
g131
tp387
a(I1
g123
tp388
a(I2
g123
tp389
a(I3
g129
tp390
a(I0
g123
tp391
a(I1
g123
tp392
a(I2
g123
tp393
a(I3
g125
tp394
a(I0
g123
tp395
a(I1
g123
tp396
a(I2
g129
tp397
a(I3
g131
tp398
a(I0
g125
tp399
a(I1
g125
tp400
a(I2
g131
tp401
a(I3
g131
tp402
a(I0
g129
tp403
a(I1
g131
tp404
a(I2
g123
tp405
a(I3
g125
tp406
a(I0
g125
tp407
a(I1
g131
tp408
a(I2
g131
tp409
a(I3
g131
tp410
a(I0
g131
tp411
a(I1
g131
tp412
a(I2
g131
tp413
a(I3
g131
tp414
a(I0
g131
tp415
a(I1
g125
tp416
a(I2
g125
tp417
a(I3
g123
tp418
a(I0
g125
tp419
a(I1
g123
tp420
a(I2
g123
tp421
a(I3
g129
tp422
a(I0
g123
tp423
a(I1
g123
tp424
a(I2
g123
tp425
a(I3
g129
tp426
a(I0
g123
tp427
a(I1
g131
tp428
a(I2
g131
tp429
a(I3
g131
tp430
a(I0
g131
tp431
a(I1
g123
tp432
a(I2
g123
tp433
a(I3
g131
tp434
a(I0
g123
tp435
a(I1
g131
tp436
a(I2
g131
tp437
a(I3
g131
tp438
a(I0
g131
tp439
a(I1
g123
tp440
a(I2
g123
tp441
a(I3
g131
tp442
a(I0
g123
tp443
a(I1
g131
tp444
a(I2
g131
tp445
a(I3
g131
tp446
a(I0
g131
tp447
a(I1
g123
tp448
a(I2
g123
tp449
a(I3
g125
tp450
a(I0
g123
tp451
a(I1
g123
tp452
a(I2
g129
tp453
a(I3
g129
tp454
a(I0
g125
tp455
a(I1
g129
tp456
a(I2
g129
tp457
a(I3
g131
tp458
a(I0
g129
tp459
a(I1
g125
tp460
a(I2
g129
tp461
a(I3
g123
tp462
a(I0
g129
tp463
a(I1
g131
tp464
a(I2
g125
tp465
a(I3
g125
tp466
a(I0
g125
tp467
a(I1
g123
tp468
a(I2
g125
tp469
a(I3
g125
tp470
a(I0
g125
tp471
a(I1
g129
tp472
a(I2
g125
tp473
a(I3
g123
tp474
a(I0
g129
tp475
a(I1
g129
tp476
a(I2
g129
tp477
a(I3
g123
tp478
a(I0
g129
tp479
a(I1
g125
tp480
a(I2
g129
tp481
a(I3
g131
tp482
a(I0
g129
tp483
a(I1
g131
tp484
a(I2
g125
tp485
a(I3
g131
tp486
a(I0
g125
tp487
a(I1
g131
tp488
a(I2
g131
tp489
a(I3
g131
tp490
a(I0
g131
tp491
a(I1
g131
tp492
a(I2
g131
tp493
a(I3
g123
tp494
a(I0
g131
tp495
a(I1
g125
tp496
a(I2
g125
tp497
a(I3
g129
tp498
a(I0
g125
tp499
a(I1
g123
tp500
a(I2
g123
tp501
a(I3
g129
tp502
a(I0
g123
tp503
a(I1
g123
tp504
a(I2
g123
tp505
a(I3
g123
tp506
a(I0
g123
tp507
a(I1
g131
tp508
a(I2
g131
tp509
a(I3
g123
tp510
a(I0
g131
tp511
a(I1
g123
tp512
a(I2
g123
tp513
a(I3
g123
tp514
a(I0
g123
tp515
a(I1
g131
tp516
a(I2
g131
tp517
a(I3
g123
tp518
a(I0
g131
tp519
a(I1
g123
tp520
a(I2
g123
tp521
a(I3
g123
tp522
a(I0
g123
tp523
a(I1
g131
tp524
a(I2
g131
tp525
a(I3
g125
tp526
a(I0
g131
tp527
a(I1
g123
tp528
a(I2
g123
tp529
a(I3
g125
tp530
a(I0
g123
tp531
a(I1
g123
tp532
a(I2
g125
tp533
a(I3
g123
tp534
a(I0
g125
tp535
a(I1
g129
tp536
a(I2
g129
tp537
a(I3
g125
tp538
a(I0
g129
tp539
a(I1
g129
tp540
a(I2
g129
tp541
a(I3
g125
tp542
a(I0
g129
tp543
a(I1
g125
tp544
a(I2
g129
tp545
a(I3
g125
tp546
a(I0
g129
tp547
a(I1
g131
tp548
a(I2
g125
tp549
a(I3
g131
tp550
a(I0
g125
tp551
a(I1
g131
tp552
a(I2
g131
tp553
a(I3
g131
tp554
a(I0
g131
tp555
a(I1
g131
tp556
a(I2
g131
tp557
a(I3
g129
tp558
a(I0
g131
tp559
a(I1
g125
tp560
a(I2
g125
tp561
a(I3
g131
tp562
a(I0
g125
tp563
a(I1
g123
tp564
a(I2
g123
tp565
a(I3
g131
tp566
a(I0
g123
tp567
a(I1
g123
tp568
a(I2
g123
tp569
a(I3
g125
tp570
a(I0
g123
tp571
a(I1
g131
tp572
a(I2
g131
tp573
a(I3
g129
tp574
a(I0
g131
tp575
a(I1
g123
tp576
a(I2
g123
tp577
a(I3
g131
tp578
a(I0
g123
tp579
a(I1
g131
tp580
a(I2
g131
tp581
a(I3
g131
tp582
a(I0
g131
tp583
a(I1
g123
tp584
a(I2
g123
tp585
a(I3
g131
tp586
a(I0
g123
tp587
a(I1
g131
tp588
a(I2
g131
tp589
a(I3
g125
tp590
a(I0
g131
tp591
a(I1
g123
tp592
a(I2
g123
tp593
a(I3
g125
tp594
a(I0
g123
tp595
a(I1
g123
tp596
a(I2
g131
tp597
a(I3
g125
tp598
a(I0
g125
tp599
a(I1
g129
tp600
a(I2
g131
tp601
a(I3
g125
tp602
a(I0
g131
tp603
a(I1
g129
tp604
a(I2
g129
tp605
a(I3
g129
tp606
a(I0
g131
tp607
a(I1
g129
tp608
a(I2
g131
tp609
a(I3
g123
tp610
a(I0
g129
tp611
a(I1
g125
tp612
a(I2
g129
tp613
a(I3
g123
tp614
a(I0
g129
tp615
a(I1
S'Stop'
p616
tp617
a(I2
g131
tp618
a(I3
g125
tp619
a(I0
g131
tp620
a(I1
g616
tp621
a(I2
g131
tp622
a(I3
g129
tp623
a(I0
g129
tp624
a(I1
g129
tp625
a(I2
g129
tp626
a(I3
g131
tp627
a(I0
g131
tp628
a(I1
g616
tp629
a(I2
g131
tp630
a(I3
g131
tp631
a(I0
g131
tp632
a(I1
g131
tp633
a(I2
g123
tp634
a(I3
g129
tp635
a(I0
g123
tp636
a(I1
g123
tp637
a(I2
g123
tp638
a(I3
g129
tp639
a(I0
g123
tp640
a(I1
g616
tp641
a(I2
g123
tp642
a(I3
g129
tp643
a(I0
g123
tp644
a(I1
g616
tp645
a(I2
g123
tp646
a(I3
g123
tp647
a(I0
g123
tp648
a(I1
g125
tp649
a(I2
g125
tp650
a(I3
g123
tp651
a(I0
g123
tp652
a(I1
g129
tp653
a(I2
g123
tp654
a(I3
g123
tp655
a(I0
g129
tp656
a(I1
g125
tp657
a(I2
g123
tp658
a(I3
g123
tp659
a(I0
g129
tp660
a(I1
g125
tp661
a(I2
g129
tp662
a(I3
g123
tp663
a(I0
g129
tp664
a(I1
g129
tp665
a(I2
g129
tp666
a(I3
g125
tp667
a(I0
g129
tp668
a(I1
g129
tp669
a(I2
g129
tp670
a(I3
g125
tp671
a(I0
g131
tp672
a(I1
g131
tp673
a(I2
g125
tp674
a(I3
g125
tp675
a(I0
g123
tp676
a(I1
g131
tp677
a(I2
g125
tp678
a(I3
g125
tp679
a(I0
g125
tp680
a(I1
g131
tp681
a(I2
g125
tp682
a(I3
g123
tp683
a(I0
g125
tp684
a(I1
g131
tp685
a(I2
g131
tp686
a(I3
g123
tp687
a(I0
g125
tp688
a(I1
g125
tp689
a(I2
g131
tp690
a(I3
g129
tp691
a(I0
g125
tp692
a(I1
g616
tp693
a(I2
g131
tp694
a(I3
g125
tp695
a(I0
g131
tp696
a(I1
g123
tp697
a(I2
g123
tp698
a(I3
g123
tp699
a(I0
g131
tp700
a(I1
g123
tp701
a(I2
g123
tp702
a(I3
g123
tp703
a(I0
g123
tp704
a(I1
g123
tp705
a(I2
g123
tp706
a(I3
g129
tp707
a(I0
g123
tp708
a(I1
g123
tp709
a(I2
g125
tp710
a(I3
g123
tp711
a(I0
g125
tp712
a(I1
g616
tp713
a(I2
g131
tp714
a(I3
g123
tp715
a(I0
g129
tp716
a(I1
g129
tp717
a(I2
g131
tp718
a(I3
g123
tp719
a(I0
g129
tp720
a(I1
g129
tp721
a(I2
g131
tp722
a(I3
g125
tp723
a(I0
g129
tp724
a(I1
g129
tp725
a(I2
g129
tp726
a(I3
g129
tp727
a(I0
g129
tp728
a(I1
g129
tp729
a(I2
g131
tp730
a(I3
g129
tp731
a(I0
g129
tp732
a(I1
g129
tp733
a(I2
g129
tp734
a(I3
g129
tp735
a(I0
g131
tp736
a(I1
g616
tp737
a(I2
g129
tp738
a(I3
g131
tp739
a(I0
g131
tp740
a(I1
g616
tp741
a(I2
g129
tp742
a(I3
g129
tp743
a(I0
g131
tp744
a(I1
g616
tp745
a(I2
g131
tp746
a(I3
g129
tp747
a(I0
g129
tp748
a(I1
g616
tp749
a(I2
g129
tp750
a(I3
g131
tp751
a(I0
g129
tp752
a(I1
g616
tp753
a(I2
g129
tp754
a(I3
g131
tp755
a(I0
g131
tp756
a(I1
g616
tp757
a(I2
g129
tp758
a(I3
g129
tp759
a(I0
g129
tp760
a(I1
g616
tp761
a(I2
g123
tp762
a(I3
g129
tp763
a(I0
g129
tp764
a(I1
g616
tp765
a(I2
g129
tp766
a(I3
g131
tp767
a(I0
g131
tp768
a(I1
g616
tp769
a(I2
g129
tp770
a(I3
g131
tp771
a(I0
g131
tp772
a(I1
g616
tp773
a(I2
g131
tp774
a(I3
g125
tp775
a(I0
g129
tp776
a(I1
g616
tp777
a(I2
g131
tp778
a(I3
g125
tp779
a(I0
g129
tp780
a(I1
g616
tp781
a(I2
g129
tp782
a(I3
g125
tp783
a(I0
g131
tp784
a(I1
g616
tp785
a(I2
g129
tp786
a(I3
g125
tp787
a(I0
g131
tp788
a(I1
g616
tp789
a(I2
g131
tp790
a(I3
g131
tp791
a(I0
g125
tp792
a(I1
g616
tp793
a(I2
g131
tp794
a(I3
g131
tp795
a(I0
g125
tp796
a(I1
g616
tp797
a(I2
g125
tp798
a(I3
g125
tp799
a(I0
g125
tp800
a(I1
g616
tp801
a(I2
g125
tp802
a(I3
g125
tp803
a(I0
g125
tp804
a(I1
g616
tp805
a(I2
g125
tp806
a(I3
g125
tp807
a(I0
g131
tp808
a(I1
g616
tp809
a(I2
g125
tp810
a(I3
g123
tp811
a(I0
g131
tp812
a(I1
g616
tp813
a(I2
g131
tp814
a(I3
g123
tp815
a(I0
g125
tp816
a(I1
g616
tp817
a(I2
g131
tp818
a(I3
g123
tp819
a(I0
g125
tp820
a(I1
g616
tp821
a(I2
g125
tp822
a(I3
g123
tp823
a(I0
g125
tp824
a(I1
g616
tp825
a(I2
g125
tp826
a(I3
g129
tp827
a(I0
g123
tp828
a(I1
g616
tp829
a(I2
g125
tp830
a(I3
g123
tp831
a(I0
g123
tp832
a(I1
g616
tp833
a(I2
g123
tp834
a(I3
g123
tp835
a(I0
g123
tp836
a(I1
g616
tp837
a(I2
g123
tp838
a(I3
g123
tp839
a(I0
g123
tp840
a(I1
g616
tp841
a(I2
g123
tp842
a(I3
g123
tp843
a(I0
g123
tp844
a(I1
g616
tp845
a(I2
g123
tp846
a(I3
g123
tp847
a(I0
g123
tp848
a(I1
g616
tp849
a(I2
g123
tp850
a(I3
g123
tp851
a(I0
g123
tp852
a(I1
g616
tp853
a(I2
g123
tp854
a(I3
g123
tp855
asS'length'
p856
I1200
sS'agents'
p857
(lp858
(igame
Agent
p859
(dp860
S'index'
p861
I0
sba(igame
Agent
p862
(dp863
g861
I0
sba(igame
Agent
p864
(dp865
g861
I0
sba(igame
Agent
p866
(dp867
g861
I0
sbasS'redTeamName'
p868
S'Red'
p869
s.