(dp1
S'layout'
p2
(ilayout
Layout
p3
(dp4
S'capsules'
p5
(lp6
(I11
I3
tp7
a(I19
I8
tp8
a(I14
I9
tp9
a(I22
I16
tp10
asS'numGhosts'
p11
I4
sS'food'
p12
(igame
Grid
p13
(dp14
S'CELLS_PER_INT'
p15
I30
sS'width'
p16
I34
sS'data'
p17
(lp18
(lp19
I00
aI00
aI00
aI00
aI00
aI00
aI00
aI00
aI00
aI00
aI00
aI00
aI00
aI00
aI00
aI00
aI00
aI00
aa(lp20
I00
aI00
aI00
aI00
aI00
aI00
aI00
aI01
aI00
aI00
aI00
aI00
aI00
aI00
aI01
aI00
aI01
aI00
aa(lp21
I00
aI00
aI00
aI00
aI00
aI00
aI00
aI00
aI00
aI00
aI00
aI00
aI00
aI00
aI00
aI00
aI00
aI00
aa(lp22
I00
aI00
aI00
aI00
aI00
aI00
aI00
aI00
aI01
aI01
aI00
aI00
aI00
aI00
aI00
aI00
aI01
aI00
aa(lp23
I00
aI00
aI00
aI00
aI00
aI00
aI00
aI00
aI00
aI00
aI00
aI00
aI00
aI00
aI00
aI00
aI00
aI00
aa(lp24
I00
aI00
aI00
aI00
aI00
aI00
aI01
aI00
aI00
aI00
aI00
aI00
aI01
aI00
aI00
aI01
aI00
aI00
aa(lp25
I00
aI00
aI00
aI01
aI00
aI00
aI00
aI00
aI00
aI00
aI00
aI00
aI01
aI00
aI00
aI00
aI00
aI00
aa(lp26
I00
aI00
aI00
aI00
aI00
aI00
aI01
aI00
aI00
aI00
aI00
aI00
aI00
aI00
aI00
aI00
aI01
aI00
aa(lp27
I00
aI00
aI00
aI00
aI00
aI00
aI00
aI00
aI01
aI00
aI01
aI00
aI01
aI00
aI00
aI00
aI01
aI00
aa(lp28
I00
aI00
aI00
aI00
aI00
aI00
aI00
aI00
aI00
aI01
aI00
aI00
aI01
aI00
aI00
aI00
aI01
aI00
aa(lp29
I00
aI00
aI00
aI00
aI00
aI00
aI00
aI00
aI00
aI00
aI00
aI00
aI00
aI00
aI00
aI00
aI00
aI00
aa(lp30
I00
aI00
aI00
aI00
aI00
aI01
aI01
aI00
aI00
aI00
aI00
aI01
aI01
aI00
aI01
aI00
aI01
aI00
aa(lp31
I00
aI00
aI00
aI00
aI00
aI00
aI00
aI00
aI00
aI00
aI00
aI00
aI00
aI00
aI00
aI00
aI00
aI00
aa(lp32
I00
aI00
aI00
aI00
aI00
aI00
aI00
aI00
aI00
aI00
aI00
aI00
aI00
aI00
aI00
aI00
aI01
aI00
aa(lp33
I00
aI00
aI00
aI00
aI00
aI00
aI00
aI00
aI00
aI00
aI00
aI00
aI00
aI00
aI00
aI00
aI01
aI00
aa(lp34
I00
aI00
aI00
aI00
aI00
aI00
aI00
aI00
aI00
aI00
aI00
aI00
aI00
aI00
aI00
aI00
aI00
aI00
aa(lp35
I00
aI01
aI00
aI00
aI00
aI00
aI00
aI00
aI01
aI00
aI00
aI00
aI00
aI00
aI00
aI00
aI00
aI00
aa(lp36
I00
aI00
aI00
aI00
aI00
aI00
aI00
aI00
aI00
aI01
aI00
aI00
aI00
aI00
aI00
aI00
aI01
aI00
aa(lp37
I00
aI00
aI00
aI00
aI00
aI00
aI00
aI00
aI00
aI00
aI00
aI00
aI00
aI00
aI00
aI00
aI00
aI00
aa(lp38
I00
aI01
aI00
aI00
aI00
aI00
aI00
aI00
aI00
aI00
aI00
aI00
aI00
aI00
aI00
aI00
aI00
aI00
aa(lp39
I00
aI01
aI00
aI00
aI00
aI00
aI00
aI00
aI00
aI00
aI00
aI00
aI00
aI00
aI00
aI00
aI00
aI00
aa(lp40
I00
aI00
aI00
aI00
aI00
aI00
aI00
aI00
aI00
aI00
aI00
aI00
aI00
aI00
aI00
aI00
aI00
aI00
aa(lp41
I00
aI01
aI00
aI01
aI00
aI01
aI01
aI00
aI00
aI00
aI00
aI01
aI01
aI00
aI00
aI00
aI00
aI00
aa(lp42
I00
aI00
aI00
aI00
aI00
aI00
aI00
aI00
aI00
aI00
aI00
aI00
aI00
aI00
aI00
aI00
aI00
aI00
aa(lp43
I00
aI01
aI00
aI00
aI00
aI01
aI00
aI00
aI01
aI00
aI00
aI00
aI00
aI00
aI00
aI00
aI00
aI00
aa(lp44
I00
aI01
aI00
aI00
aI00
aI01
aI00
aI01
aI00
aI01
aI00
aI00
aI00
aI00
aI00
aI00
aI00
aI00
aa(lp45
I00
aI01
aI00
aI00
aI00
aI00
aI00
aI00
aI00
aI00
aI00
aI01
aI00
aI00
aI00
aI00
aI00
aI00
aa(lp46
I00
aI00
aI00
aI00
aI00
aI01
aI00
aI00
aI00
aI00
aI00
aI00
aI00
aI00
aI01
aI00
aI00
aI00
aa(lp47
I00
aI00
aI01
aI00
aI00
aI01
aI00
aI00
aI00
aI00
aI00
aI01
aI00
aI00
aI00
aI00
aI00
aI00
aa(lp48
I00
aI00
aI00
aI00
aI00
aI00
aI00
aI00
aI00
aI00
aI00
aI00
aI00
aI00
aI00
aI00
aI00
aI00
aa(lp49
I00
aI01
aI00
aI00
aI00
aI00
aI00
aI00
aI01
aI01
aI00
aI00
aI00
aI00
aI00
aI00
aI00
aI00
aa(lp50
I00
aI00
aI00
aI00
aI00
aI00
aI00
aI00
aI00
aI00
aI00
aI00
aI00
aI00
aI00
aI00
aI00
aI00
aa(lp51
I00
aI01
aI00
aI01
aI00
aI00
aI00
aI00
aI00
aI00
aI01
aI00
aI00
aI00
aI00
aI00
aI00
aI00
aa(lp52
I00
aI00
aI00
aI00
aI00
aI00
aI00
aI00
aI00
aI00
aI00
aI00
aI00
aI00
aI00
aI00
aI00
aI00
aasS'height'
p53
I18
sbsS'agentPositions'
p54
(lp55
(I00
(I1
I2
tp56
tp57
a(I00
(I32
I15
tp58
tp59
a(I00
(I1
I1
tp60
tp61
a(I00
(I32
I16
tp62
tp63
asg53
I18
sg16
I34
sS'walls'
p64
(igame
Grid
p65
(dp66
g15
I30
sg16
I34
sg17
(lp67
(lp68
I01
aI01
aI01
aI01
aI01
aI01
aI01
aI01
aI01
aI01
aI01
aI01
aI01
aI01
aI01
aI01
aI01
aI01
aa(lp69
I01
aI00
aI00
aI00
aI00
aI00
aI00
aI00
aI00
aI00
aI00
aI00
aI00
aI00
aI00
aI00
aI00
aI01
aa(lp70
I01
aI00
aI00
aI00
aI01
aI01
aI01
aI01
aI01
aI01
aI01
aI01
aI01
aI01
aI01
aI01
aI00
aI01
aa(lp71
I01
aI00
aI01
aI00
aI01
aI00
aI00
aI01
aI00
aI00
aI00
aI00
aI00
aI00
aI00
aI01
aI00
aI01
aa(lp72
I01
aI00
aI01
aI00
aI01
aI00
aI00
aI01
aI01
aI01
aI00
aI01
aI01
aI01
aI00
aI01
aI00
aI01
aa(lp73
I01
aI00
aI01
aI00
aI01
aI00
aI00
aI01
aI00
aI00
aI00
aI01
aI00
aI01
aI00
aI00
aI00
aI01
aa(lp74
I01
aI00
aI01
aI00
aI01
aI00
aI00
aI00
aI00
aI00
aI01
aI01
aI00
aI01
aI00
aI01
aI01
aI01
aa(lp75
I01
aI00
aI01
aI00
aI01
aI00
aI00
aI01
aI00
aI00
aI00
aI00
aI00
aI01
aI00
aI01
aI00
aI01
aa(lp76
I01
aI00
aI01
aI00
aI01
aI00
aI00
aI01
aI00
aI01
aI00
aI01
aI00
aI01
aI00
aI01
aI00
aI01
aa(lp77
I01
aI00
aI00
aI00
aI01
aI00
aI00
aI01
aI00
aI00
aI00
aI01
aI00
aI01
aI00
aI01
aI00
aI01
aa(lp78
I01
aI00
aI01
aI00
aI01
aI01
aI01
aI01
aI00
aI01
aI01
aI01
aI01
aI01
aI00
aI00
aI00
aI01
aa(lp79
I01
aI00
aI01
aI00
aI01
aI00
aI00
aI00
aI00
aI00
aI00
aI00
aI00
aI01
aI00
aI01
aI00
aI01
aa(lp80
I01
aI00
aI01
aI00
aI01
aI01
aI01
aI01
aI01
aI01
aI00
aI01
aI01
aI01
aI01
aI01
aI01
aI01
aa(lp81
I01
aI00
aI00
aI00
aI00
aI00
aI01
aI00
aI00
aI00
aI00
aI00
aI00
aI01
aI00
aI00
aI00
aI01
aa(lp82
I01
aI00
aI00
aI00
aI01
aI00
aI00
aI00
aI01
aI00
aI00
aI01
aI00
aI00
aI00
aI01
aI00
aI01
aa(lp83
I01
aI01
aI00
aI00
aI01
aI00
aI01
aI00
aI01
aI01
aI00
aI01
aI01
aI01
aI00
aI01
aI01
aI01
aa(lp84
I01
aI00
aI00
aI00
aI00
aI00
aI00
aI00
aI00
aI00
aI00
aI00
aI00
aI00
aI00
aI00
aI00
aI01
aa(lp85
I01
aI00
aI00
aI00
aI00
aI00
aI00
aI00
aI00
aI00
aI00
aI00
aI00
aI00
aI00
aI00
aI00
aI01
aa(lp86
I01
aI01
aI01
aI00
aI01
aI01
aI01
aI00
aI01
aI01
aI00
aI01
aI00
aI01
aI00
aI00
aI01
aI01
aa(lp87
I01
aI00
aI01
aI00
aI00
aI00
aI01
aI00
aI00
aI01
aI00
aI00
aI00
aI01
aI00
aI00
aI00
aI01
aa(lp88
I01
aI00
aI00
aI00
aI01
aI00
aI00
aI00
aI00
aI00
aI00
aI01
aI00
aI00
aI00
aI00
aI00
aI01
aa(lp89
I01
aI01
aI01
aI01
aI01
aI01
aI01
aI00
aI01
aI01
aI01
aI01
aI01
aI01
aI00
aI01
aI00
aI01
aa(lp90
I01
aI00
aI01
aI00
aI01
aI00
aI00
aI00
aI00
aI00
aI00
aI00
aI00
aI01
aI00
aI01
aI00
aI01
aa(lp91
I01
aI00
aI00
aI00
aI01
aI01
aI01
aI01
aI01
aI00
aI01
aI01
aI01
aI01
aI00
aI01
aI00
aI01
aa(lp92
I01
aI00
aI01
aI00
aI01
aI00
aI01
aI00
aI00
aI00
aI01
aI00
aI00
aI01
aI00
aI00
aI00
aI01
aa(lp93
I01
aI00
aI01
aI00
aI01
aI00
aI01
aI00
aI01
aI00
aI01
aI00
aI00
aI01
aI00
aI01
aI00
aI01
aa(lp94
I01
aI00
aI01
aI00
aI01
aI00
aI00
aI00
aI00
aI00
aI01
aI00
aI00
aI01
aI00
aI01
aI00
aI01
aa(lp95
I01
aI01
aI01
aI00
aI01
aI00
aI01
aI01
aI00
aI00
aI00
aI00
aI00
aI01
aI00
aI01
aI00
aI01
aa(lp96
I01
aI00
aI00
aI00
aI01
aI00
aI01
aI00
aI00
aI00
aI01
aI00
aI00
aI01
aI00
aI01
aI00
aI01
aa(lp97
I01
aI00
aI01
aI00
aI01
aI01
aI01
aI00
aI01
aI01
aI01
aI00
aI00
aI01
aI00
aI01
aI00
aI01
aa(lp98
I01
aI00
aI01
aI00
aI00
aI00
aI00
aI00
aI00
aI00
aI01
aI00
aI00
aI01
aI00
aI01
aI00
aI01
aa(lp99
I01
aI00
aI01
aI01
aI01
aI01
aI01
aI01
aI01
aI01
aI01
aI01
aI01
aI01
aI00
aI00
aI00
aI01
aa(lp100
I01
aI00
aI00
aI00
aI00
aI00
aI00
aI00
aI00
aI00
aI00
aI00
aI00
aI00
aI00
aI00
aI00
aI01
aa(lp101
I01
aI01
aI01
aI01
aI01
aI01
aI01
aI01
aI01
aI01
aI01
aI01
aI01
aI01
aI01
aI01
aI01
aI01
aasg53
I18
sbsS'totalFood'
p102
I60
sS'layoutText'
p103
(lp104
S'%%%%%%%%%%%%%%%%%%%%%%%%%%%%%%%%%%'
p105
aS'%. .  %... .%..% .%   o         4%'
p106
aS'% %%%.%%%% %% %%     %%% %%%%%% 2%'
p107
aS'%.%        .%              .     %'
p108
aS'% % %%%%%%%%%% %  %% %%%%%%%%%%% %'
p109
aS'% % %.. ..%.%  %     %.%       % %'
p110
aS'% % %%% %%%.% %%  % %%.%  . .  % %'
p111
aS'% %   % . %          % %%%% %%%%.%'
p112
aS'% %.%   %.% % o% .%% %   .   %.% %'
p113
aS'% %.%   .   % %%. %o % %.%   %.% %'
p114
aS'%.%%%% %%%% %          % . %   % %'
p115
aS'% %  . .  %.%% %  %% %.%%% %%% % %'
p116
aS'% %       %.%     %  %.%.. ..% % %'
p117
aS'% %%%%%%%%%%% %%  % %%%%%%%%%% % %'
p118
aS'%     .    o         %.        %.%'
p119
aS'%1 %%%%%% %%%     %% %% %%%%.%%% %'
p120
aS'%3             %. %..%. ...%  . .%'
p121
aS'%%%%%%%%%%%%%%%%%%%%%%%%%%%%%%%%%%'
p122
asbsS'blueTeamName'
p123
S'Blue'
p124
sS'actions'
p125
(lp126
(I0
S'East'
p127
tp128
a(I1
S'South'
p129
tp130
a(I2
g127
tp131
a(I3
g129
tp132
a(I0
S'North'
p133
tp134
a(I1
S'West'
p135
tp136
a(I2
g127
tp137
a(I3
g135
tp138
a(I0
g127
tp139
a(I1
g135
tp140
a(I2
g127
tp141
a(I3
g129
tp142
a(I0
g127
tp143
a(I1
g135
tp144
a(I2
g127
tp145
a(I3
g135
tp146
a(I0
g127
tp147
a(I1
g135
tp148
a(I2
g127
tp149
a(I3
g135
tp150
a(I0
g127
tp151
a(I1
g135
tp152
a(I2
g127
tp153
a(I3
g135
tp154
a(I0
g127
tp155
a(I1
g135
tp156
a(I2
g127
tp157
a(I3
g135
tp158
a(I0
g127
tp159
a(I1
g135
tp160
a(I2
g127
tp161
a(I3
g135
tp162
a(I0
g127
tp163
a(I1
g135
tp164
a(I2
g133
tp165
a(I3
g135
tp166
a(I0
g127
tp167
a(I1
g135
tp168
a(I2
g133
tp169
a(I3
g135
tp170
a(I0
g127
tp171
a(I1
g135
tp172
a(I2
g127
tp173
a(I3
g135
tp174
a(I0
g127
tp175
a(I1
g135
tp176
a(I2
g127
tp177
a(I3
g135
tp178
a(I0
g127
tp179
a(I1
g135
tp180
a(I2
g127
tp181
a(I3
g135
tp182
a(I0
g127
tp183
a(I1
g135
tp184
a(I2
g135
tp185
a(I3
g135
tp186
a(I0
g127
tp187
a(I1
g135
tp188
a(I2
g135
tp189
a(I3
g135
tp190
a(I0
g127
tp191
a(I1
g135
tp192
a(I2
g127
tp193
a(I3
g135
tp194
a(I0
g127
tp195
a(I1
g129
tp196
a(I2
g127
tp197
a(I3
g135
tp198
a(I0
g133
tp199
a(I1
g135
tp200
a(I2
g135
tp201
a(I3
g129
tp202
a(I0
g133
tp203
a(I1
g129
tp204
a(I2
g135
tp205
a(I3
g129
tp206
a(I0
g133
tp207
a(I1
g129
tp208
a(I2
g127
tp209
a(I3
g129
tp210
a(I0
g133
tp211
a(I1
g129
tp212
a(I2
g127
tp213
a(I3
g135
tp214
a(I0
g133
tp215
a(I1
g129
tp216
a(I2
g127
tp217
a(I3
g129
tp218
a(I0
g129
tp219
a(I1
g129
tp220
a(I2
g127
tp221
a(I3
g127
tp222
a(I0
g127
tp223
a(I1
g129
tp224
a(I2
g127
tp225
a(I3
g135
tp226
a(I0
g127
tp227
a(I1
g127
tp228
a(I2
g135
tp229
a(I3
g129
tp230
a(I0
g127
tp231
a(I1
g135
tp232
a(I2
g127
tp233
a(I3
g129
tp234
a(I0
g133
tp235
a(I1
g135
tp236
a(I2
g127
tp237
a(I3
g127
tp238
a(I0
g133
tp239
a(I1
g135
tp240
a(I2
g135
tp241
a(I3
g133
tp242
a(I0
g133
tp243
a(I1
g135
tp244
a(I2
g135
tp245
a(I3
g135
tp246
a(I0
g135
tp247
a(I1
g133
tp248
a(I2
g127
tp249
a(I3
g133
tp250
a(I0
g127
tp251
a(I1
g133
tp252
a(I2
g127
tp253
a(I3
g127
tp254
a(I0
g129
tp255
a(I1
g127
tp256
a(I2
g135
tp257
a(I3
g135
tp258
a(I0
g133
tp259
a(I1
g133
tp260
a(I2
g127
tp261
a(I3
g135
tp262
a(I0
g135
tp263
a(I1
g127
tp264
a(I2
g133
tp265
a(I3
g135
tp266
a(I0
g133
tp267
a(I1
g127
tp268
a(I2
g133
tp269
a(I3
g135
tp270
a(I0
g133
tp271
a(I1
g127
tp272
a(I2
g135
tp273
a(I3
g129
tp274
a(I0
g127
tp275
a(I1
g133
tp276
a(I2
g135
tp277
a(I3
g127
tp278
a(I0
g133
tp279
a(I1
g133
tp280
a(I2
g133
tp281
a(I3
g133
tp282
a(I0
g133
tp283
a(I1
g133
tp284
a(I2
g133
tp285
a(I3
g127
tp286
a(I0
g133
tp287
a(I1
g133
tp288
a(I2
g135
tp289
a(I3
g127
tp290
a(I0
g133
tp291
a(I1
g127
tp292
a(I2
g127
tp293
a(I3
g127
tp294
a(I0
g127
tp295
a(I1
g127
tp296
a(I2
g129
tp297
a(I3
g127
tp298
a(I0
g127
tp299
a(I1
g133
tp300
a(I2
g129
tp301
a(I3
g127
tp302
a(I0
g135
tp303
a(I1
g127
tp304
a(I2
g135
tp305
a(I3
g133
tp306
a(I0
g135
tp307
a(I1
g129
tp308
a(I2
g129
tp309
a(I3
g133
tp310
a(I0
g135
tp311
a(I1
g135
tp312
a(I2
g129
tp313
a(I3
g127
tp314
a(I0
g129
tp315
a(I1
g135
tp316
a(I2
g135
tp317
a(I3
g133
tp318
a(I0
g135
tp319
a(I1
g135
tp320
a(I2
g135
tp321
a(I3
g133
tp322
a(I0
g135
tp323
a(I1
g135
tp324
a(I2
g127
tp325
a(I3
g135
tp326
a(I0
g133
tp327
a(I1
g133
tp328
a(I2
g127
tp329
a(I3
g133
tp330
a(I0
g129
tp331
a(I1
g133
tp332
a(I2
g127
tp333
a(I3
g135
tp334
a(I0
g129
tp335
a(I1
g127
tp336
a(I2
g135
tp337
a(I3
g129
tp338
a(I0
g129
tp339
a(I1
g135
tp340
a(I2
g127
tp341
a(I3
g135
tp342
a(I0
g129
tp343
a(I1
g129
tp344
a(I2
g127
tp345
a(I3
g135
tp346
a(I0
g129
tp347
a(I1
g127
tp348
a(I2
g127
tp349
a(I3
g129
tp350
a(I0
g129
tp351
a(I1
g129
tp352
a(I2
g133
tp353
a(I3
g129
tp354
a(I0
g129
tp355
a(I1
g129
tp356
a(I2
g133
tp357
a(I3
g127
tp358
a(I0
g129
tp359
a(I1
g129
tp360
a(I2
g135
tp361
a(I3
g135
tp362
a(I0
g129
tp363
a(I1
g129
tp364
a(I2
g135
tp365
a(I3
g129
tp366
a(I0
g127
tp367
a(I1
g129
tp368
a(I2
g135
tp369
a(I3
g127
tp370
a(I0
g127
tp371
a(I1
g129
tp372
a(I2
g129
tp373
a(I3
g129
tp374
a(I0
g127
tp375
a(I1
g129
tp376
a(I2
g129
tp377
a(I3
g127
tp378
a(I0
g127
tp379
a(I1
g129
tp380
a(I2
g135
tp381
a(I3
g127
tp382
a(I0
g127
tp383
a(I1
g127
tp384
a(I2
g135
tp385
a(I3
g127
tp386
a(I0
g129
tp387
a(I1
g127
tp388
a(I2
g135
tp389
a(I3
g129
tp390
a(I0
g129
tp391
a(I1
g127
tp392
a(I2
g127
tp393
a(I3
g129
tp394
a(I0
g133
tp395
a(I1
g127
tp396
a(I2
g127
tp397
a(I3
g129
tp398
a(I0
g133
tp399
a(I1
g135
tp400
a(I2
g135
tp401
a(I3
g127
tp402
a(I0
g133
tp403
a(I1
g127
tp404
a(I2
g135
tp405
a(I3
g127
tp406
a(I0
g133
tp407
a(I1
g127
tp408
a(I2
g127
tp409
a(I3
g133
tp410
a(I0
g133
tp411
a(I1
g133
tp412
a(I2
g127
tp413
a(I3
g133
tp414
a(I0
g133
tp415
a(I1
g133
tp416
a(I2
g135
tp417
a(I3
g133
tp418
a(I0
g129
tp419
a(I1
g127
tp420
a(I2
g135
tp421
a(I3
g129
tp422
a(I0
g133
tp423
a(I1
g135
tp424
a(I2
g127
tp425
a(I3
g129
tp426
a(I0
g133
tp427
a(I1
g133
tp428
a(I2
g127
tp429
a(I3
g135
tp430
a(I0
S'Stop'
p431
tp432
a(I1
g133
tp433
a(I2
g135
tp434
a(I3
g135
tp435
a(I0
g431
tp436
a(I1
g129
tp437
a(I2
g135
tp438
a(I3
g135
tp439
a(I0
g129
tp440
a(I1
g129
tp441
a(I2
g127
tp442
a(I3
g135
tp443
a(I0
g133
tp444
a(I1
g133
tp445
a(I2
g127
tp446
a(I3
g135
tp447
a(I0
g431
tp448
a(I1
g133
tp449
a(I2
g135
tp450
a(I3
g135
tp451
a(I0
g431
tp452
a(I1
g129
tp453
a(I2
g135
tp454
a(I3
g135
tp455
a(I0
g129
tp456
a(I1
g129
tp457
a(I2
g127
tp458
a(I3
g135
tp459
a(I0
g133
tp460
a(I1
g133
tp461
a(I2
g127
tp462
a(I3
g135
tp463
a(I0
g129
tp464
a(I1
g133
tp465
a(I2
g135
tp466
a(I3
g135
tp467
a(I0
g127
tp468
a(I1
g129
tp469
a(I2
g135
tp470
a(I3
g135
tp471
a(I0
g133
tp472
a(I1
g129
tp473
a(I2
g127
tp474
a(I3
g135
tp475
a(I0
g127
tp476
a(I1
g129
tp477
a(I2
g127
tp478
a(I3
g135
tp479
a(I0
g127
tp480
a(I1
g129
tp481
a(I2
g135
tp482
a(I3
g135
tp483
a(I0
g127
tp484
a(I1
g135
tp485
a(I2
g135
tp486
a(I3
g135
tp487
a(I0
g127
tp488
a(I1
g135
tp489
a(I2
g127
tp490
a(I3
g135
tp491
a(I0
g127
tp492
a(I1
g129
tp493
a(I2
g127
tp494
a(I3
g135
tp495
a(I0
g127
tp496
a(I1
g129
tp497
a(I2
g135
tp498
a(I3
g135
tp499
a(I0
g127
tp500
a(I1
g135
tp501
a(I2
g135
tp502
a(I3
g135
tp503
a(I0
g127
tp504
a(I1
g129
tp505
a(I2
g127
tp506
a(I3
g133
tp507
a(I0
g127
tp508
a(I1
g129
tp509
a(I2
g127
tp510
a(I3
g133
tp511
a(I0
g127
tp512
a(I1
g135
tp513
a(I2
g127
tp514
a(I3
g127
tp515
a(I0
g127
tp516
a(I1
g135
tp517
a(I2
g133
tp518
a(I3
g135
tp519
a(I0
g127
tp520
a(I1
g135
tp521
a(I2
g129
tp522
a(I3
g127
tp523
a(I0
g135
tp524
a(I1
g129
tp525
a(I2
g127
tp526
a(I3
g135
tp527
a(I0
g127
tp528
a(I1
g129
tp529
a(I2
g127
tp530
a(I3
g127
tp531
a(I0
g127
tp532
a(I1
g127
tp533
a(I2
g135
tp534
a(I3
g135
tp535
a(I0
g127
tp536
a(I1
g133
tp537
a(I2
g135
tp538
a(I3
g127
tp539
a(I0
g135
tp540
a(I1
g133
tp541
a(I2
g135
tp542
a(I3
g135
tp543
a(I0
g135
tp544
a(I1
g135
tp545
a(I2
g127
tp546
a(I3
g127
tp547
a(I0
g135
tp548
a(I1
g133
tp549
a(I2
g127
tp550
a(I3
g135
tp551
a(I0
g127
tp552
a(I1
g133
tp553
a(I2
g127
tp554
a(I3
g127
tp555
a(I0
g127
tp556
a(I1
g135
tp557
a(I2
g127
tp558
a(I3
g135
tp559
a(I0
g127
tp560
a(I1
g135
tp561
a(I2
g133
tp562
a(I3
g127
tp563
a(I0
g127
tp564
a(I1
g133
tp565
a(I2
g133
tp566
a(I3
g135
tp567
a(I0
g127
tp568
a(I1
g133
tp569
a(I2
g135
tp570
a(I3
g129
tp571
a(I0
g127
tp572
a(I1
g127
tp573
a(I2
g135
tp574
a(I3
g129
tp575
a(I0
g127
tp576
a(I1
g127
tp577
a(I2
g127
tp578
a(I3
g127
tp579
a(I0
g129
tp580
a(I1
g129
tp581
a(I2
g127
tp582
a(I3
g127
tp583
a(I0
g129
tp584
a(I1
g127
tp585
a(I2
g135
tp586
a(I3
g127
tp587
a(I0
g135
tp588
a(I1
g129
tp589
a(I2
g135
tp590
a(I3
g129
tp591
a(I0
g127
tp592
a(I1
g129
tp593
a(I2
g135
tp594
a(I3
g127
tp595
a(I0
g133
tp596
a(I1
g129
tp597
a(I2
g129
tp598
a(I3
g129
tp599
a(I0
g133
tp600
a(I1
g135
tp601
a(I2
g129
tp602
a(I3
g129
tp603
a(I0
g135
tp604
a(I1
g129
tp605
a(I2
g127
tp606
a(I3
g129
tp607
a(I0
g133
tp608
a(I1
g127
tp609
a(I2
g135
tp610
a(I3
g127
tp611
a(I0
g133
tp612
a(I1
g133
tp613
a(I2
g135
tp614
a(I3
g127
tp615
a(I0
g127
tp616
a(I1
g127
tp617
a(I2
g135
tp618
a(I3
g127
tp619
a(I0
g133
tp620
a(I1
g127
tp621
a(I2
g135
tp622
a(I3
g129
tp623
a(I0
g129
tp624
a(I1
g133
tp625
a(I2
g127
tp626
a(I3
g129
tp627
a(I0
g133
tp628
a(I1
g133
tp629
a(I2
g127
tp630
a(I3
g129
tp631
a(I0
g133
tp632
a(I1
g129
tp633
a(I2
g135
tp634
a(I3
g135
tp635
a(I0
g127
tp636
a(I1
g129
tp637
a(I2
g135
tp638
a(I3
g135
tp639
a(I0
g133
tp640
a(I1
g135
tp641
a(I2
g127
tp642
a(I3
g135
tp643
a(I0
g127
tp644
a(I1
g135
tp645
a(I2
g127
tp646
a(I3
g135
tp647
a(I0
g127
tp648
a(I1
g135
tp649
a(I2
g127
tp650
a(I3
g133
tp651
a(I0
g127
tp652
a(I1
g129
tp653
a(I2
g127
tp654
a(I3
g133
tp655
a(I0
g127
tp656
a(I1
g129
tp657
a(I2
g127
tp658
a(I3
g133
tp659
a(I0
g127
tp660
a(I1
g133
tp661
a(I2
g127
tp662
a(I3
g135
tp663
a(I0
g127
tp664
a(I1
g135
tp665
a(I2
g135
tp666
a(I3
g135
tp667
a(I0
g127
tp668
a(I1
g135
tp669
a(I2
g135
tp670
a(I3
g135
tp671
a(I0
g127
tp672
a(I1
g135
tp673
a(I2
g135
tp674
a(I3
g135
tp675
a(I0
g127
tp676
a(I1
g127
tp677
a(I2
g127
tp678
a(I3
g135
tp679
a(I0
g127
tp680
a(I1
g135
tp681
a(I2
g135
tp682
a(I3
g133
tp683
a(I0
g135
tp684
a(I1
g127
tp685
a(I2
g127
tp686
a(I3
g133
tp687
a(I0
g127
tp688
a(I1
g135
tp689
a(I2
g135
tp690
a(I3
g129
tp691
a(I0
g135
tp692
a(I1
g127
tp693
a(I2
g127
tp694
a(I3
g133
tp695
a(I0
g127
tp696
a(I1
g135
tp697
a(I2
g135
tp698
a(I3
g129
tp699
a(I0
g135
tp700
a(I1
g129
tp701
a(I2
g129
tp702
a(I3
g133
tp703
a(I0
g127
tp704
a(I1
g135
tp705
a(I2
g129
tp706
a(I3
g129
tp707
a(I0
g127
tp708
a(I1
g135
tp709
a(I2
g135
tp710
a(I3
g133
tp711
a(I0
g127
tp712
a(I1
g135
tp713
a(I2
g135
tp714
a(I3
g129
tp715
a(I0
g127
tp716
a(I1
g135
tp717
a(I2
g135
tp718
a(I3
g133
tp719
a(I0
g127
tp720
a(I1
g133
tp721
a(I2
g135
tp722
a(I3
g129
tp723
a(I0
g127
tp724
a(I1
g133
tp725
a(I2
g133
tp726
a(I3
g129
tp727
a(I0
g133
tp728
a(I1
g127
tp729
a(I2
g133
tp730
a(I3
g127
tp731
a(I0
g133
tp732
a(I1
g127
tp733
a(I2
g127
tp734
a(I3
g127
tp735
a(I0
g133
tp736
a(I1
g127
tp737
a(I2
g127
tp738
a(I3
g129
tp739
a(I0
g133
tp740
a(I1
g127
tp741
a(I2
g127
tp742
a(I3
g129
tp743
a(I0
g127
tp744
a(I1
g133
tp745
a(I2
g127
tp746
a(I3
g129
tp747
a(I0
g127
tp748
a(I1
g133
tp749
a(I2
g133
tp750
a(I3
g127
tp751
a(I0
g127
tp752
a(I1
g127
tp753
a(I2
g133
tp754
a(I3
g129
tp755
a(I0
g129
tp756
a(I1
g127
tp757
a(I2
g127
tp758
a(I3
g129
tp759
a(I0
g133
tp760
a(I1
g127
tp761
a(I2
g127
tp762
a(I3
g135
tp763
a(I0
g133
tp764
a(I1
g129
tp765
a(I2
g127
tp766
a(I3
g129
tp767
a(I0
g133
tp768
a(I1
g129
tp769
a(I2
g127
tp770
a(I3
g129
tp771
a(I0
g133
tp772
a(I1
g127
tp773
a(I2
g127
tp774
a(I3
g129
tp775
a(I0
g135
tp776
a(I1
g133
tp777
a(I2
g127
tp778
a(I3
g127
tp779
a(I0
g133
tp780
a(I1
g133
tp781
a(I2
g127
tp782
a(I3
g127
tp783
a(I0
g133
tp784
a(I1
g133
tp785
a(I2
g127
tp786
a(I3
g133
tp787
a(I0
g127
tp788
a(I1
g133
tp789
a(I2
g127
tp790
a(I3
g127
tp791
a(I0
g135
tp792
a(I1
g127
tp793
a(I2
g127
tp794
a(I3
g133
tp795
a(I0
g135
tp796
a(I1
g127
tp797
a(I2
g127
tp798
a(I3
g133
tp799
a(I0
g135
tp800
a(I1
g133
tp801
a(I2
g127
tp802
a(I3
g133
tp803
a(I0
g135
tp804
a(I1
g127
tp805
a(I2
g127
tp806
a(I3
g127
tp807
a(I0
g127
tp808
a(I1
g133
tp809
a(I2
g127
tp810
a(I3
g133
tp811
a(I0
g127
tp812
a(I1
g133
tp813
a(I2
g133
tp814
a(I3
g133
tp815
a(I0
g127
tp816
a(I1
g135
tp817
a(I2
g127
tp818
a(I3
g133
tp819
a(I0
g135
tp820
a(I1
g133
tp821
a(I2
g127
tp822
a(I3
g135
tp823
a(I0
g135
tp824
a(I1
g133
tp825
a(I2
g133
tp826
a(I3
g133
tp827
a(I0
g135
tp828
a(I1
g135
tp829
a(I2
g133
tp830
a(I3
g129
tp831
a(I0
g133
tp832
a(I1
g135
tp833
a(I2
g133
tp834
a(I3
g133
tp835
a(I0
g133
tp836
a(I1
g129
tp837
a(I2
g133
tp838
a(I3
g135
tp839
a(I0
g127
tp840
a(I1
g135
tp841
a(I2
g133
tp842
a(I3
g135
tp843
a(I0
g127
tp844
a(I1
g133
tp845
a(I2
g133
tp846
a(I3
g129
tp847
a(I0
g127
tp848
a(I1
g133
tp849
a(I2
g133
tp850
a(I3
g135
tp851
a(I0
g127
tp852
a(I1
g133
tp853
a(I2
g133
tp854
a(I3
g133
tp855
a(I0
g127
tp856
a(I1
g127
tp857
a(I2
g135
tp858
a(I3
g133
tp859
a(I0
g127
tp860
a(I1
g127
tp861
a(I2
g135
tp862
a(I3
g133
tp863
a(I0
g127
tp864
a(I1
g127
tp865
a(I2
g135
tp866
a(I3
g127
tp867
a(I0
g127
tp868
a(I1
g127
tp869
a(I2
g133
tp870
a(I3
g133
tp871
a(I0
g127
tp872
a(I1
g127
tp873
a(I2
g133
tp874
a(I3
g133
tp875
a(I0
g127
tp876
a(I1
g127
tp877
a(I2
g127
tp878
a(I3
g127
tp879
a(I0
g127
tp880
a(I1
g127
tp881
a(I2
g133
tp882
a(I3
g127
tp883
a(I0
g127
tp884
a(I1
g127
tp885
a(I2
g133
tp886
a(I3
g127
tp887
a(I0
g127
tp888
a(I1
g127
tp889
a(I2
g127
tp890
a(I3
g127
tp891
a(I0
g127
tp892
a(I1
g127
tp893
a(I2
g127
tp894
a(I3
g127
tp895
a(I0
g127
tp896
a(I1
g127
tp897
a(I2
g127
tp898
a(I3
g135
tp899
a(I0
g127
tp900
a(I1
g127
tp901
a(I2
g129
tp902
a(I3
g135
tp903
a(I0
g129
tp904
a(I1
g127
tp905
a(I2
g129
tp906
a(I3
g135
tp907
a(I0
g129
tp908
a(I1
g127
tp909
a(I2
g135
tp910
a(I3
g129
tp911
a(I0
g129
tp912
a(I1
g127
tp913
a(I2
g133
tp914
a(I3
g129
tp915
a(I0
g129
tp916
a(I1
g127
tp917
a(I2
g127
tp918
a(I3
g129
tp919
a(I0
g129
tp920
a(I1
g129
tp921
a(I2
g129
tp922
a(I3
g129
tp923
a(I0
g129
tp924
a(I1
g129
tp925
a(I2
g127
tp926
a(I3
g129
tp927
a(I0
g129
tp928
a(I1
g129
tp929
a(I2
g127
tp930
a(I3
g129
tp931
a(I0
g129
tp932
a(I1
g129
tp933
a(I2
g129
tp934
a(I3
g129
tp935
a(I0
g129
tp936
a(I1
g129
tp937
a(I2
g129
tp938
a(I3
g129
tp939
a(I0
g129
tp940
a(I1
g129
tp941
a(I2
g127
tp942
a(I3
g129
tp943
a(I0
g129
tp944
a(I1
g129
tp945
a(I2
g129
tp946
a(I3
g129
tp947
a(I0
g129
tp948
a(I1
g129
tp949
a(I2
g129
tp950
a(I3
g129
tp951
a(I0
g129
tp952
a(I1
g129
tp953
a(I2
g135
tp954
a(I3
g129
tp955
a(I0
g135
tp956
a(I1
g129
tp957
asS'length'
p958
I1200
sS'agents'
p959
(lp960
(igame
Agent
p961
(dp962
S'index'
p963
I0
sba(igame
Agent
p964
(dp965
g963
I0
sba(igame
Agent
p966
(dp967
g963
I0
sba(igame
Agent
p968
(dp969
g963
I0
sbasS'redTeamName'
p970
S'Red'
p971
s.