(dp1
S'layout'
p2
(ilayout
Layout
p3
(dp4
S'capsules'
p5
(lp6
(I26
I7
tp7
a(I10
I8
tp8
a(I23
I9
tp9
a(I7
I10
tp10
asS'numGhosts'
p11
I4
sS'food'
p12
(igame
Grid
p13
(dp14
S'CELLS_PER_INT'
p15
I30
sS'width'
p16
I34
sS'data'
p17
(lp18
(lp19
I00
aI00
aI00
aI00
aI00
aI00
aI00
aI00
aI00
aI00
aI00
aI00
aI00
aI00
aI00
aI00
aI00
aI00
aa(lp20
I00
aI00
aI00
aI00
aI00
aI00
aI00
aI00
aI00
aI00
aI00
aI00
aI00
aI00
aI00
aI00
aI00
aI00
aa(lp21
I00
aI00
aI00
aI00
aI00
aI00
aI00
aI00
aI00
aI00
aI00
aI00
aI00
aI00
aI00
aI00
aI00
aI00
aa(lp22
I00
aI00
aI00
aI00
aI00
aI00
aI00
aI00
aI00
aI00
aI00
aI00
aI00
aI00
aI00
aI00
aI00
aI00
aa(lp23
I00
aI00
aI00
aI00
aI00
aI00
aI00
aI00
aI00
aI00
aI00
aI00
aI00
aI00
aI00
aI00
aI00
aI00
aa(lp24
I00
aI00
aI00
aI00
aI00
aI00
aI01
aI00
aI00
aI01
aI00
aI00
aI01
aI00
aI00
aI01
aI01
aI00
aa(lp25
I00
aI00
aI00
aI00
aI00
aI00
aI00
aI00
aI00
aI00
aI00
aI00
aI00
aI00
aI00
aI00
aI00
aI00
aa(lp26
I00
aI01
aI00
aI00
aI00
aI00
aI00
aI00
aI00
aI00
aI00
aI01
aI00
aI00
aI01
aI00
aI01
aI00
aa(lp27
I00
aI00
aI00
aI00
aI00
aI00
aI01
aI00
aI00
aI00
aI00
aI00
aI00
aI00
aI00
aI00
aI00
aI00
aa(lp28
I00
aI01
aI00
aI01
aI00
aI00
aI00
aI00
aI00
aI00
aI00
aI00
aI00
aI00
aI00
aI00
aI01
aI00
aa(lp29
I00
aI00
aI00
aI00
aI01
aI00
aI01
aI00
aI00
aI00
aI01
aI00
aI00
aI00
aI00
aI00
aI00
aI00
aa(lp30
I00
aI01
aI00
aI01
aI00
aI00
aI00
aI01
aI01
aI00
aI00
aI00
aI00
aI00
aI00
aI00
aI01
aI00
aa(lp31
I00
aI00
aI00
aI00
aI00
aI00
aI00
aI00
aI00
aI00
aI00
aI00
aI00
aI00
aI00
aI00
aI00
aI00
aa(lp32
I00
aI01
aI00
aI00
aI00
aI00
aI00
aI01
aI00
aI00
aI01
aI00
aI00
aI00
aI01
aI01
aI01
aI00
aa(lp33
I00
aI00
aI00
aI00
aI00
aI01
aI00
aI01
aI00
aI00
aI00
aI00
aI01
aI00
aI00
aI00
aI00
aI00
aa(lp34
I00
aI00
aI00
aI00
aI00
aI00
aI00
aI00
aI00
aI00
aI00
aI00
aI00
aI00
aI00
aI00
aI00
aI00
aa(lp35
I00
aI00
aI00
aI00
aI00
aI00
aI00
aI00
aI00
aI00
aI00
aI00
aI00
aI00
aI00
aI00
aI00
aI00
aa(lp36
I00
aI00
aI00
aI00
aI00
aI00
aI00
aI00
aI00
aI00
aI00
aI00
aI00
aI00
aI00
aI00
aI00
aI00
aa(lp37
I00
aI00
aI00
aI00
aI00
aI00
aI00
aI00
aI00
aI00
aI00
aI00
aI00
aI00
aI00
aI00
aI00
aI00
aa(lp38
I00
aI00
aI00
aI00
aI00
aI01
aI00
aI00
aI00
aI00
aI01
aI00
aI01
aI00
aI00
aI00
aI00
aI00
aa(lp39
I00
aI01
aI01
aI01
aI00
aI00
aI00
aI01
aI00
aI00
aI01
aI00
aI00
aI00
aI00
aI00
aI01
aI00
aa(lp40
I00
aI00
aI00
aI00
aI00
aI00
aI00
aI00
aI00
aI00
aI00
aI00
aI00
aI00
aI00
aI00
aI00
aI00
aa(lp41
I00
aI01
aI00
aI00
aI00
aI00
aI00
aI00
aI00
aI01
aI01
aI00
aI00
aI00
aI01
aI00
aI01
aI00
aa(lp42
I00
aI00
aI00
aI00
aI00
aI00
aI00
aI01
aI00
aI00
aI00
aI01
aI00
aI01
aI00
aI00
aI00
aI00
aa(lp43
I00
aI01
aI00
aI00
aI00
aI00
aI00
aI00
aI00
aI00
aI00
aI00
aI00
aI00
aI01
aI00
aI01
aI00
aa(lp44
I00
aI00
aI00
aI00
aI00
aI00
aI00
aI00
aI00
aI00
aI00
aI01
aI00
aI00
aI00
aI00
aI00
aI00
aa(lp45
I00
aI01
aI00
aI01
aI00
aI00
aI01
aI00
aI00
aI00
aI00
aI00
aI00
aI00
aI00
aI00
aI01
aI00
aa(lp46
I00
aI00
aI00
aI00
aI00
aI00
aI00
aI00
aI00
aI00
aI00
aI00
aI00
aI00
aI00
aI00
aI00
aI00
aa(lp47
I00
aI01
aI01
aI00
aI00
aI01
aI00
aI00
aI01
aI00
aI00
aI01
aI00
aI00
aI00
aI00
aI00
aI00
aa(lp48
I00
aI00
aI00
aI00
aI00
aI00
aI00
aI00
aI00
aI00
aI00
aI00
aI00
aI00
aI00
aI00
aI00
aI00
aa(lp49
I00
aI00
aI00
aI00
aI00
aI00
aI00
aI00
aI00
aI00
aI00
aI00
aI00
aI00
aI00
aI00
aI00
aI00
aa(lp50
I00
aI00
aI00
aI00
aI00
aI00
aI00
aI00
aI00
aI00
aI00
aI00
aI00
aI00
aI00
aI00
aI00
aI00
aa(lp51
I00
aI00
aI00
aI00
aI00
aI00
aI00
aI00
aI00
aI00
aI00
aI00
aI00
aI00
aI00
aI00
aI00
aI00
aa(lp52
I00
aI00
aI00
aI00
aI00
aI00
aI00
aI00
aI00
aI00
aI00
aI00
aI00
aI00
aI00
aI00
aI00
aI00
aasS'height'
p53
I18
sbsS'agentPositions'
p54
(lp55
(I00
(I1
I2
tp56
tp57
a(I00
(I32
I15
tp58
tp59
a(I00
(I1
I1
tp60
tp61
a(I00
(I32
I16
tp62
tp63
asg53
I18
sg16
I34
sS'walls'
p64
(igame
Grid
p65
(dp66
g15
I30
sg16
I34
sg17
(lp67
(lp68
I01
aI01
aI01
aI01
aI01
aI01
aI01
aI01
aI01
aI01
aI01
aI01
aI01
aI01
aI01
aI01
aI01
aI01
aa(lp69
I01
aI00
aI00
aI00
aI00
aI00
aI00
aI00
aI00
aI00
aI00
aI00
aI00
aI00
aI00
aI00
aI00
aI01
aa(lp70
I01
aI01
aI01
aI01
aI01
aI01
aI01
aI01
aI01
aI01
aI01
aI01
aI01
aI01
aI01
aI01
aI00
aI01
aa(lp71
I01
aI00
aI00
aI00
aI00
aI00
aI00
aI00
aI00
aI00
aI00
aI00
aI00
aI00
aI00
aI00
aI00
aI01
aa(lp72
I01
aI00
aI01
aI01
aI01
aI01
aI01
aI01
aI01
aI01
aI01
aI01
aI01
aI01
aI01
aI01
aI01
aI01
aa(lp73
I01
aI00
aI00
aI00
aI00
aI00
aI00
aI00
aI00
aI00
aI00
aI00
aI00
aI00
aI00
aI00
aI00
aI01
aa(lp74
I01
aI01
aI00
aI01
aI01
aI00
aI00
aI00
aI01
aI01
aI01
aI01
aI01
aI01
aI00
aI01
aI01
aI01
aa(lp75
I01
aI00
aI00
aI00
aI00
aI00
aI00
aI00
aI00
aI00
aI00
aI00
aI00
aI00
aI00
aI00
aI00
aI01
aa(lp76
I01
aI01
aI01
aI00
aI01
aI01
aI00
aI01
aI01
aI01
aI01
aI01
aI01
aI01
aI01
aI00
aI01
aI01
aa(lp77
I01
aI00
aI00
aI00
aI01
aI00
aI00
aI00
aI00
aI01
aI00
aI00
aI00
aI00
aI00
aI00
aI00
aI01
aa(lp78
I01
aI01
aI00
aI00
aI00
aI00
aI00
aI00
aI00
aI00
aI00
aI01
aI01
aI01
aI01
aI00
aI01
aI01
aa(lp79
I01
aI00
aI00
aI00
aI01
aI00
aI01
aI00
aI00
aI01
aI00
aI00
aI00
aI00
aI00
aI00
aI00
aI01
aa(lp80
I01
aI01
aI01
aI01
aI01
aI00
aI01
aI01
aI00
aI01
aI01
aI01
aI01
aI01
aI01
aI01
aI01
aI01
aa(lp81
I01
aI00
aI00
aI01
aI00
aI00
aI01
aI00
aI00
aI00
aI00
aI00
aI00
aI00
aI00
aI00
aI00
aI01
aa(lp82
I01
aI00
aI00
aI00
aI00
aI00
aI01
aI00
aI01
aI01
aI01
aI01
aI00
aI01
aI01
aI01
aI01
aI01
aa(lp83
I01
aI00
aI00
aI01
aI00
aI00
aI00
aI00
aI00
aI00
aI00
aI00
aI00
aI00
aI00
aI00
aI00
aI01
aa(lp84
I01
aI00
aI00
aI01
aI00
aI00
aI01
aI00
aI01
aI00
aI00
aI01
aI00
aI01
aI00
aI01
aI00
aI01
aa(lp85
I01
aI00
aI01
aI00
aI01
aI00
aI01
aI00
aI00
aI01
aI00
aI01
aI00
aI00
aI01
aI00
aI00
aI01
aa(lp86
I01
aI00
aI00
aI00
aI00
aI00
aI00
aI00
aI00
aI00
aI00
aI00
aI00
aI00
aI01
aI00
aI00
aI01
aa(lp87
I01
aI01
aI01
aI01
aI01
aI00
aI01
aI01
aI01
aI01
aI00
aI01
aI00
aI00
aI00
aI00
aI00
aI01
aa(lp88
I01
aI00
aI00
aI00
aI00
aI00
aI00
aI00
aI00
aI00
aI00
aI01
aI00
aI00
aI01
aI00
aI00
aI01
aa(lp89
I01
aI01
aI01
aI01
aI01
aI01
aI01
aI01
aI01
aI00
aI01
aI01
aI00
aI01
aI01
aI01
aI01
aI01
aa(lp90
I01
aI00
aI00
aI00
aI00
aI00
aI00
aI00
aI01
aI00
aI00
aI01
aI00
aI01
aI00
aI00
aI00
aI01
aa(lp91
I01
aI01
aI00
aI01
aI01
aI01
aI01
aI00
aI00
aI00
aI00
aI00
aI00
aI00
aI00
aI00
aI01
aI01
aa(lp92
I01
aI00
aI00
aI00
aI00
aI00
aI00
aI00
aI01
aI00
aI00
aI00
aI00
aI01
aI00
aI00
aI00
aI01
aa(lp93
I01
aI01
aI00
aI01
aI01
aI01
aI01
aI01
aI01
aI01
aI01
aI00
aI01
aI01
aI00
aI01
aI01
aI01
aa(lp94
I01
aI00
aI00
aI00
aI00
aI00
aI00
aI00
aI00
aI00
aI00
aI00
aI00
aI00
aI00
aI00
aI00
aI01
aa(lp95
I01
aI01
aI01
aI00
aI01
aI01
aI01
aI01
aI01
aI01
aI00
aI00
aI00
aI01
aI01
aI00
aI01
aI01
aa(lp96
I01
aI00
aI00
aI00
aI00
aI00
aI00
aI00
aI00
aI00
aI00
aI00
aI00
aI00
aI00
aI00
aI00
aI01
aa(lp97
I01
aI01
aI01
aI01
aI01
aI01
aI01
aI01
aI01
aI01
aI01
aI01
aI01
aI01
aI01
aI01
aI00
aI01
aa(lp98
I01
aI00
aI00
aI00
aI00
aI00
aI00
aI00
aI00
aI00
aI00
aI00
aI00
aI00
aI00
aI00
aI00
aI01
aa(lp99
I01
aI00
aI01
aI01
aI01
aI01
aI01
aI01
aI01
aI01
aI01
aI01
aI01
aI01
aI01
aI01
aI01
aI01
aa(lp100
I01
aI00
aI00
aI00
aI00
aI00
aI00
aI00
aI00
aI00
aI00
aI00
aI00
aI00
aI00
aI00
aI00
aI01
aa(lp101
I01
aI01
aI01
aI01
aI01
aI01
aI01
aI01
aI01
aI01
aI01
aI01
aI01
aI01
aI01
aI01
aI01
aI01
aasg53
I18
sbsS'totalFood'
p102
I60
sS'layoutText'
p103
(lp104
S'%%%%%%%%%%%%%%%%%%%%%%%%%%%%%%%%%%'
p105
aS'%   %.%.%.%.%.%     .%.%.%.%   %4%'
p106
aS'% % %.%     %.% %    %   %   % %2%'
p107
aS'% % %  .% % %.%  %% %%. .  % % % %'
p108
aS'% % % % % % % % %    %%.%% % % % %'
p109
aS'% % %.% % % % .    .     %   % % %'
p110
aS'% % % %.% % % % %% %%%%. .  .% % %'
p111
aS'% % % %o% . %.%    ..%.  %   % % %'
p112
aS'% % %.% %% %% %  % %  .o % % % % %'
p113
aS'% % % % % o.  % %  % %% %% %.% % %'
p114
aS'% % %   %  .%..    %.% . %o% % % %'
p115
aS'% % %.  . .%%%% %% % % % %.% % % %'
p116
aS'% % %   %     .    . % % % %.% % %'
p117
aS'% % % % %%.%%    % % % % % % % % %'
p118
aS'% % % %  . .%% %%  %.% % %.  % % %'
p119
aS'%1% %   %   %    % %.%     %.% % %'
p120
aS'%3%   %.%.%.%.     %.%.%.%.%.%   %'
p121
aS'%%%%%%%%%%%%%%%%%%%%%%%%%%%%%%%%%%'
p122
asbsS'blueTeamName'
p123
S'Blue'
p124
sS'actions'
p125
(lp126
(I0
S'North'
p127
tp128
a(I1
S'Stop'
p129
tp130
a(I2
g127
tp131
a(I3
g129
tp132
a(I0
g127
tp133
a(I1
S'South'
p134
tp135
a(I2
g127
tp136
a(I3
g134
tp137
a(I0
g127
tp138
a(I1
g127
tp139
a(I2
g127
tp140
a(I3
g134
tp141
a(I0
g127
tp142
a(I1
g134
tp143
a(I2
g127
tp144
a(I3
g127
tp145
a(I0
g127
tp146
a(I1
g134
tp147
a(I2
g127
tp148
a(I3
g129
tp149
a(I0
g127
tp150
a(I1
g129
tp151
a(I2
g127
tp152
a(I3
g134
tp153
a(I0
g127
tp154
a(I1
g129
tp155
a(I2
g127
tp156
a(I3
g127
tp157
a(I0
g127
tp158
a(I1
g129
tp159
a(I2
g127
tp160
a(I3
g127
tp161
a(I0
g127
tp162
a(I1
g127
tp163
a(I2
g127
tp164
a(I3
g134
tp165
a(I0
g127
tp166
a(I1
g129
tp167
a(I2
g127
tp168
a(I3
g129
tp169
a(I0
g127
tp170
a(I1
g127
tp171
a(I2
g127
tp172
a(I3
g134
tp173
a(I0
g127
tp174
a(I1
g127
tp175
a(I2
g127
tp176
a(I3
g134
tp177
a(I0
g127
tp178
a(I1
g129
tp179
a(I2
g127
tp180
a(I3
g129
tp181
a(I0
g127
tp182
a(I1
g134
tp183
a(I2
g127
tp184
a(I3
g134
tp185
a(I0
S'East'
p186
tp187
a(I1
g127
tp188
a(I2
g127
tp189
a(I3
g127
tp190
a(I0
g186
tp191
a(I1
g134
tp192
a(I2
g186
tp193
a(I3
g129
tp194
a(I0
g134
tp195
a(I1
g134
tp196
a(I2
g186
tp197
a(I3
g127
tp198
a(I0
g134
tp199
a(I1
g129
tp200
a(I2
g134
tp201
a(I3
g134
tp202
a(I0
g134
tp203
a(I1
g134
tp204
a(I2
g134
tp205
a(I3
g129
tp206
a(I0
g134
tp207
a(I1
g129
tp208
a(I2
g134
tp209
a(I3
g127
tp210
a(I0
g134
tp211
a(I1
g134
tp212
a(I2
g134
tp213
a(I3
g134
tp214
a(I0
g134
tp215
a(I1
g129
tp216
a(I2
g134
tp217
a(I3
g134
tp218
a(I0
g134
tp219
a(I1
g129
tp220
a(I2
g134
tp221
a(I3
g134
tp222
a(I0
g134
tp223
a(I1
g127
tp224
a(I2
g134
tp225
a(I3
g134
tp226
a(I0
g134
tp227
a(I1
g127
tp228
a(I2
g134
tp229
a(I3
g127
tp230
a(I0
g134
tp231
a(I1
g129
tp232
a(I2
g134
tp233
a(I3
g127
tp234
a(I0
g134
tp235
a(I1
g127
tp236
a(I2
g134
tp237
a(I3
g134
tp238
a(I0
g134
tp239
a(I1
g134
tp240
a(I2
g134
tp241
a(I3
g129
tp242
a(I0
g134
tp243
a(I1
g127
tp244
a(I2
g134
tp245
a(I3
g134
tp246
a(I0
g134
tp247
a(I1
g134
tp248
a(I2
g134
tp249
a(I3
g129
tp250
a(I0
g134
tp251
a(I1
g129
tp252
a(I2
g134
tp253
a(I3
g129
tp254
a(I0
g186
tp255
a(I1
g129
tp256
a(I2
g134
tp257
a(I3
g129
tp258
a(I0
g186
tp259
a(I1
g129
tp260
a(I2
g186
tp261
a(I3
g127
tp262
a(I0
g127
tp263
a(I1
g127
tp264
a(I2
g186
tp265
a(I3
g134
tp266
a(I0
g186
tp267
a(I1
g134
tp268
a(I2
g127
tp269
a(I3
g134
tp270
a(I0
g186
tp271
a(I1
g129
tp272
a(I2
g186
tp273
a(I3
g129
tp274
a(I0
g127
tp275
a(I1
g129
tp276
a(I2
g186
tp277
a(I3
g134
tp278
a(I0
g186
tp279
a(I1
g127
tp280
a(I2
g127
tp281
a(I3
g134
tp282
a(I0
g186
tp283
a(I1
g127
tp284
a(I2
g186
tp285
a(I3
g127
tp286
a(I0
g186
tp287
a(I1
g134
tp288
a(I2
g186
tp289
a(I3
g127
tp290
a(I0
g127
tp291
a(I1
g127
tp292
a(I2
g186
tp293
a(I3
g129
tp294
a(I0
g127
tp295
a(I1
g134
tp296
a(I2
g127
tp297
a(I3
g127
tp298
a(I0
g186
tp299
a(I1
g129
tp300
a(I2
g127
tp301
a(I3
g129
tp302
a(I0
g186
tp303
a(I1
g127
tp304
a(I2
g186
tp305
a(I3
g127
tp306
a(I0
g186
tp307
a(I1
g134
tp308
a(I2
g186
tp309
a(I3
g129
tp310
a(I0
g186
tp311
a(I1
g129
tp312
a(I2
g186
tp313
a(I3
g127
tp314
a(I0
g134
tp315
a(I1
g129
tp316
a(I2
g186
tp317
a(I3
g127
tp318
a(I0
g134
tp319
a(I1
g129
tp320
a(I2
g186
tp321
a(I3
g129
tp322
a(I0
g134
tp323
a(I1
g134
tp324
a(I2
g186
tp325
a(I3
g134
tp326
a(I0
g186
tp327
a(I1
g134
tp328
a(I2
g186
tp329
a(I3
g127
tp330
a(I0
g186
tp331
a(I1
g134
tp332
a(I2
g186
tp333
a(I3
g134
tp334
a(I0
g134
tp335
a(I1
g129
tp336
a(I2
g186
tp337
a(I3
g134
tp338
a(I0
S'West'
p339
tp340
a(I1
g127
tp341
a(I2
g186
tp342
a(I3
g127
tp343
a(I0
g339
tp344
a(I1
g129
tp345
a(I2
g134
tp346
a(I3
g127
tp347
a(I0
g127
tp348
a(I1
g134
tp349
a(I2
g134
tp350
a(I3
g134
tp351
a(I0
g127
tp352
a(I1
g134
tp353
a(I2
g134
tp354
a(I3
g127
tp355
a(I0
g127
tp356
a(I1
g127
tp357
a(I2
g134
tp358
a(I3
g127
tp359
a(I0
g186
tp360
a(I1
g127
tp361
a(I2
g127
tp362
a(I3
g134
tp363
a(I0
g127
tp364
a(I1
g134
tp365
a(I2
g127
tp366
a(I3
g134
tp367
a(I0
g127
tp368
a(I1
g134
tp369
a(I2
g127
tp370
a(I3
g134
tp371
a(I0
g127
tp372
a(I1
g127
tp373
a(I2
g127
tp374
a(I3
g127
tp375
a(I0
g127
tp376
a(I1
g129
tp377
a(I2
g127
tp378
a(I3
g127
tp379
a(I0
g127
tp380
a(I1
g134
tp381
a(I2
g127
tp382
a(I3
g134
tp383
a(I0
g127
tp384
a(I1
g129
tp385
a(I2
g127
tp386
a(I3
g129
tp387
a(I0
g127
tp388
a(I1
g127
tp389
a(I2
g127
tp390
a(I3
g134
tp391
a(I0
g127
tp392
a(I1
g129
tp393
a(I2
g127
tp394
a(I3
g129
tp395
a(I0
g127
tp396
a(I1
g127
tp397
a(I2
g339
tp398
a(I3
g129
tp399
a(I0
g127
tp400
a(I1
g127
tp401
a(I2
g339
tp402
a(I3
g134
tp403
a(I0
g127
tp404
a(I1
g127
tp405
a(I2
g127
tp406
a(I3
g134
tp407
a(I0
g127
tp408
a(I1
g127
tp409
a(I2
g127
tp410
a(I3
g129
tp411
a(I0
g186
tp412
a(I1
g134
tp413
a(I2
g186
tp414
a(I3
g127
tp415
a(I0
g339
tp416
a(I1
g134
tp417
a(I2
g339
tp418
a(I3
g134
tp419
a(I0
g134
tp420
a(I1
g134
tp421
a(I2
g339
tp422
a(I3
g127
tp423
a(I0
g134
tp424
a(I1
g134
tp425
a(I2
g339
tp426
a(I3
g129
tp427
a(I0
g134
tp428
a(I1
g134
tp429
a(I2
g186
tp430
a(I3
g134
tp431
a(I0
g134
tp432
a(I1
g129
tp433
a(I2
g186
tp434
a(I3
g134
tp435
a(I0
g134
tp436
a(I1
g129
tp437
a(I2
g186
tp438
a(I3
g134
tp439
a(I0
g134
tp440
a(I1
g129
tp441
a(I2
g127
tp442
a(I3
g134
tp443
a(I0
g134
tp444
a(I1
g127
tp445
a(I2
g127
tp446
a(I3
g127
tp447
a(I0
g134
tp448
a(I1
g134
tp449
a(I2
g127
tp450
a(I3
g129
tp451
a(I0
g134
tp452
a(I1
g129
tp453
a(I2
g186
tp454
a(I3
g129
tp455
a(I0
g134
tp456
a(I1
g127
tp457
a(I2
g127
tp458
a(I3
g134
tp459
a(I0
g134
tp460
a(I1
g129
tp461
a(I2
g339
tp462
a(I3
g129
tp463
a(I0
g339
tp464
a(I1
g134
tp465
a(I2
g134
tp466
a(I3
g127
tp467
a(I0
g134
tp468
a(I1
g129
tp469
a(I2
g134
tp470
a(I3
g127
tp471
a(I0
g134
tp472
a(I1
g134
tp473
a(I2
g134
tp474
a(I3
g127
tp475
a(I0
g134
tp476
a(I1
g127
tp477
a(I2
g186
tp478
a(I3
g129
tp479
a(I0
g186
tp480
a(I1
g127
tp481
a(I2
g134
tp482
a(I3
g129
tp483
a(I0
g186
tp484
a(I1
g127
tp485
a(I2
g186
tp486
a(I3
g127
tp487
a(I0
g134
tp488
a(I1
g134
tp489
a(I2
g186
tp490
a(I3
g127
tp491
a(I0
g339
tp492
a(I1
g127
tp493
a(I2
g186
tp494
a(I3
g129
tp495
a(I0
g339
tp496
a(I1
g127
tp497
a(I2
g134
tp498
a(I3
g134
tp499
a(I0
g127
tp500
a(I1
g129
tp501
a(I2
g134
tp502
a(I3
g127
tp503
a(I0
g127
tp504
a(I1
g129
tp505
a(I2
g339
tp506
a(I3
g127
tp507
a(I0
g127
tp508
a(I1
g127
tp509
a(I2
g134
tp510
a(I3
g134
tp511
a(I0
g186
tp512
a(I1
g129
tp513
a(I2
g186
tp514
a(I3
g127
tp515
a(I0
g127
tp516
a(I1
g134
tp517
a(I2
g134
tp518
a(I3
g134
tp519
a(I0
g127
tp520
a(I1
g129
tp521
a(I2
g134
tp522
a(I3
g134
tp523
a(I0
g127
tp524
a(I1
g134
tp525
a(I2
g127
tp526
a(I3
g129
tp527
a(I0
g127
tp528
a(I1
g127
tp529
a(I2
g127
tp530
a(I3
g129
tp531
a(I0
g127
tp532
a(I1
g127
tp533
a(I2
g127
tp534
a(I3
g127
tp535
a(I0
g127
tp536
a(I1
g127
tp537
a(I2
g127
tp538
a(I3
g134
tp539
a(I0
g127
tp540
a(I1
g129
tp541
a(I2
g127
tp542
a(I3
g127
tp543
a(I0
g127
tp544
a(I1
g129
tp545
a(I2
g127
tp546
a(I3
g134
tp547
a(I0
g127
tp548
a(I1
g134
tp549
a(I2
g127
tp550
a(I3
g127
tp551
a(I0
g127
tp552
a(I1
g127
tp553
a(I2
g339
tp554
a(I3
g129
tp555
a(I0
g127
tp556
a(I1
g129
tp557
a(I2
g127
tp558
a(I3
g129
tp559
a(I0
g127
tp560
a(I1
g129
tp561
a(I2
g127
tp562
a(I3
g129
tp563
a(I0
g186
tp564
a(I1
g129
tp565
a(I2
g134
tp566
a(I3
g134
tp567
a(I0
g339
tp568
a(I1
g134
tp569
a(I2
g186
tp570
a(I3
g129
tp571
a(I0
g134
tp572
a(I1
g129
tp573
a(I2
g186
tp574
a(I3
g134
tp575
a(I0
g134
tp576
a(I1
g127
tp577
a(I2
g134
tp578
a(I3
g134
tp579
a(I0
g134
tp580
a(I1
g129
tp581
a(I2
g127
tp582
a(I3
g129
tp583
a(I0
g134
tp584
a(I1
g129
tp585
a(I2
g127
tp586
a(I3
g127
tp587
a(I0
g134
tp588
a(I1
g134
tp589
a(I2
g134
tp590
a(I3
g127
tp591
a(I0
g134
tp592
a(I1
g134
tp593
a(I2
g339
tp594
a(I3
g127
tp595
a(I0
g134
tp596
a(I1
g134
tp597
a(I2
g134
tp598
a(I3
g127
tp599
a(I0
g134
tp600
a(I1
g134
tp601
a(I2
g134
tp602
a(I3
g129
tp603
a(I0
g134
tp604
a(I1
g134
tp605
a(I2
g134
tp606
a(I3
g129
tp607
a(I0
g134
tp608
a(I1
g127
tp609
a(I2
g339
tp610
a(I3
g134
tp611
a(I0
g134
tp612
a(I1
g129
tp613
a(I2
g339
tp614
a(I3
g127
tp615
a(I0
g339
tp616
a(I1
g129
tp617
a(I2
g339
tp618
a(I3
g134
tp619
a(I0
g134
tp620
a(I1
g127
tp621
a(I2
g339
tp622
a(I3
g127
tp623
a(I0
g134
tp624
a(I1
g127
tp625
a(I2
g339
tp626
a(I3
g127
tp627
a(I0
g134
tp628
a(I1
g134
tp629
a(I2
g339
tp630
a(I3
g129
tp631
a(I0
g186
tp632
a(I1
g129
tp633
a(I2
g339
tp634
a(I3
g127
tp635
a(I0
g186
tp636
a(I1
g129
tp637
a(I2
g186
tp638
a(I3
g127
tp639
a(I0
g134
tp640
a(I1
g127
tp641
a(I2
g186
tp642
a(I3
g134
tp643
a(I0
g339
tp644
a(I1
g129
tp645
a(I2
g186
tp646
a(I3
g129
tp647
a(I0
g339
tp648
a(I1
g134
tp649
a(I2
g186
tp650
a(I3
g129
tp651
a(I0
g127
tp652
a(I1
g134
tp653
a(I2
g186
tp654
a(I3
g129
tp655
a(I0
g127
tp656
a(I1
g129
tp657
a(I2
g186
tp658
a(I3
g134
tp659
a(I0
g127
tp660
a(I1
g129
tp661
a(I2
g186
tp662
a(I3
g134
tp663
a(I0
g186
tp664
a(I1
g127
tp665
a(I2
g186
tp666
a(I3
g127
tp667
a(I0
g127
tp668
a(I1
g127
tp669
a(I2
g134
tp670
a(I3
g129
tp671
a(I0
g127
tp672
a(I1
g134
tp673
a(I2
g186
tp674
a(I3
g129
tp675
a(I0
g127
tp676
a(I1
g129
tp677
a(I2
g186
tp678
a(I3
g127
tp679
a(I0
g127
tp680
a(I1
g127
tp681
a(I2
g186
tp682
a(I3
g129
tp683
a(I0
g127
tp684
a(I1
g134
tp685
a(I2
g186
tp686
a(I3
g129
tp687
a(I0
g127
tp688
a(I1
g134
tp689
a(I2
g134
tp690
a(I3
g134
tp691
a(I0
g127
tp692
a(I1
g129
tp693
a(I2
g134
tp694
a(I3
g134
tp695
a(I0
g127
tp696
a(I1
g127
tp697
a(I2
g134
tp698
a(I3
g134
tp699
a(I0
g127
tp700
a(I1
g129
tp701
a(I2
g134
tp702
a(I3
g129
tp703
a(I0
g127
tp704
a(I1
g127
tp705
a(I2
g134
tp706
a(I3
g129
tp707
a(I0
g127
tp708
a(I1
g127
tp709
a(I2
g134
tp710
a(I3
g129
tp711
a(I0
g127
tp712
a(I1
g127
tp713
a(I2
g134
tp714
a(I3
g129
tp715
a(I0
g186
tp716
a(I1
g134
tp717
a(I2
g134
tp718
a(I3
g127
tp719
a(I0
g339
tp720
a(I1
g127
tp721
a(I2
g134
tp722
a(I3
g129
tp723
a(I0
g134
tp724
a(I1
g134
tp725
a(I2
g134
tp726
a(I3
g134
tp727
a(I0
g134
tp728
a(I1
g127
tp729
a(I2
g127
tp730
a(I3
g134
tp731
a(I0
g134
tp732
a(I1
g129
tp733
a(I2
g127
tp734
a(I3
g127
tp735
a(I0
g134
tp736
a(I1
g134
tp737
a(I2
g339
tp738
a(I3
g129
tp739
a(I0
g134
tp740
a(I1
g127
tp741
a(I2
g339
tp742
a(I3
g127
tp743
a(I0
g134
tp744
a(I1
g134
tp745
a(I2
g134
tp746
a(I3
g127
tp747
a(I0
g134
tp748
a(I1
g127
tp749
a(I2
g134
tp750
a(I3
g129
tp751
a(I0
g134
tp752
a(I1
g134
tp753
a(I2
g127
tp754
a(I3
g127
tp755
a(I0
g134
tp756
a(I1
g127
tp757
a(I2
g339
tp758
a(I3
g129
tp759
a(I0
g134
tp760
a(I1
g134
tp761
a(I2
g339
tp762
a(I3
g129
tp763
a(I0
g134
tp764
a(I1
g127
tp765
a(I2
g134
tp766
a(I3
g134
tp767
a(I0
g339
tp768
a(I1
g134
tp769
a(I2
g127
tp770
a(I3
g127
tp771
a(I0
g134
tp772
a(I1
g127
tp773
a(I2
g339
tp774
a(I3
g134
tp775
a(I0
g134
tp776
a(I1
g134
tp777
a(I2
g339
tp778
a(I3
g129
tp779
a(I0
g134
tp780
a(I1
g127
tp781
a(I2
g134
tp782
a(I3
g134
tp783
a(I0
g186
tp784
a(I1
g129
tp785
a(I2
g127
tp786
a(I3
g129
tp787
a(I0
g186
tp788
a(I1
g129
tp789
a(I2
g127
tp790
a(I3
g129
tp791
a(I0
g134
tp792
a(I1
g134
tp793
a(I2
g127
tp794
a(I3
g127
tp795
a(I0
g339
tp796
a(I1
g134
tp797
a(I2
g127
tp798
a(I3
g127
tp799
a(I0
g339
tp800
a(I1
g127
tp801
a(I2
g127
tp802
a(I3
g129
tp803
a(I0
g127
tp804
a(I1
g129
tp805
a(I2
g127
tp806
a(I3
g129
tp807
a(I0
g127
tp808
a(I1
g127
tp809
a(I2
g186
tp810
a(I3
g134
tp811
a(I0
g127
tp812
a(I1
g134
tp813
a(I2
g127
tp814
a(I3
g129
tp815
a(I0
g186
tp816
a(I1
g129
tp817
a(I2
g127
tp818
a(I3
g129
tp819
a(I0
g127
tp820
a(I1
g134
tp821
a(I2
g339
tp822
a(I3
g129
tp823
a(I0
g127
tp824
a(I1
g127
tp825
a(I2
g339
tp826
a(I3
g127
tp827
a(I0
g127
tp828
a(I1
g134
tp829
a(I2
g339
tp830
a(I3
g134
tp831
a(I0
g127
tp832
a(I1
g134
tp833
a(I2
g127
tp834
a(I3
g134
tp835
a(I0
g127
tp836
a(I1
g127
tp837
a(I2
g339
tp838
a(I3
g127
tp839
a(I0
g127
tp840
a(I1
g129
tp841
a(I2
g339
tp842
a(I3
g134
tp843
a(I0
g127
tp844
a(I1
g134
tp845
a(I2
g339
tp846
a(I3
g134
tp847
a(I0
g127
tp848
a(I1
g129
tp849
a(I2
g339
tp850
asS'length'
p851
I1200
sS'agents'
p852
(lp853
(igame
Agent
p854
(dp855
S'index'
p856
I0
sba(igame
Agent
p857
(dp858
g856
I0
sba(igame
Agent
p859
(dp860
g856
I0
sba(igame
Agent
p861
(dp862
g856
I0
sbasS'redTeamName'
p863
S'Red'
p864
s.