(dp1
S'layout'
p2
(ilayout
Layout
p3
(dp4
S'capsules'
p5
(lp6
sS'numGhosts'
p7
I4
sS'food'
p8
(igame
Grid
p9
(dp10
S'CELLS_PER_INT'
p11
I30
sS'width'
p12
I34
sS'data'
p13
(lp14
(lp15
I00
aI00
aI00
aI00
aI00
aI00
aI00
aI00
aI00
aI00
aI00
aI00
aI00
aI00
aI00
aI00
aI00
aI00
aa(lp16
I00
aI00
aI00
aI00
aI00
aI00
aI00
aI00
aI01
aI00
aI01
aI00
aI00
aI00
aI01
aI00
aI01
aI00
aa(lp17
I00
aI00
aI00
aI00
aI00
aI00
aI00
aI00
aI00
aI00
aI00
aI00
aI00
aI00
aI00
aI01
aI00
aI00
aa(lp18
I00
aI00
aI00
aI00
aI00
aI00
aI00
aI00
aI01
aI00
aI00
aI00
aI00
aI00
aI01
aI00
aI00
aI00
aa(lp19
I00
aI00
aI00
aI00
aI00
aI00
aI01
aI00
aI00
aI00
aI00
aI01
aI00
aI00
aI01
aI00
aI00
aI00
aa(lp20
I00
aI00
aI00
aI00
aI00
aI00
aI00
aI00
aI00
aI00
aI00
aI00
aI00
aI00
aI00
aI00
aI01
aI00
aa(lp21
I00
aI00
aI01
aI00
aI00
aI00
aI00
aI00
aI00
aI00
aI00
aI00
aI01
aI00
aI01
aI00
aI00
aI00
aa(lp22
I00
aI00
aI00
aI00
aI00
aI00
aI00
aI00
aI00
aI00
aI00
aI00
aI00
aI00
aI00
aI00
aI00
aI00
aa(lp23
I00
aI00
aI01
aI00
aI00
aI00
aI00
aI00
aI00
aI01
aI00
aI00
aI00
aI00
aI00
aI00
aI00
aI00
aa(lp24
I00
aI00
aI00
aI00
aI00
aI00
aI00
aI00
aI00
aI00
aI00
aI00
aI00
aI00
aI00
aI00
aI00
aI00
aa(lp25
I00
aI00
aI00
aI00
aI00
aI00
aI00
aI00
aI00
aI00
aI00
aI00
aI00
aI00
aI00
aI00
aI01
aI00
aa(lp26
I00
aI00
aI00
aI00
aI00
aI00
aI00
aI00
aI00
aI00
aI00
aI00
aI00
aI00
aI00
aI00
aI00
aI00
aa(lp27
I00
aI00
aI01
aI00
aI00
aI00
aI00
aI00
aI00
aI00
aI00
aI00
aI01
aI00
aI00
aI00
aI00
aI00
aa(lp28
I00
aI00
aI01
aI00
aI00
aI01
aI00
aI00
aI00
aI00
aI00
aI00
aI00
aI00
aI00
aI00
aI01
aI00
aa(lp29
I00
aI00
aI00
aI00
aI00
aI00
aI00
aI00
aI00
aI00
aI00
aI00
aI00
aI01
aI01
aI00
aI01
aI00
aa(lp30
I00
aI00
aI00
aI00
aI00
aI00
aI00
aI00
aI00
aI00
aI00
aI00
aI00
aI00
aI00
aI00
aI00
aI00
aa(lp31
I00
aI01
aI01
aI01
aI00
aI00
aI00
aI00
aI01
aI00
aI00
aI00
aI00
aI00
aI00
aI00
aI01
aI00
aa(lp32
I00
aI01
aI00
aI00
aI00
aI00
aI00
aI00
aI00
aI01
aI00
aI00
aI00
aI00
aI01
aI01
aI01
aI00
aa(lp33
I00
aI00
aI00
aI00
aI00
aI00
aI00
aI00
aI00
aI00
aI00
aI00
aI00
aI00
aI00
aI00
aI00
aI00
aa(lp34
I00
aI01
aI00
aI01
aI01
aI00
aI00
aI00
aI00
aI00
aI00
aI00
aI00
aI00
aI00
aI00
aI00
aI00
aa(lp35
I00
aI01
aI00
aI00
aI00
aI00
aI00
aI00
aI00
aI00
aI00
aI00
aI01
aI00
aI00
aI01
aI00
aI00
aa(lp36
I00
aI00
aI00
aI00
aI00
aI01
aI00
aI00
aI00
aI00
aI00
aI00
aI00
aI00
aI00
aI01
aI00
aI00
aa(lp37
I00
aI00
aI00
aI00
aI00
aI00
aI00
aI00
aI00
aI00
aI00
aI00
aI00
aI00
aI00
aI00
aI00
aI00
aa(lp38
I00
aI01
aI00
aI00
aI00
aI00
aI00
aI00
aI00
aI00
aI00
aI00
aI00
aI00
aI00
aI00
aI00
aI00
aa(lp39
I00
aI00
aI00
aI00
aI00
aI00
aI00
aI00
aI00
aI00
aI00
aI00
aI00
aI00
aI00
aI00
aI00
aI00
aa(lp40
I00
aI00
aI00
aI00
aI00
aI00
aI00
aI00
aI01
aI00
aI00
aI00
aI00
aI00
aI00
aI01
aI00
aI00
aa(lp41
I00
aI00
aI00
aI00
aI00
aI00
aI00
aI00
aI00
aI00
aI00
aI00
aI00
aI00
aI00
aI00
aI00
aI00
aa(lp42
I00
aI00
aI00
aI01
aI00
aI01
aI00
aI00
aI00
aI00
aI00
aI00
aI00
aI00
aI00
aI01
aI00
aI00
aa(lp43
I00
aI01
aI00
aI00
aI00
aI00
aI00
aI00
aI00
aI00
aI00
aI00
aI00
aI00
aI00
aI00
aI00
aI00
aa(lp44
I00
aI00
aI00
aI01
aI00
aI00
aI01
aI00
aI00
aI00
aI00
aI01
aI00
aI00
aI00
aI00
aI00
aI00
aa(lp45
I00
aI00
aI00
aI01
aI00
aI00
aI00
aI00
aI00
aI01
aI00
aI00
aI00
aI00
aI00
aI00
aI00
aI00
aa(lp46
I00
aI00
aI01
aI00
aI00
aI00
aI00
aI00
aI00
aI00
aI00
aI00
aI00
aI00
aI00
aI00
aI00
aI00
aa(lp47
I00
aI01
aI00
aI01
aI00
aI00
aI00
aI01
aI00
aI01
aI00
aI00
aI00
aI00
aI00
aI00
aI00
aI00
aa(lp48
I00
aI00
aI00
aI00
aI00
aI00
aI00
aI00
aI00
aI00
aI00
aI00
aI00
aI00
aI00
aI00
aI00
aI00
aasS'height'
p49
I18
sbsS'agentPositions'
p50
(lp51
(I00
(I1
I2
tp52
tp53
a(I00
(I32
I15
tp54
tp55
a(I00
(I1
I1
tp56
tp57
a(I00
(I32
I16
tp58
tp59
asg49
I18
sg12
I34
sS'walls'
p60
(igame
Grid
p61
(dp62
g11
I30
sg12
I34
sg13
(lp63
(lp64
I01
aI01
aI01
aI01
aI01
aI01
aI01
aI01
aI01
aI01
aI01
aI01
aI01
aI01
aI01
aI01
aI01
aI01
aa(lp65
I01
aI00
aI00
aI00
aI01
aI00
aI00
aI01
aI00
aI00
aI00
aI00
aI00
aI01
aI00
aI01
aI00
aI01
aa(lp66
I01
aI00
aI00
aI00
aI00
aI00
aI00
aI01
aI01
aI00
aI01
aI01
aI00
aI01
aI00
aI00
aI00
aI01
aa(lp67
I01
aI01
aI01
aI00
aI01
aI01
aI01
aI01
aI00
aI00
aI01
aI00
aI00
aI01
aI00
aI01
aI00
aI01
aa(lp68
I01
aI00
aI00
aI00
aI00
aI01
aI00
aI01
aI00
aI00
aI01
aI00
aI00
aI01
aI00
aI01
aI00
aI01
aa(lp69
I01
aI00
aI01
aI01
aI00
aI00
aI00
aI01
aI01
aI01
aI01
aI01
aI00
aI01
aI01
aI01
aI00
aI01
aa(lp70
I01
aI00
aI00
aI01
aI00
aI01
aI00
aI00
aI00
aI00
aI00
aI00
aI00
aI01
aI00
aI01
aI00
aI01
aa(lp71
I01
aI00
aI01
aI01
aI00
aI01
aI00
aI01
aI00
aI01
aI01
aI00
aI01
aI01
aI00
aI00
aI00
aI01
aa(lp72
I01
aI00
aI00
aI01
aI00
aI01
aI00
aI01
aI00
aI00
aI01
aI00
aI00
aI00
aI00
aI00
aI00
aI01
aa(lp73
I01
aI00
aI00
aI00
aI00
aI01
aI00
aI00
aI00
aI01
aI01
aI01
aI01
aI01
aI01
aI00
aI01
aI01
aa(lp74
I01
aI00
aI00
aI01
aI00
aI01
aI00
aI01
aI00
aI00
aI00
aI00
aI01
aI00
aI00
aI00
aI00
aI01
aa(lp75
I01
aI00
aI00
aI01
aI00
aI00
aI00
aI01
aI00
aI00
aI00
aI00
aI01
aI00
aI01
aI01
aI01
aI01
aa(lp76
I01
aI00
aI00
aI01
aI01
aI00
aI00
aI00
aI00
aI00
aI01
aI00
aI00
aI00
aI00
aI00
aI00
aI01
aa(lp77
I01
aI00
aI00
aI01
aI00
aI00
aI00
aI01
aI00
aI00
aI00
aI00
aI01
aI00
aI01
aI01
aI00
aI01
aa(lp78
I01
aI00
aI00
aI00
aI00
aI00
aI00
aI01
aI00
aI00
aI00
aI00
aI01
aI00
aI00
aI01
aI00
aI01
aa(lp79
I01
aI00
aI00
aI00
aI00
aI00
aI01
aI01
aI01
aI00
aI01
aI01
aI01
aI01
aI01
aI01
aI01
aI01
aa(lp80
I01
aI00
aI00
aI00
aI00
aI00
aI00
aI00
aI00
aI00
aI00
aI00
aI00
aI00
aI00
aI00
aI00
aI01
aa(lp81
I01
aI00
aI00
aI00
aI00
aI00
aI00
aI00
aI00
aI00
aI00
aI00
aI00
aI00
aI00
aI00
aI00
aI01
aa(lp82
I01
aI01
aI01
aI01
aI01
aI01
aI01
aI01
aI00
aI01
aI01
aI01
aI00
aI00
aI00
aI00
aI00
aI01
aa(lp83
I01
aI00
aI01
aI00
aI00
aI01
aI00
aI00
aI00
aI00
aI01
aI00
aI00
aI00
aI00
aI00
aI00
aI01
aa(lp84
I01
aI00
aI01
aI01
aI00
aI01
aI00
aI00
aI00
aI00
aI01
aI00
aI00
aI00
aI01
aI00
aI00
aI01
aa(lp85
I01
aI00
aI00
aI00
aI00
aI00
aI00
aI01
aI00
aI00
aI00
aI00
aI00
aI01
aI01
aI00
aI00
aI01
aa(lp86
I01
aI01
aI01
aI01
aI00
aI01
aI00
aI00
aI00
aI00
aI01
aI00
aI00
aI00
aI01
aI00
aI00
aI01
aa(lp87
I01
aI00
aI00
aI00
aI00
aI01
aI00
aI00
aI00
aI00
aI01
aI00
aI01
aI00
aI01
aI00
aI00
aI01
aa(lp88
I01
aI01
aI00
aI01
aI01
aI01
aI01
aI01
aI01
aI00
aI00
aI00
aI01
aI00
aI00
aI00
aI00
aI01
aa(lp89
I01
aI00
aI00
aI00
aI00
aI00
aI00
aI01
aI00
aI00
aI01
aI00
aI01
aI00
aI01
aI00
aI00
aI01
aa(lp90
I01
aI00
aI00
aI00
aI01
aI01
aI00
aI01
aI01
aI00
aI01
aI00
aI01
aI00
aI01
aI01
aI00
aI01
aa(lp91
I01
aI00
aI01
aI00
aI01
aI00
aI00
aI00
aI00
aI00
aI00
aI00
aI01
aI00
aI01
aI00
aI00
aI01
aa(lp92
I01
aI00
aI01
aI01
aI01
aI00
aI01
aI01
aI01
aI01
aI01
aI00
aI00
aI00
aI01
aI01
aI00
aI01
aa(lp93
I01
aI00
aI01
aI00
aI01
aI00
aI00
aI01
aI00
aI00
aI01
aI00
aI01
aI00
aI00
aI00
aI00
aI01
aa(lp94
I01
aI00
aI01
aI00
aI01
aI00
aI00
aI01
aI00
aI00
aI01
aI01
aI01
aI01
aI00
aI01
aI01
aI01
aa(lp95
I01
aI00
aI00
aI00
aI01
aI00
aI01
aI01
aI00
aI01
aI01
aI00
aI00
aI00
aI00
aI00
aI00
aI01
aa(lp96
I01
aI00
aI01
aI00
aI01
aI00
aI00
aI00
aI00
aI00
aI01
aI00
aI00
aI01
aI00
aI00
aI00
aI01
aa(lp97
I01
aI01
aI01
aI01
aI01
aI01
aI01
aI01
aI01
aI01
aI01
aI01
aI01
aI01
aI01
aI01
aI01
aI01
aasg49
I18
sbsS'totalFood'
p98
I60
sS'layoutText'
p99
(lp100
S'%%%%%%%%%%%%%%%%%%%%%%%%%%%%%%%%%%'
p101
aS'%.   .   %.% ..%..            % 4%'
p102
aS'%%.%%%%    % %%% .  ..   .%.% % 2%'
p103
aS'%. ..%.  % % %.% .  %%%% %%%%    %'
p104
aS'%%%%%%%% %    .%     %        % %%'
p105
aS'%     .% %%%.%%%    .  %%%%% %%  %'
p106
aS'% % .%   %     %  %          .%  %'
p107
aS'%.%%%% %%%  %  %  %%% %% %% %%%%%%'
p108
aS'%    % %.%       .%         % .%.%'
p109
aS'%.%. %         %.       %.% %    %'
p110
aS'%%%%%% %% %% %%%  %  %  %%% %%%%.%'
p111
aS'%  %.          %  %     %   %. % %'
p112
aS'%  %% %%%%%  .    %%%.%%% %.     %'
p113
aS'%% %        %     %.    % %%%%%%%%'
p114
aS'%    %%%% %%%%  . %.% % %  .%.. .%'
p115
aS'%1 % %.%.   ..  . %%% %    %%%%.%%'
p116
aS'%3 %            ..%.. %.%   .   .%'
p117
aS'%%%%%%%%%%%%%%%%%%%%%%%%%%%%%%%%%%'
p118
asbsS'blueTeamName'
p119
S'Blue'
p120
sS'actions'
p121
(lp122
(I0
S'East'
p123
tp124
a(I1
S'North'
p125
tp126
a(I2
g123
tp127
a(I3
S'Stop'
p128
tp129
a(I0
g125
tp130
a(I1
g128
tp131
a(I2
g125
tp132
a(I3
S'West'
p133
tp134
a(I0
g123
tp135
a(I1
g128
tp136
a(I2
g125
tp137
a(I3
g123
tp138
a(I0
g123
tp139
a(I1
g128
tp140
a(I2
g123
tp141
a(I3
g133
tp142
a(I0
S'South'
p143
tp144
a(I1
g128
tp145
a(I2
g123
tp146
a(I3
g123
tp147
a(I0
g143
tp148
a(I1
g143
tp149
a(I2
g143
tp150
a(I3
g128
tp151
a(I0
g123
tp152
a(I1
g133
tp153
a(I2
g143
tp154
a(I3
g133
tp155
a(I0
g123
tp156
a(I1
g123
tp157
a(I2
g123
tp158
a(I3
g123
tp159
a(I0
g123
tp160
a(I1
g125
tp161
a(I2
g123
tp162
a(I3
g128
tp163
a(I0
g123
tp164
a(I1
g128
tp165
a(I2
g123
tp166
a(I3
g133
tp167
a(I0
g123
tp168
a(I1
g133
tp169
a(I2
g123
tp170
a(I3
g123
tp171
a(I0
g123
tp172
a(I1
g143
tp173
a(I2
g123
tp174
a(I3
g128
tp175
a(I0
g123
tp176
a(I1
g125
tp177
a(I2
g123
tp178
a(I3
g128
tp179
a(I0
g123
tp180
a(I1
g123
tp181
a(I2
g123
tp182
a(I3
g143
tp183
a(I0
g123
tp184
a(I1
g133
tp185
a(I2
g123
tp186
a(I3
g128
tp187
a(I0
g123
tp188
a(I1
g128
tp189
a(I2
g123
tp190
a(I3
g128
tp191
a(I0
g123
tp192
a(I1
g128
tp193
a(I2
g123
tp194
a(I3
g133
tp195
a(I0
g133
tp196
a(I1
g123
tp197
a(I2
g123
tp198
a(I3
g125
tp199
a(I0
g125
tp200
a(I1
g133
tp201
a(I2
g123
tp202
a(I3
g123
tp203
a(I0
g125
tp204
a(I1
g128
tp205
a(I2
g123
tp206
a(I3
g133
tp207
a(I0
g125
tp208
a(I1
g123
tp209
a(I2
g125
tp210
a(I3
g143
tp211
a(I0
g133
tp212
a(I1
g143
tp213
a(I2
g125
tp214
a(I3
g125
tp215
a(I0
g123
tp216
a(I1
g125
tp217
a(I2
g125
tp218
a(I3
g128
tp219
a(I0
g125
tp220
a(I1
g133
tp221
a(I2
g125
tp222
a(I3
g143
tp223
a(I0
g125
tp224
a(I1
g143
tp225
a(I2
g125
tp226
a(I3
g125
tp227
a(I0
g133
tp228
a(I1
g123
tp229
a(I2
g125
tp230
a(I3
g128
tp231
a(I0
g133
tp232
a(I1
g125
tp233
a(I2
g125
tp234
a(I3
g128
tp235
a(I0
g125
tp236
a(I1
g133
tp237
a(I2
g125
tp238
a(I3
g128
tp239
a(I0
g125
tp240
a(I1
g143
tp241
a(I2
g125
tp242
a(I3
g123
tp243
a(I0
g123
tp244
a(I1
g123
tp245
a(I2
g125
tp246
a(I3
g133
tp247
a(I0
g123
tp248
a(I1
g133
tp249
a(I2
g125
tp250
a(I3
g143
tp251
a(I0
g125
tp252
a(I1
g123
tp253
a(I2
g125
tp254
a(I3
g128
tp255
a(I0
g123
tp256
a(I1
g133
tp257
a(I2
g125
tp258
a(I3
g123
tp259
a(I0
g133
tp260
a(I1
g128
tp261
a(I2
g125
tp262
a(I3
g133
tp263
a(I0
g125
tp264
a(I1
g125
tp265
a(I2
g125
tp266
a(I3
g143
tp267
a(I0
g125
tp268
a(I1
g143
tp269
a(I2
g123
tp270
a(I3
g143
tp271
a(I0
g133
tp272
a(I1
g125
tp273
a(I2
g123
tp274
a(I3
g125
tp275
a(I0
g133
tp276
a(I1
g143
tp277
a(I2
g123
tp278
a(I3
g123
tp279
a(I0
g125
tp280
a(I1
g143
tp281
a(I2
g143
tp282
a(I3
g128
tp283
a(I0
g125
tp284
a(I1
g133
tp285
a(I2
g123
tp286
a(I3
g133
tp287
a(I0
g123
tp288
a(I1
g123
tp289
a(I2
g123
tp290
a(I3
g123
tp291
a(I0
g123
tp292
a(I1
g125
tp293
a(I2
g123
tp294
a(I3
g133
tp295
a(I0
g133
tp296
a(I1
g143
tp297
a(I2
g123
tp298
a(I3
g125
tp299
a(I0
g133
tp300
a(I1
g123
tp301
a(I2
g123
tp302
a(I3
g128
tp303
a(I0
g125
tp304
a(I1
g133
tp305
a(I2
g125
tp306
a(I3
g128
tp307
a(I0
g125
tp308
a(I1
g128
tp309
a(I2
g123
tp310
a(I3
g123
tp311
a(I0
g125
tp312
a(I1
g143
tp313
a(I2
g123
tp314
a(I3
g133
tp315
a(I0
g123
tp316
a(I1
g128
tp317
a(I2
g143
tp318
a(I3
g128
tp319
a(I0
g133
tp320
a(I1
g143
tp321
a(I2
g125
tp322
a(I3
g123
tp323
a(I0
g143
tp324
a(I1
g125
tp325
a(I2
g133
tp326
a(I3
g125
tp327
a(I0
g143
tp328
a(I1
g125
tp329
a(I2
g133
tp330
a(I3
g128
tp331
a(I0
g143
tp332
a(I1
g125
tp333
a(I2
g133
tp334
a(I3
g133
tp335
a(I0
g143
tp336
a(I1
g143
tp337
a(I2
g133
tp338
a(I3
g143
tp339
a(I0
g143
tp340
a(I1
g123
tp341
a(I2
g133
tp342
a(I3
g128
tp343
a(I0
g133
tp344
a(I1
g125
tp345
a(I2
g133
tp346
a(I3
g125
tp347
a(I0
g143
tp348
a(I1
g128
tp349
a(I2
g133
tp350
a(I3
g123
tp351
a(I0
g143
tp352
a(I1
g143
tp353
a(I2
g133
tp354
a(I3
g128
tp355
a(I0
g123
tp356
a(I1
g128
tp357
a(I2
g133
tp358
a(I3
g143
tp359
a(I0
g143
tp360
a(I1
g133
tp361
a(I2
g133
tp362
a(I3
g133
tp363
a(I0
g143
tp364
a(I1
g128
tp365
a(I2
g133
tp366
a(I3
g128
tp367
a(I0
g143
tp368
a(I1
g123
tp369
a(I2
g143
tp370
a(I3
g128
tp371
a(I0
g123
tp372
a(I1
g133
tp373
a(I2
g123
tp374
a(I3
g123
tp375
a(I0
g123
tp376
a(I1
g133
tp377
a(I2
g123
tp378
a(I3
g128
tp379
a(I0
g143
tp380
a(I1
g128
tp381
a(I2
g123
tp382
a(I3
g143
tp383
a(I0
g123
tp384
a(I1
g128
tp385
a(I2
g143
tp386
a(I3
g125
tp387
a(I0
g143
tp388
a(I1
g123
tp389
a(I2
g143
tp390
a(I3
g133
tp391
a(I0
g143
tp392
a(I1
g125
tp393
a(I2
g123
tp394
a(I3
g128
tp395
a(I0
g143
tp396
a(I1
g125
tp397
a(I2
g143
tp398
a(I3
g143
tp399
a(I0
g143
tp400
a(I1
g128
tp401
a(I2
g123
tp402
a(I3
g125
tp403
a(I0
g133
tp404
a(I1
g143
tp405
a(I2
g123
tp406
a(I3
g123
tp407
a(I0
g125
tp408
a(I1
g143
tp409
a(I2
g143
tp410
a(I3
g133
tp411
a(I0
g125
tp412
a(I1
g143
tp413
a(I2
g123
tp414
a(I3
g125
tp415
a(I0
g125
tp416
a(I1
g125
tp417
a(I2
g123
tp418
a(I3
g123
tp419
a(I0
g133
tp420
a(I1
g143
tp421
a(I2
g143
tp422
a(I3
g128
tp423
a(I0
g123
tp424
a(I1
g143
tp425
a(I2
g143
tp426
a(I3
g133
tp427
a(I0
g125
tp428
a(I1
g143
tp429
a(I2
g123
tp430
a(I3
g143
tp431
a(I0
g125
tp432
a(I1
g128
tp433
a(I2
g143
tp434
a(I3
g125
tp435
a(I0
g133
tp436
a(I1
g128
tp437
a(I2
g125
tp438
a(I3
g123
tp439
a(I0
g133
tp440
a(I1
g123
tp441
a(I2
g123
tp442
a(I3
g128
tp443
a(I0
g125
tp444
a(I1
g133
tp445
a(I2
g123
tp446
a(I3
g133
tp447
a(I0
g125
tp448
a(I1
g123
tp449
a(I2
g143
tp450
a(I3
g128
tp451
a(I0
g123
tp452
a(I1
g128
tp453
a(I2
g143
tp454
a(I3
g143
tp455
a(I0
g123
tp456
a(I1
g133
tp457
a(I2
g143
tp458
a(I3
g128
tp459
a(I0
g125
tp460
a(I1
g125
tp461
a(I2
g143
tp462
a(I3
g123
tp463
a(I0
g123
tp464
a(I1
g143
tp465
a(I2
g123
tp466
a(I3
g143
tp467
a(I0
g133
tp468
a(I1
g123
tp469
a(I2
g123
tp470
a(I3
g125
tp471
a(I0
g125
tp472
a(I1
g125
tp473
a(I2
g125
tp474
a(I3
g125
tp475
a(I0
g125
tp476
a(I1
g128
tp477
a(I2
g123
tp478
a(I3
g133
tp479
a(I0
g133
tp480
a(I1
g128
tp481
a(I2
g143
tp482
a(I3
g123
tp483
a(I0
g133
tp484
a(I1
g143
tp485
a(I2
g123
tp486
a(I3
g133
tp487
a(I0
g125
tp488
a(I1
g125
tp489
a(I2
g123
tp490
a(I3
g123
tp491
a(I0
g125
tp492
a(I1
g128
tp493
a(I2
g125
tp494
a(I3
g128
tp495
a(I0
g123
tp496
a(I1
g133
tp497
a(I2
g125
tp498
a(I3
g133
tp499
a(I0
g123
tp500
a(I1
g128
tp501
a(I2
g125
tp502
a(I3
g123
tp503
a(I0
g133
tp504
a(I1
g125
tp505
a(I2
g125
tp506
a(I3
g128
tp507
a(I0
g133
tp508
a(I1
g143
tp509
a(I2
g143
tp510
a(I3
g143
tp511
a(I0
g125
tp512
a(I1
g143
tp513
a(I2
g133
tp514
a(I3
g143
tp515
a(I0
g125
tp516
a(I1
g125
tp517
a(I2
g133
tp518
a(I3
g133
tp519
a(I0
g125
tp520
a(I1
g143
tp521
a(I2
g125
tp522
a(I3
g133
tp523
a(I0
g123
tp524
a(I1
g128
tp525
a(I2
g143
tp526
a(I3
g123
tp527
a(I0
g133
tp528
a(I1
g125
tp529
a(I2
g123
tp530
a(I3
g133
tp531
a(I0
g143
tp532
a(I1
g143
tp533
a(I2
g123
tp534
a(I3
g128
tp535
a(I0
g143
tp536
a(I1
g123
tp537
a(I2
g143
tp538
a(I3
g128
tp539
a(I0
g143
tp540
a(I1
g125
tp541
a(I2
g143
tp542
a(I3
g128
tp543
a(I0
g143
tp544
a(I1
g133
tp545
a(I2
g143
tp546
a(I3
g123
tp547
a(I0
g143
tp548
a(I1
g128
tp549
a(I2
g133
tp550
a(I3
g128
tp551
a(I0
g133
tp552
a(I1
g123
tp553
a(I2
g133
tp554
a(I3
g143
tp555
a(I0
g143
tp556
a(I1
g143
tp557
a(I2
g133
tp558
a(I3
g125
tp559
a(I0
g143
tp560
a(I1
g128
tp561
a(I2
g133
tp562
a(I3
g128
tp563
a(I0
g123
tp564
a(I1
g125
tp565
a(I2
g133
tp566
a(I3
g123
tp567
a(I0
g143
tp568
a(I1
g143
tp569
a(I2
g125
tp570
a(I3
g133
tp571
a(I0
g143
tp572
a(I1
g125
tp573
a(I2
g125
tp574
a(I3
g128
tp575
a(I0
g143
tp576
a(I1
g133
tp577
a(I2
g125
tp578
a(I3
g123
tp579
a(I0
g123
tp580
a(I1
g128
tp581
a(I2
g125
tp582
a(I3
g128
tp583
a(I0
g123
tp584
a(I1
g128
tp585
a(I2
g133
tp586
a(I3
g133
tp587
a(I0
g143
tp588
a(I1
g143
tp589
a(I2
g133
tp590
a(I3
g143
tp591
a(I0
g123
tp592
a(I1
g123
tp593
a(I2
g133
tp594
a(I3
g128
tp595
a(I0
g143
tp596
a(I1
g133
tp597
a(I2
g133
tp598
a(I3
g128
tp599
a(I0
g143
tp600
a(I1
g125
tp601
a(I2
g133
tp602
a(I3
g143
tp603
a(I0
g143
tp604
a(I1
g125
tp605
a(I2
g133
tp606
a(I3
g125
tp607
a(I0
g143
tp608
a(I1
g125
tp609
a(I2
g133
tp610
a(I3
g125
tp611
a(I0
g133
tp612
a(I1
g143
tp613
a(I2
g133
tp614
a(I3
g143
tp615
a(I0
g125
tp616
a(I1
g143
tp617
a(I2
g143
tp618
a(I3
g143
tp619
a(I0
g125
tp620
a(I1
g125
tp621
a(I2
g133
tp622
a(I3
g125
tp623
a(I0
g125
tp624
a(I1
g143
tp625
a(I2
g133
tp626
a(I3
g128
tp627
a(I0
g133
tp628
a(I1
g125
tp629
a(I2
g133
tp630
a(I3
g125
tp631
a(I0
g123
tp632
a(I1
g128
tp633
a(I2
g123
tp634
a(I3
g125
tp635
a(I0
g125
tp636
a(I1
g143
tp637
a(I2
g123
tp638
a(I3
g125
tp639
a(I0
g125
tp640
a(I1
g143
tp641
a(I2
g123
tp642
a(I3
g123
tp643
a(I0
g133
tp644
a(I1
g128
tp645
a(I2
g123
tp646
a(I3
g143
tp647
a(I0
g133
tp648
a(I1
g128
tp649
a(I2
g143
tp650
a(I3
g128
tp651
a(I0
g125
tp652
a(I1
g125
tp653
a(I2
g143
tp654
a(I3
g125
tp655
a(I0
g125
tp656
a(I1
g125
tp657
a(I2
g123
tp658
a(I3
g143
tp659
a(I0
g123
tp660
a(I1
g128
tp661
a(I2
g143
tp662
a(I3
g143
tp663
a(I0
g123
tp664
a(I1
g143
tp665
a(I2
g143
tp666
a(I3
g133
tp667
a(I0
g125
tp668
a(I1
g128
tp669
a(I2
g133
tp670
a(I3
g128
tp671
a(I0
g123
tp672
a(I1
g128
tp673
a(I2
g133
tp674
a(I3
g128
tp675
a(I0
g133
tp676
a(I1
g123
tp677
a(I2
g143
tp678
a(I3
g123
tp679
a(I0
g125
tp680
a(I1
g133
tp681
a(I2
g125
tp682
a(I3
g125
tp683
a(I0
g125
tp684
a(I1
g143
tp685
a(I2
g123
tp686
a(I3
g133
tp687
a(I0
g133
tp688
a(I1
g125
tp689
a(I2
g123
tp690
a(I3
g123
tp691
a(I0
g133
tp692
a(I1
g128
tp693
a(I2
g143
tp694
a(I3
g143
tp695
a(I0
g125
tp696
a(I1
g125
tp697
a(I2
g143
tp698
a(I3
g125
tp699
a(I0
g125
tp700
a(I1
g143
tp701
a(I2
g143
tp702
a(I3
g133
tp703
a(I0
g123
tp704
a(I1
g128
tp705
a(I2
g133
tp706
a(I3
g128
tp707
a(I0
g123
tp708
a(I1
g125
tp709
a(I2
g133
tp710
a(I3
g125
tp711
a(I0
g133
tp712
a(I1
g143
tp713
a(I2
g123
tp714
a(I3
g123
tp715
a(I0
g133
tp716
a(I1
g123
tp717
a(I2
g123
tp718
a(I3
g143
tp719
a(I0
g125
tp720
a(I1
g133
tp721
a(I2
g125
tp722
a(I3
g125
tp723
a(I0
g125
tp724
a(I1
g125
tp725
a(I2
g125
tp726
a(I3
g133
tp727
a(I0
g125
tp728
a(I1
g143
tp729
a(I2
g125
tp730
a(I3
g143
tp731
a(I0
g123
tp732
a(I1
g128
tp733
a(I2
g123
tp734
a(I3
g128
tp735
a(I0
g133
tp736
a(I1
g128
tp737
a(I2
g123
tp738
a(I3
g125
tp739
a(I0
g143
tp740
a(I1
g125
tp741
a(I2
g143
tp742
a(I3
g128
tp743
a(I0
g143
tp744
a(I1
g125
tp745
a(I2
g143
tp746
a(I3
g123
tp747
a(I0
g143
tp748
a(I1
g128
tp749
a(I2
g143
tp750
a(I3
g143
tp751
a(I0
g143
tp752
a(I1
g133
tp753
a(I2
g125
tp754
a(I3
g133
tp755
a(I0
g143
tp756
a(I1
g133
tp757
a(I2
g125
tp758
a(I3
g143
tp759
a(I0
g133
tp760
a(I1
g143
tp761
a(I2
g125
tp762
a(I3
g123
tp763
a(I0
g143
tp764
a(I1
g125
tp765
a(I2
g133
tp766
a(I3
g133
tp767
a(I0
g143
tp768
a(I1
g125
tp769
a(I2
g133
tp770
a(I3
g143
tp771
a(I0
g123
tp772
a(I1
g143
tp773
a(I2
g125
tp774
a(I3
g125
tp775
a(I0
g143
tp776
a(I1
g123
tp777
a(I2
g125
tp778
a(I3
g143
tp779
a(I0
g143
tp780
a(I1
g133
tp781
a(I2
g133
tp782
a(I3
g125
tp783
a(I0
g143
tp784
a(I1
g143
tp785
a(I2
g133
tp786
a(I3
g123
tp787
a(I0
g123
tp788
a(I1
g133
tp789
a(I2
g125
tp790
a(I3
g125
tp791
a(I0
g123
tp792
a(I1
g128
tp793
a(I2
g125
tp794
a(I3
g125
tp795
a(I0
g143
tp796
a(I1
g143
tp797
a(I2
g133
tp798
a(I3
g133
tp799
a(I0
g123
tp800
a(I1
g125
tp801
a(I2
g133
tp802
a(I3
g123
tp803
a(I0
g143
tp804
a(I1
g123
tp805
a(I2
g133
tp806
a(I3
g133
tp807
a(I0
g143
tp808
a(I1
g125
tp809
a(I2
g123
tp810
a(I3
g128
tp811
a(I0
g143
tp812
a(I1
g123
tp813
a(I2
g123
tp814
a(I3
g123
tp815
a(I0
g143
tp816
a(I1
g128
tp817
a(I2
g123
tp818
a(I3
g133
tp819
a(I0
g133
tp820
a(I1
g133
tp821
a(I2
g123
tp822
a(I3
g123
tp823
a(I0
g125
tp824
a(I1
g125
tp825
a(I2
g123
tp826
a(I3
g128
tp827
a(I0
g125
tp828
a(I1
g143
tp829
a(I2
g123
tp830
a(I3
g128
tp831
a(I0
g125
tp832
a(I1
g143
tp833
a(I2
g123
tp834
a(I3
g133
tp835
a(I0
g133
tp836
a(I1
g125
tp837
a(I2
g125
tp838
a(I3
g123
tp839
a(I0
g123
tp840
a(I1
g128
tp841
a(I2
g123
tp842
a(I3
g143
tp843
a(I0
g125
tp844
a(I1
g123
tp845
a(I2
g123
tp846
a(I3
g125
tp847
a(I0
g125
tp848
a(I1
g133
tp849
a(I2
g123
tp850
a(I3
g128
tp851
a(I0
g133
tp852
a(I1
g128
tp853
a(I2
g123
tp854
a(I3
g143
tp855
a(I0
g133
tp856
a(I1
g128
tp857
a(I2
g125
tp858
a(I3
g128
tp859
a(I0
g125
tp860
a(I1
g128
tp861
a(I2
g125
tp862
a(I3
g143
tp863
a(I0
g125
tp864
a(I1
g143
tp865
a(I2
g133
tp866
a(I3
g133
tp867
a(I0
g123
tp868
a(I1
g125
tp869
a(I2
g133
tp870
a(I3
g143
tp871
a(I0
g123
tp872
a(I1
g125
tp873
a(I2
g133
tp874
a(I3
g143
tp875
a(I0
g125
tp876
a(I1
g128
tp877
a(I2
g123
tp878
a(I3
g143
tp879
a(I0
g123
tp880
a(I1
g125
tp881
a(I2
g123
tp882
a(I3
g123
tp883
a(I0
g133
tp884
a(I1
g128
tp885
a(I2
g123
tp886
a(I3
g128
tp887
a(I0
g125
tp888
a(I1
g143
tp889
a(I2
g123
tp890
a(I3
g133
tp891
a(I0
g125
tp892
a(I1
g143
tp893
a(I2
g133
tp894
a(I3
g125
tp895
a(I0
g133
tp896
a(I1
g143
tp897
a(I2
g133
tp898
a(I3
g123
tp899
a(I0
g133
tp900
a(I1
g128
tp901
a(I2
g133
tp902
a(I3
g143
tp903
a(I0
g125
tp904
a(I1
g125
tp905
a(I2
g133
tp906
a(I3
g128
tp907
a(I0
g125
tp908
a(I1
g125
tp909
a(I2
g133
tp910
a(I3
g125
tp911
a(I0
g123
tp912
a(I1
g125
tp913
a(I2
g123
tp914
a(I3
g143
tp915
a(I0
g123
tp916
a(I1
g128
tp917
a(I2
g123
tp918
a(I3
g133
tp919
a(I0
g133
tp920
a(I1
g128
tp921
a(I2
g123
tp922
a(I3
g128
tp923
a(I0
g133
tp924
a(I1
g133
tp925
a(I2
g123
tp926
a(I3
g123
tp927
a(I0
g125
tp928
a(I1
g133
tp929
a(I2
g123
tp930
a(I3
g125
tp931
a(I0
g125
tp932
a(I1
g143
tp933
a(I2
g123
tp934
a(I3
g133
tp935
a(I0
g125
tp936
a(I1
g128
tp937
a(I2
g133
tp938
a(I3
g128
tp939
a(I0
g123
tp940
a(I1
g125
tp941
a(I2
g133
tp942
a(I3
g125
tp943
a(I0
g133
tp944
a(I1
g128
tp945
a(I2
g143
tp946
a(I3
g125
tp947
a(I0
g143
tp948
a(I1
g133
tp949
a(I2
g143
tp950
a(I3
g123
tp951
a(I0
g143
tp952
a(I1
g123
tp953
a(I2
g143
tp954
a(I3
g133
tp955
a(I0
g143
tp956
a(I1
g123
tp957
a(I2
g143
tp958
a(I3
g125
tp959
a(I0
g143
tp960
a(I1
g133
tp961
a(I2
g143
tp962
a(I3
g125
tp963
a(I0
g143
tp964
a(I1
g123
tp965
a(I2
g133
tp966
a(I3
g143
tp967
a(I0
g133
tp968
a(I1
g133
tp969
a(I2
g133
tp970
a(I3
g128
tp971
a(I0
g143
tp972
a(I1
g133
tp973
a(I2
g143
tp974
a(I3
g123
tp975
a(I0
g143
tp976
a(I1
g123
tp977
a(I2
g143
tp978
a(I3
g143
tp979
a(I0
g123
tp980
a(I1
g143
tp981
a(I2
g143
tp982
a(I3
g133
tp983
a(I0
g143
tp984
a(I1
g128
tp985
a(I2
g123
tp986
a(I3
g125
tp987
a(I0
g143
tp988
a(I1
g128
tp989
a(I2
g123
tp990
a(I3
g123
tp991
a(I0
g143
tp992
a(I1
g125
tp993
a(I2
g133
tp994
a(I3
g125
tp995
a(I0
g123
tp996
a(I1
g143
tp997
a(I2
g143
tp998
a(I3
g128
tp999
a(I0
g123
tp1000
a(I1
g128
tp1001
a(I2
g143
tp1002
a(I3
g143
tp1003
a(I0
g143
tp1004
a(I1
g125
tp1005
a(I2
g123
tp1006
a(I3
g125
tp1007
a(I0
g123
tp1008
a(I1
g123
tp1009
a(I2
g123
tp1010
a(I3
g133
tp1011
a(I0
g143
tp1012
a(I1
g133
tp1013
a(I2
g123
tp1014
a(I3
g143
tp1015
a(I0
g143
tp1016
a(I1
g128
tp1017
a(I2
g123
tp1018
a(I3
g143
tp1019
a(I0
g143
tp1020
a(I1
g133
tp1021
a(I2
g123
tp1022
a(I3
g133
tp1023
a(I0
g143
tp1024
a(I1
g128
tp1025
a(I2
g125
tp1026
a(I3
g123
tp1027
a(I0
g133
tp1028
a(I1
g133
tp1029
a(I2
g125
tp1030
a(I3
g125
tp1031
a(I0
g125
tp1032
a(I1
g128
tp1033
a(I2
g133
tp1034
a(I3
g143
tp1035
a(I0
g125
tp1036
a(I1
g128
tp1037
a(I2
g133
tp1038
a(I3
g125
tp1039
a(I0
g125
tp1040
a(I1
g143
tp1041
a(I2
g123
tp1042
a(I3
g123
tp1043
a(I0
g133
tp1044
a(I1
g133
tp1045
a(I2
g123
tp1046
a(I3
g125
tp1047
a(I0
g123
tp1048
a(I1
g143
tp1049
a(I2
g123
tp1050
a(I3
g143
tp1051
a(I0
g125
tp1052
a(I1
g128
tp1053
a(I2
g133
tp1054
a(I3
g143
tp1055
a(I0
g125
tp1056
a(I1
g125
tp1057
a(I2
g143
tp1058
a(I3
g133
tp1059
a(I0
g133
tp1060
a(I1
g133
tp1061
a(I2
g143
tp1062
a(I3
g143
tp1063
a(I0
g133
tp1064
a(I1
g125
tp1065
a(I2
g123
tp1066
a(I3
g143
tp1067
a(I0
g125
tp1068
a(I1
g143
tp1069
a(I2
g133
tp1070
a(I3
g125
tp1071
a(I0
g125
tp1072
a(I1
g133
tp1073
a(I2
g133
tp1074
a(I3
g143
tp1075
a(I0
g123
tp1076
a(I1
g128
tp1077
a(I2
g133
tp1078
a(I3
g125
tp1079
a(I0
g123
tp1080
a(I1
g128
tp1081
a(I2
g133
tp1082
a(I3
g143
tp1083
a(I0
g125
tp1084
a(I1
g125
tp1085
a(I2
g133
tp1086
a(I3
g125
tp1087
a(I0
g123
tp1088
a(I1
g123
tp1089
a(I2
g133
tp1090
a(I3
g143
tp1091
a(I0
g133
tp1092
a(I1
g123
tp1093
a(I2
g133
tp1094
a(I3
g128
tp1095
a(I0
g125
tp1096
a(I1
g123
tp1097
a(I2
g125
tp1098
a(I3
g143
tp1099
a(I0
g125
tp1100
a(I1
g133
tp1101
a(I2
g133
tp1102
a(I3
g125
tp1103
a(I0
g133
tp1104
a(I1
g143
tp1105
a(I2
g133
tp1106
a(I3
g123
tp1107
a(I0
g133
tp1108
a(I1
g143
tp1109
a(I2
g125
tp1110
a(I3
g143
tp1111
a(I0
g125
tp1112
a(I1
g125
tp1113
a(I2
g125
tp1114
a(I3
g125
tp1115
a(I0
g125
tp1116
a(I1
g133
tp1117
a(I2
g133
tp1118
a(I3
g143
tp1119
a(I0
g123
tp1120
a(I1
g133
tp1121
a(I2
g133
tp1122
a(I3
g133
tp1123
a(I0
g123
tp1124
a(I1
g128
tp1125
a(I2
g125
tp1126
a(I3
g125
tp1127
a(I0
g133
tp1128
a(I1
g123
tp1129
a(I2
g125
tp1130
a(I3
g128
tp1131
a(I0
g133
tp1132
a(I1
g125
tp1133
a(I2
g133
tp1134
a(I3
g128
tp1135
a(I0
g125
tp1136
a(I1
g143
tp1137
a(I2
g133
tp1138
a(I3
g123
tp1139
a(I0
g125
tp1140
a(I1
g128
tp1141
a(I2
g125
tp1142
a(I3
g128
tp1143
a(I0
g125
tp1144
a(I1
g125
tp1145
a(I2
g125
tp1146
a(I3
g128
tp1147
a(I0
g123
tp1148
a(I1
g133
tp1149
a(I2
g133
tp1150
a(I3
g143
tp1151
a(I0
g133
tp1152
a(I1
g128
tp1153
a(I2
g133
tp1154
a(I3
g133
tp1155
a(I0
g143
tp1156
a(I1
g133
tp1157
a(I2
g133
tp1158
asS'length'
p1159
I1200
sS'agents'
p1160
(lp1161
(igame
Agent
p1162
(dp1163
S'index'
p1164
I0
sba(igame
Agent
p1165
(dp1166
g1164
I0
sba(igame
Agent
p1167
(dp1168
g1164
I0
sba(igame
Agent
p1169
(dp1170
g1164
I0
sbasS'redTeamName'
p1171
S'Red'
p1172
s.