(dp1
S'layout'
p2
(ilayout
Layout
p3
(dp4
S'capsules'
p5
(lp6
(I11
I3
tp7
a(I19
I8
tp8
a(I14
I9
tp9
a(I22
I16
tp10
asS'numGhosts'
p11
I4
sS'food'
p12
(igame
Grid
p13
(dp14
S'CELLS_PER_INT'
p15
I30
sS'width'
p16
I34
sS'data'
p17
(lp18
(lp19
I00
aI00
aI00
aI00
aI00
aI00
aI00
aI00
aI00
aI00
aI00
aI00
aI00
aI00
aI00
aI00
aI00
aI00
aa(lp20
I00
aI00
aI00
aI00
aI00
aI00
aI00
aI01
aI00
aI00
aI00
aI00
aI00
aI00
aI01
aI00
aI01
aI00
aa(lp21
I00
aI00
aI00
aI00
aI00
aI00
aI00
aI00
aI00
aI00
aI00
aI00
aI00
aI00
aI00
aI00
aI00
aI00
aa(lp22
I00
aI00
aI00
aI00
aI00
aI00
aI00
aI00
aI01
aI01
aI00
aI00
aI00
aI00
aI00
aI00
aI01
aI00
aa(lp23
I00
aI00
aI00
aI00
aI00
aI00
aI00
aI00
aI00
aI00
aI00
aI00
aI00
aI00
aI00
aI00
aI00
aI00
aa(lp24
I00
aI00
aI00
aI00
aI00
aI00
aI01
aI00
aI00
aI00
aI00
aI00
aI01
aI00
aI00
aI01
aI00
aI00
aa(lp25
I00
aI00
aI00
aI01
aI00
aI00
aI00
aI00
aI00
aI00
aI00
aI00
aI01
aI00
aI00
aI00
aI00
aI00
aa(lp26
I00
aI00
aI00
aI00
aI00
aI00
aI01
aI00
aI00
aI00
aI00
aI00
aI00
aI00
aI00
aI00
aI01
aI00
aa(lp27
I00
aI00
aI00
aI00
aI00
aI00
aI00
aI00
aI01
aI00
aI01
aI00
aI01
aI00
aI00
aI00
aI01
aI00
aa(lp28
I00
aI00
aI00
aI00
aI00
aI00
aI00
aI00
aI00
aI01
aI00
aI00
aI01
aI00
aI00
aI00
aI01
aI00
aa(lp29
I00
aI00
aI00
aI00
aI00
aI00
aI00
aI00
aI00
aI00
aI00
aI00
aI00
aI00
aI00
aI00
aI00
aI00
aa(lp30
I00
aI00
aI00
aI00
aI00
aI01
aI01
aI00
aI00
aI00
aI00
aI01
aI01
aI00
aI01
aI00
aI01
aI00
aa(lp31
I00
aI00
aI00
aI00
aI00
aI00
aI00
aI00
aI00
aI00
aI00
aI00
aI00
aI00
aI00
aI00
aI00
aI00
aa(lp32
I00
aI00
aI00
aI00
aI00
aI00
aI00
aI00
aI00
aI00
aI00
aI00
aI00
aI00
aI00
aI00
aI01
aI00
aa(lp33
I00
aI00
aI00
aI00
aI00
aI00
aI00
aI00
aI00
aI00
aI00
aI00
aI00
aI00
aI00
aI00
aI01
aI00
aa(lp34
I00
aI00
aI00
aI00
aI00
aI00
aI00
aI00
aI00
aI00
aI00
aI00
aI00
aI00
aI00
aI00
aI00
aI00
aa(lp35
I00
aI01
aI00
aI00
aI00
aI00
aI00
aI00
aI01
aI00
aI00
aI00
aI00
aI00
aI00
aI00
aI00
aI00
aa(lp36
I00
aI00
aI00
aI00
aI00
aI00
aI00
aI00
aI00
aI01
aI00
aI00
aI00
aI00
aI00
aI00
aI01
aI00
aa(lp37
I00
aI00
aI00
aI00
aI00
aI00
aI00
aI00
aI00
aI00
aI00
aI00
aI00
aI00
aI00
aI00
aI00
aI00
aa(lp38
I00
aI01
aI00
aI00
aI00
aI00
aI00
aI00
aI00
aI00
aI00
aI00
aI00
aI00
aI00
aI00
aI00
aI00
aa(lp39
I00
aI01
aI00
aI00
aI00
aI00
aI00
aI00
aI00
aI00
aI00
aI00
aI00
aI00
aI00
aI00
aI00
aI00
aa(lp40
I00
aI00
aI00
aI00
aI00
aI00
aI00
aI00
aI00
aI00
aI00
aI00
aI00
aI00
aI00
aI00
aI00
aI00
aa(lp41
I00
aI01
aI00
aI01
aI00
aI01
aI01
aI00
aI00
aI00
aI00
aI01
aI01
aI00
aI00
aI00
aI00
aI00
aa(lp42
I00
aI00
aI00
aI00
aI00
aI00
aI00
aI00
aI00
aI00
aI00
aI00
aI00
aI00
aI00
aI00
aI00
aI00
aa(lp43
I00
aI01
aI00
aI00
aI00
aI01
aI00
aI00
aI01
aI00
aI00
aI00
aI00
aI00
aI00
aI00
aI00
aI00
aa(lp44
I00
aI01
aI00
aI00
aI00
aI01
aI00
aI01
aI00
aI01
aI00
aI00
aI00
aI00
aI00
aI00
aI00
aI00
aa(lp45
I00
aI01
aI00
aI00
aI00
aI00
aI00
aI00
aI00
aI00
aI00
aI01
aI00
aI00
aI00
aI00
aI00
aI00
aa(lp46
I00
aI00
aI00
aI00
aI00
aI01
aI00
aI00
aI00
aI00
aI00
aI00
aI00
aI00
aI01
aI00
aI00
aI00
aa(lp47
I00
aI00
aI01
aI00
aI00
aI01
aI00
aI00
aI00
aI00
aI00
aI01
aI00
aI00
aI00
aI00
aI00
aI00
aa(lp48
I00
aI00
aI00
aI00
aI00
aI00
aI00
aI00
aI00
aI00
aI00
aI00
aI00
aI00
aI00
aI00
aI00
aI00
aa(lp49
I00
aI01
aI00
aI00
aI00
aI00
aI00
aI00
aI01
aI01
aI00
aI00
aI00
aI00
aI00
aI00
aI00
aI00
aa(lp50
I00
aI00
aI00
aI00
aI00
aI00
aI00
aI00
aI00
aI00
aI00
aI00
aI00
aI00
aI00
aI00
aI00
aI00
aa(lp51
I00
aI01
aI00
aI01
aI00
aI00
aI00
aI00
aI00
aI00
aI01
aI00
aI00
aI00
aI00
aI00
aI00
aI00
aa(lp52
I00
aI00
aI00
aI00
aI00
aI00
aI00
aI00
aI00
aI00
aI00
aI00
aI00
aI00
aI00
aI00
aI00
aI00
aasS'height'
p53
I18
sbsS'agentPositions'
p54
(lp55
(I00
(I1
I2
tp56
tp57
a(I00
(I32
I15
tp58
tp59
a(I00
(I1
I1
tp60
tp61
a(I00
(I32
I16
tp62
tp63
asg53
I18
sg16
I34
sS'walls'
p64
(igame
Grid
p65
(dp66
g15
I30
sg16
I34
sg17
(lp67
(lp68
I01
aI01
aI01
aI01
aI01
aI01
aI01
aI01
aI01
aI01
aI01
aI01
aI01
aI01
aI01
aI01
aI01
aI01
aa(lp69
I01
aI00
aI00
aI00
aI00
aI00
aI00
aI00
aI00
aI00
aI00
aI00
aI00
aI00
aI00
aI00
aI00
aI01
aa(lp70
I01
aI00
aI00
aI00
aI01
aI01
aI01
aI01
aI01
aI01
aI01
aI01
aI01
aI01
aI01
aI01
aI00
aI01
aa(lp71
I01
aI00
aI01
aI00
aI01
aI00
aI00
aI01
aI00
aI00
aI00
aI00
aI00
aI00
aI00
aI01
aI00
aI01
aa(lp72
I01
aI00
aI01
aI00
aI01
aI00
aI00
aI01
aI01
aI01
aI00
aI01
aI01
aI01
aI00
aI01
aI00
aI01
aa(lp73
I01
aI00
aI01
aI00
aI01
aI00
aI00
aI01
aI00
aI00
aI00
aI01
aI00
aI01
aI00
aI00
aI00
aI01
aa(lp74
I01
aI00
aI01
aI00
aI01
aI00
aI00
aI00
aI00
aI00
aI01
aI01
aI00
aI01
aI00
aI01
aI01
aI01
aa(lp75
I01
aI00
aI01
aI00
aI01
aI00
aI00
aI01
aI00
aI00
aI00
aI00
aI00
aI01
aI00
aI01
aI00
aI01
aa(lp76
I01
aI00
aI01
aI00
aI01
aI00
aI00
aI01
aI00
aI01
aI00
aI01
aI00
aI01
aI00
aI01
aI00
aI01
aa(lp77
I01
aI00
aI00
aI00
aI01
aI00
aI00
aI01
aI00
aI00
aI00
aI01
aI00
aI01
aI00
aI01
aI00
aI01
aa(lp78
I01
aI00
aI01
aI00
aI01
aI01
aI01
aI01
aI00
aI01
aI01
aI01
aI01
aI01
aI00
aI00
aI00
aI01
aa(lp79
I01
aI00
aI01
aI00
aI01
aI00
aI00
aI00
aI00
aI00
aI00
aI00
aI00
aI01
aI00
aI01
aI00
aI01
aa(lp80
I01
aI00
aI01
aI00
aI01
aI01
aI01
aI01
aI01
aI01
aI00
aI01
aI01
aI01
aI01
aI01
aI01
aI01
aa(lp81
I01
aI00
aI00
aI00
aI00
aI00
aI01
aI00
aI00
aI00
aI00
aI00
aI00
aI01
aI00
aI00
aI00
aI01
aa(lp82
I01
aI00
aI00
aI00
aI01
aI00
aI00
aI00
aI01
aI00
aI00
aI01
aI00
aI00
aI00
aI01
aI00
aI01
aa(lp83
I01
aI01
aI00
aI00
aI01
aI00
aI01
aI00
aI01
aI01
aI00
aI01
aI01
aI01
aI00
aI01
aI01
aI01
aa(lp84
I01
aI00
aI00
aI00
aI00
aI00
aI00
aI00
aI00
aI00
aI00
aI00
aI00
aI00
aI00
aI00
aI00
aI01
aa(lp85
I01
aI00
aI00
aI00
aI00
aI00
aI00
aI00
aI00
aI00
aI00
aI00
aI00
aI00
aI00
aI00
aI00
aI01
aa(lp86
I01
aI01
aI01
aI00
aI01
aI01
aI01
aI00
aI01
aI01
aI00
aI01
aI00
aI01
aI00
aI00
aI01
aI01
aa(lp87
I01
aI00
aI01
aI00
aI00
aI00
aI01
aI00
aI00
aI01
aI00
aI00
aI00
aI01
aI00
aI00
aI00
aI01
aa(lp88
I01
aI00
aI00
aI00
aI01
aI00
aI00
aI00
aI00
aI00
aI00
aI01
aI00
aI00
aI00
aI00
aI00
aI01
aa(lp89
I01
aI01
aI01
aI01
aI01
aI01
aI01
aI00
aI01
aI01
aI01
aI01
aI01
aI01
aI00
aI01
aI00
aI01
aa(lp90
I01
aI00
aI01
aI00
aI01
aI00
aI00
aI00
aI00
aI00
aI00
aI00
aI00
aI01
aI00
aI01
aI00
aI01
aa(lp91
I01
aI00
aI00
aI00
aI01
aI01
aI01
aI01
aI01
aI00
aI01
aI01
aI01
aI01
aI00
aI01
aI00
aI01
aa(lp92
I01
aI00
aI01
aI00
aI01
aI00
aI01
aI00
aI00
aI00
aI01
aI00
aI00
aI01
aI00
aI00
aI00
aI01
aa(lp93
I01
aI00
aI01
aI00
aI01
aI00
aI01
aI00
aI01
aI00
aI01
aI00
aI00
aI01
aI00
aI01
aI00
aI01
aa(lp94
I01
aI00
aI01
aI00
aI01
aI00
aI00
aI00
aI00
aI00
aI01
aI00
aI00
aI01
aI00
aI01
aI00
aI01
aa(lp95
I01
aI01
aI01
aI00
aI01
aI00
aI01
aI01
aI00
aI00
aI00
aI00
aI00
aI01
aI00
aI01
aI00
aI01
aa(lp96
I01
aI00
aI00
aI00
aI01
aI00
aI01
aI00
aI00
aI00
aI01
aI00
aI00
aI01
aI00
aI01
aI00
aI01
aa(lp97
I01
aI00
aI01
aI00
aI01
aI01
aI01
aI00
aI01
aI01
aI01
aI00
aI00
aI01
aI00
aI01
aI00
aI01
aa(lp98
I01
aI00
aI01
aI00
aI00
aI00
aI00
aI00
aI00
aI00
aI01
aI00
aI00
aI01
aI00
aI01
aI00
aI01
aa(lp99
I01
aI00
aI01
aI01
aI01
aI01
aI01
aI01
aI01
aI01
aI01
aI01
aI01
aI01
aI00
aI00
aI00
aI01
aa(lp100
I01
aI00
aI00
aI00
aI00
aI00
aI00
aI00
aI00
aI00
aI00
aI00
aI00
aI00
aI00
aI00
aI00
aI01
aa(lp101
I01
aI01
aI01
aI01
aI01
aI01
aI01
aI01
aI01
aI01
aI01
aI01
aI01
aI01
aI01
aI01
aI01
aI01
aasg53
I18
sbsS'totalFood'
p102
I60
sS'layoutText'
p103
(lp104
S'%%%%%%%%%%%%%%%%%%%%%%%%%%%%%%%%%%'
p105
aS'%. .  %... .%..% .%   o         4%'
p106
aS'% %%%.%%%% %% %%     %%% %%%%%% 2%'
p107
aS'%.%        .%              .     %'
p108
aS'% % %%%%%%%%%% %  %% %%%%%%%%%%% %'
p109
aS'% % %.. ..%.%  %     %.%       % %'
p110
aS'% % %%% %%%.% %%  % %%.%  . .  % %'
p111
aS'% %   % . %          % %%%% %%%%.%'
p112
aS'% %.%   %.% % o% .%% %   .   %.% %'
p113
aS'% %.%   .   % %%. %o % %.%   %.% %'
p114
aS'%.%%%% %%%% %          % . %   % %'
p115
aS'% %  . .  %.%% %  %% %.%%% %%% % %'
p116
aS'% %       %.%     %  %.%.. ..% % %'
p117
aS'% %%%%%%%%%%% %%  % %%%%%%%%%% % %'
p118
aS'%     .    o         %.        %.%'
p119
aS'%1 %%%%%% %%%     %% %% %%%%.%%% %'
p120
aS'%3             %. %..%. ...%  . .%'
p121
aS'%%%%%%%%%%%%%%%%%%%%%%%%%%%%%%%%%%'
p122
asbsS'blueTeamName'
p123
S'Blue'
p124
sS'actions'
p125
(lp126
(I0
S'East'
p127
tp128
a(I1
S'West'
p129
tp130
a(I2
g127
tp131
a(I3
g129
tp132
a(I0
S'South'
p133
tp134
a(I1
g133
tp135
a(I2
g127
tp136
a(I3
g129
tp137
a(I0
g127
tp138
a(I1
g129
tp139
a(I2
g127
tp140
a(I3
g129
tp141
a(I0
g127
tp142
a(I1
g129
tp143
a(I2
g127
tp144
a(I3
g129
tp145
a(I0
g127
tp146
a(I1
g129
tp147
a(I2
g127
tp148
a(I3
g129
tp149
a(I0
g127
tp150
a(I1
g129
tp151
a(I2
g127
tp152
a(I3
g129
tp153
a(I0
g127
tp154
a(I1
g129
tp155
a(I2
g127
tp156
a(I3
g129
tp157
a(I0
g127
tp158
a(I1
g129
tp159
a(I2
g127
tp160
a(I3
g129
tp161
a(I0
g127
tp162
a(I1
g129
tp163
a(I2
g127
tp164
a(I3
g129
tp165
a(I0
g127
tp166
a(I1
g129
tp167
a(I2
g127
tp168
a(I3
g129
tp169
a(I0
g127
tp170
a(I1
g129
tp171
a(I2
g127
tp172
a(I3
g129
tp173
a(I0
g127
tp174
a(I1
g129
tp175
a(I2
g127
tp176
a(I3
g129
tp177
a(I0
g127
tp178
a(I1
g129
tp179
a(I2
g127
tp180
a(I3
g133
tp181
a(I0
g127
tp182
a(I1
g129
tp183
a(I2
S'North'
p184
tp185
a(I3
g133
tp186
a(I0
g184
tp187
a(I1
g129
tp188
a(I2
g127
tp189
a(I3
g133
tp190
a(I0
g127
tp191
a(I1
g129
tp192
a(I2
g127
tp193
a(I3
g133
tp194
a(I0
g129
tp195
a(I1
g129
tp196
a(I2
g127
tp197
a(I3
g129
tp198
a(I0
g129
tp199
a(I1
g129
tp200
a(I2
g184
tp201
a(I3
g133
tp202
a(I0
g184
tp203
a(I1
g129
tp204
a(I2
g127
tp205
a(I3
g133
tp206
a(I0
g184
tp207
a(I1
g129
tp208
a(I2
g127
tp209
a(I3
g127
tp210
a(I0
g184
tp211
a(I1
g184
tp212
a(I2
g127
tp213
a(I3
g133
tp214
a(I0
g127
tp215
a(I1
g184
tp216
a(I2
g133
tp217
a(I3
g133
tp218
a(I0
g184
tp219
a(I1
g133
tp220
a(I2
g133
tp221
a(I3
g133
tp222
a(I0
g184
tp223
a(I1
g133
tp224
a(I2
g129
tp225
a(I3
g127
tp226
a(I0
g129
tp227
a(I1
g127
tp228
a(I2
g127
tp229
a(I3
g127
tp230
a(I0
g184
tp231
a(I1
g127
tp232
a(I2
g184
tp233
a(I3
g184
tp234
a(I0
g184
tp235
a(I1
g127
tp236
a(I2
g184
tp237
a(I3
g184
tp238
a(I0
g127
tp239
a(I1
g127
tp240
a(I2
g129
tp241
a(I3
S'Stop'
p242
tp243
a(I0
g129
tp244
a(I1
g133
tp245
a(I2
g129
tp246
a(I3
g133
tp247
a(I0
g184
tp248
a(I1
g133
tp249
a(I2
g129
tp250
a(I3
g133
tp251
a(I0
g184
tp252
a(I1
g242
tp253
a(I2
g184
tp254
a(I3
g242
tp255
a(I0
g184
tp256
a(I1
g242
tp257
a(I2
g184
tp258
a(I3
g242
tp259
a(I0
g127
tp260
a(I1
g242
tp261
a(I2
g184
tp262
a(I3
g242
tp263
a(I0
g184
tp264
a(I1
g242
tp265
a(I2
g184
tp266
a(I3
g242
tp267
a(I0
g184
tp268
a(I1
g242
tp269
a(I2
g184
tp270
a(I3
g242
tp271
a(I0
g129
tp272
a(I1
g133
tp273
a(I2
g129
tp274
a(I3
g242
tp275
a(I0
g127
tp276
a(I1
g242
tp277
a(I2
g242
tp278
a(I3
g242
tp279
a(I0
g127
tp280
a(I1
g242
tp281
a(I2
g242
tp282
a(I3
g242
tp283
a(I0
g129
tp284
a(I1
g242
tp285
a(I2
g242
tp286
a(I3
g242
tp287
a(I0
g129
tp288
a(I1
g242
tp289
a(I2
g242
tp290
a(I3
g242
tp291
a(I0
g184
tp292
a(I1
g242
tp293
a(I2
g242
tp294
a(I3
g242
tp295
a(I0
g184
tp296
a(I1
g242
tp297
a(I2
g242
tp298
a(I3
g242
tp299
a(I0
g133
tp300
a(I1
g242
tp301
a(I2
g242
tp302
a(I3
g242
tp303
a(I0
g133
tp304
a(I1
g242
tp305
a(I2
g242
tp306
a(I3
g242
tp307
a(I0
g127
tp308
a(I1
g242
tp309
a(I2
g242
tp310
a(I3
g242
tp311
a(I0
g127
tp312
a(I1
g242
tp313
a(I2
g242
tp314
a(I3
g242
tp315
a(I0
g127
tp316
a(I1
g242
tp317
a(I2
g242
tp318
a(I3
g242
tp319
a(I0
g133
tp320
a(I1
g242
tp321
a(I2
g242
tp322
a(I3
g242
tp323
a(I0
g133
tp324
a(I1
g242
tp325
a(I2
g242
tp326
a(I3
g242
tp327
a(I0
g242
tp328
a(I1
g242
tp329
a(I2
g242
tp330
a(I3
g242
tp331
a(I0
g242
tp332
a(I1
g242
tp333
a(I2
g242
tp334
a(I3
g242
tp335
a(I0
g242
tp336
a(I1
g242
tp337
a(I2
g242
tp338
a(I3
g242
tp339
a(I0
g242
tp340
a(I1
g242
tp341
a(I2
g242
tp342
a(I3
g242
tp343
a(I0
g242
tp344
a(I1
g242
tp345
a(I2
g242
tp346
a(I3
g242
tp347
a(I0
g242
tp348
a(I1
g242
tp349
a(I2
g242
tp350
a(I3
g242
tp351
a(I0
g242
tp352
a(I1
g242
tp353
a(I2
g242
tp354
a(I3
g242
tp355
a(I0
g242
tp356
a(I1
g242
tp357
a(I2
g242
tp358
a(I3
g242
tp359
a(I0
g242
tp360
a(I1
g242
tp361
a(I2
g242
tp362
a(I3
g242
tp363
a(I0
g242
tp364
a(I1
g242
tp365
a(I2
g242
tp366
a(I3
g242
tp367
a(I0
g242
tp368
a(I1
g242
tp369
a(I2
g242
tp370
a(I3
g242
tp371
a(I0
g242
tp372
a(I1
g242
tp373
a(I2
g242
tp374
a(I3
g242
tp375
a(I0
g242
tp376
a(I1
g242
tp377
a(I2
g242
tp378
a(I3
g242
tp379
a(I0
g242
tp380
a(I1
g242
tp381
a(I2
g242
tp382
a(I3
g242
tp383
a(I0
g242
tp384
a(I1
g242
tp385
a(I2
g242
tp386
a(I3
g242
tp387
a(I0
g242
tp388
a(I1
g242
tp389
a(I2
g242
tp390
a(I3
g242
tp391
a(I0
g242
tp392
a(I1
g242
tp393
a(I2
g242
tp394
a(I3
g242
tp395
a(I0
g242
tp396
a(I1
g242
tp397
a(I2
g242
tp398
a(I3
g242
tp399
a(I0
g242
tp400
a(I1
g242
tp401
a(I2
g242
tp402
a(I3
g242
tp403
a(I0
g242
tp404
a(I1
g242
tp405
a(I2
g242
tp406
a(I3
g242
tp407
a(I0
g242
tp408
a(I1
g242
tp409
a(I2
g242
tp410
a(I3
g242
tp411
a(I0
g242
tp412
a(I1
g242
tp413
a(I2
g242
tp414
a(I3
g242
tp415
a(I0
g242
tp416
a(I1
g242
tp417
a(I2
g242
tp418
a(I3
g242
tp419
a(I0
g242
tp420
a(I1
g242
tp421
a(I2
g242
tp422
a(I3
g242
tp423
a(I0
g242
tp424
a(I1
g242
tp425
a(I2
g242
tp426
a(I3
g242
tp427
a(I0
g242
tp428
a(I1
g242
tp429
a(I2
g242
tp430
a(I3
g242
tp431
a(I0
g242
tp432
a(I1
g242
tp433
a(I2
g242
tp434
a(I3
g242
tp435
a(I0
g242
tp436
a(I1
g242
tp437
a(I2
g242
tp438
a(I3
g242
tp439
a(I0
g242
tp440
a(I1
g242
tp441
a(I2
g242
tp442
a(I3
g242
tp443
a(I0
g242
tp444
a(I1
g242
tp445
a(I2
g242
tp446
a(I3
g242
tp447
a(I0
g242
tp448
a(I1
g242
tp449
a(I2
g242
tp450
a(I3
g242
tp451
a(I0
g242
tp452
a(I1
g242
tp453
a(I2
g242
tp454
a(I3
g242
tp455
a(I0
g242
tp456
a(I1
g242
tp457
a(I2
g242
tp458
a(I3
g242
tp459
a(I0
g242
tp460
a(I1
g242
tp461
a(I2
g242
tp462
a(I3
g242
tp463
a(I0
g242
tp464
a(I1
g242
tp465
a(I2
g242
tp466
a(I3
g242
tp467
a(I0
g242
tp468
a(I1
g242
tp469
a(I2
g242
tp470
a(I3
g242
tp471
a(I0
g242
tp472
a(I1
g242
tp473
a(I2
g242
tp474
a(I3
g242
tp475
a(I0
g242
tp476
a(I1
g242
tp477
a(I2
g242
tp478
a(I3
g242
tp479
a(I0
g242
tp480
a(I1
g242
tp481
a(I2
g242
tp482
a(I3
g242
tp483
a(I0
g242
tp484
a(I1
g242
tp485
a(I2
g242
tp486
a(I3
g242
tp487
a(I0
g242
tp488
a(I1
g242
tp489
a(I2
g242
tp490
a(I3
g242
tp491
a(I0
g242
tp492
a(I1
g242
tp493
a(I2
g242
tp494
a(I3
g242
tp495
a(I0
g242
tp496
a(I1
g242
tp497
a(I2
g242
tp498
a(I3
g242
tp499
a(I0
g242
tp500
a(I1
g242
tp501
a(I2
g242
tp502
a(I3
g242
tp503
a(I0
g242
tp504
a(I1
g242
tp505
a(I2
g242
tp506
a(I3
g242
tp507
a(I0
g242
tp508
a(I1
g242
tp509
a(I2
g242
tp510
a(I3
g242
tp511
a(I0
g242
tp512
a(I1
g242
tp513
a(I2
g242
tp514
a(I3
g242
tp515
a(I0
g242
tp516
a(I1
g242
tp517
a(I2
g242
tp518
a(I3
g242
tp519
a(I0
g242
tp520
a(I1
g242
tp521
a(I2
g242
tp522
a(I3
g242
tp523
a(I0
g242
tp524
a(I1
g242
tp525
a(I2
g242
tp526
a(I3
g242
tp527
a(I0
g242
tp528
a(I1
g242
tp529
a(I2
g242
tp530
a(I3
g242
tp531
a(I0
g242
tp532
a(I1
g242
tp533
a(I2
g242
tp534
a(I3
g242
tp535
a(I0
g242
tp536
a(I1
g242
tp537
a(I2
g242
tp538
a(I3
g242
tp539
a(I0
g242
tp540
a(I1
g242
tp541
a(I2
g242
tp542
a(I3
g242
tp543
a(I0
g242
tp544
a(I1
g242
tp545
a(I2
g242
tp546
a(I3
g242
tp547
a(I0
g242
tp548
a(I1
g242
tp549
a(I2
g242
tp550
a(I3
g242
tp551
a(I0
g242
tp552
a(I1
g242
tp553
a(I2
g242
tp554
a(I3
g242
tp555
a(I0
g242
tp556
a(I1
g242
tp557
a(I2
g242
tp558
a(I3
g242
tp559
a(I0
g242
tp560
a(I1
g242
tp561
a(I2
g242
tp562
a(I3
g242
tp563
a(I0
g242
tp564
a(I1
g242
tp565
a(I2
g242
tp566
a(I3
g242
tp567
a(I0
g242
tp568
a(I1
g242
tp569
a(I2
g242
tp570
a(I3
g242
tp571
a(I0
g242
tp572
a(I1
g242
tp573
a(I2
g242
tp574
a(I3
g242
tp575
a(I0
g242
tp576
a(I1
g242
tp577
a(I2
g242
tp578
a(I3
g242
tp579
a(I0
g242
tp580
a(I1
g242
tp581
a(I2
g242
tp582
a(I3
g242
tp583
a(I0
g242
tp584
a(I1
g242
tp585
a(I2
g242
tp586
a(I3
g242
tp587
a(I0
g242
tp588
a(I1
g242
tp589
a(I2
g242
tp590
a(I3
g242
tp591
a(I0
g242
tp592
a(I1
g242
tp593
a(I2
g242
tp594
a(I3
g242
tp595
a(I0
g242
tp596
a(I1
g242
tp597
a(I2
g242
tp598
a(I3
g242
tp599
a(I0
g242
tp600
a(I1
g242
tp601
a(I2
g242
tp602
a(I3
g242
tp603
a(I0
g242
tp604
a(I1
g242
tp605
a(I2
g242
tp606
a(I3
g242
tp607
a(I0
g242
tp608
a(I1
g242
tp609
a(I2
g242
tp610
a(I3
g242
tp611
a(I0
g242
tp612
a(I1
g242
tp613
a(I2
g242
tp614
a(I3
g242
tp615
a(I0
g242
tp616
a(I1
g242
tp617
a(I2
g242
tp618
a(I3
g242
tp619
a(I0
g242
tp620
a(I1
g242
tp621
a(I2
g242
tp622
a(I3
g242
tp623
a(I0
g242
tp624
a(I1
g242
tp625
a(I2
g242
tp626
a(I3
g242
tp627
a(I0
g242
tp628
a(I1
g242
tp629
a(I2
g242
tp630
a(I3
g242
tp631
a(I0
g242
tp632
a(I1
g242
tp633
a(I2
g242
tp634
a(I3
g242
tp635
a(I0
g242
tp636
a(I1
g242
tp637
a(I2
g242
tp638
a(I3
g242
tp639
a(I0
g242
tp640
a(I1
g242
tp641
a(I2
g242
tp642
a(I3
g242
tp643
a(I0
g242
tp644
a(I1
g242
tp645
a(I2
g242
tp646
a(I3
g242
tp647
a(I0
g242
tp648
a(I1
g242
tp649
a(I2
g242
tp650
a(I3
g242
tp651
a(I0
g242
tp652
a(I1
g242
tp653
a(I2
g242
tp654
a(I3
g242
tp655
a(I0
g242
tp656
a(I1
g242
tp657
a(I2
g242
tp658
a(I3
g242
tp659
a(I0
g242
tp660
a(I1
g242
tp661
a(I2
g242
tp662
a(I3
g242
tp663
a(I0
g242
tp664
a(I1
g242
tp665
a(I2
g242
tp666
a(I3
g242
tp667
a(I0
g242
tp668
a(I1
g242
tp669
a(I2
g242
tp670
a(I3
g242
tp671
a(I0
g242
tp672
a(I1
g242
tp673
a(I2
g242
tp674
a(I3
g242
tp675
a(I0
g242
tp676
a(I1
g242
tp677
a(I2
g242
tp678
a(I3
g242
tp679
a(I0
g242
tp680
a(I1
g242
tp681
a(I2
g242
tp682
a(I3
g242
tp683
a(I0
g242
tp684
a(I1
g242
tp685
a(I2
g242
tp686
a(I3
g242
tp687
a(I0
g242
tp688
a(I1
g242
tp689
a(I2
g242
tp690
a(I3
g242
tp691
a(I0
g242
tp692
a(I1
g242
tp693
a(I2
g242
tp694
a(I3
g242
tp695
a(I0
g242
tp696
a(I1
g242
tp697
a(I2
g242
tp698
a(I3
g242
tp699
a(I0
g242
tp700
a(I1
g242
tp701
a(I2
g242
tp702
a(I3
g242
tp703
a(I0
g242
tp704
a(I1
g242
tp705
a(I2
g242
tp706
a(I3
g242
tp707
a(I0
g242
tp708
a(I1
g242
tp709
a(I2
g242
tp710
a(I3
g242
tp711
a(I0
g242
tp712
a(I1
g242
tp713
a(I2
g242
tp714
a(I3
g242
tp715
a(I0
g242
tp716
a(I1
g242
tp717
a(I2
g242
tp718
a(I3
g242
tp719
a(I0
g242
tp720
a(I1
g242
tp721
a(I2
g242
tp722
a(I3
g242
tp723
a(I0
g242
tp724
a(I1
g242
tp725
a(I2
g242
tp726
a(I3
g242
tp727
a(I0
g242
tp728
a(I1
g242
tp729
a(I2
g242
tp730
a(I3
g242
tp731
a(I0
g242
tp732
a(I1
g242
tp733
a(I2
g242
tp734
a(I3
g242
tp735
a(I0
g242
tp736
a(I1
g242
tp737
a(I2
g242
tp738
a(I3
g242
tp739
a(I0
g242
tp740
a(I1
g242
tp741
a(I2
g242
tp742
a(I3
g242
tp743
a(I0
g242
tp744
a(I1
g242
tp745
a(I2
g242
tp746
a(I3
g242
tp747
a(I0
g242
tp748
a(I1
g242
tp749
a(I2
g242
tp750
a(I3
g242
tp751
a(I0
g242
tp752
a(I1
g242
tp753
a(I2
g242
tp754
a(I3
g242
tp755
a(I0
g242
tp756
a(I1
g242
tp757
a(I2
g242
tp758
a(I3
g242
tp759
a(I0
g242
tp760
a(I1
g242
tp761
a(I2
g242
tp762
a(I3
g242
tp763
a(I0
g242
tp764
a(I1
g242
tp765
a(I2
g242
tp766
a(I3
g242
tp767
a(I0
g242
tp768
a(I1
g242
tp769
a(I2
g242
tp770
a(I3
g242
tp771
a(I0
g242
tp772
a(I1
g242
tp773
a(I2
g242
tp774
a(I3
g242
tp775
a(I0
g242
tp776
a(I1
g242
tp777
a(I2
g242
tp778
a(I3
g242
tp779
a(I0
g242
tp780
a(I1
g242
tp781
a(I2
g242
tp782
a(I3
g242
tp783
a(I0
g242
tp784
a(I1
g242
tp785
a(I2
g242
tp786
a(I3
g242
tp787
a(I0
g242
tp788
a(I1
g242
tp789
a(I2
g242
tp790
a(I3
g242
tp791
a(I0
g242
tp792
a(I1
g242
tp793
a(I2
g242
tp794
a(I3
g242
tp795
a(I0
g242
tp796
a(I1
g242
tp797
a(I2
g242
tp798
a(I3
g242
tp799
a(I0
g242
tp800
a(I1
g242
tp801
a(I2
g242
tp802
a(I3
g242
tp803
a(I0
g242
tp804
a(I1
g242
tp805
a(I2
g242
tp806
a(I3
g242
tp807
a(I0
g242
tp808
a(I1
g242
tp809
a(I2
g242
tp810
a(I3
g242
tp811
a(I0
g242
tp812
a(I1
g242
tp813
a(I2
g242
tp814
a(I3
g242
tp815
a(I0
g242
tp816
a(I1
g242
tp817
a(I2
g242
tp818
a(I3
g242
tp819
a(I0
g242
tp820
a(I1
g242
tp821
a(I2
g242
tp822
a(I3
g242
tp823
a(I0
g242
tp824
a(I1
g242
tp825
a(I2
g242
tp826
a(I3
g242
tp827
a(I0
g242
tp828
a(I1
g242
tp829
a(I2
g242
tp830
a(I3
g242
tp831
a(I0
g242
tp832
a(I1
g242
tp833
a(I2
g242
tp834
a(I3
g242
tp835
a(I0
g242
tp836
a(I1
g242
tp837
a(I2
g242
tp838
a(I3
g242
tp839
a(I0
g242
tp840
a(I1
g242
tp841
a(I2
g242
tp842
a(I3
g242
tp843
a(I0
g242
tp844
a(I1
g242
tp845
a(I2
g242
tp846
a(I3
g242
tp847
a(I0
g242
tp848
a(I1
g242
tp849
a(I2
g242
tp850
a(I3
g242
tp851
a(I0
g242
tp852
a(I1
g242
tp853
a(I2
g242
tp854
a(I3
g242
tp855
a(I0
g242
tp856
a(I1
g242
tp857
a(I2
g242
tp858
a(I3
g242
tp859
a(I0
g242
tp860
a(I1
g242
tp861
a(I2
g242
tp862
a(I3
g242
tp863
a(I0
g242
tp864
a(I1
g242
tp865
a(I2
g242
tp866
a(I3
g242
tp867
a(I0
g242
tp868
a(I1
g242
tp869
a(I2
g242
tp870
a(I3
g242
tp871
a(I0
g242
tp872
a(I1
g242
tp873
a(I2
g242
tp874
a(I3
g242
tp875
a(I0
g242
tp876
a(I1
g242
tp877
a(I2
g242
tp878
a(I3
g242
tp879
a(I0
g242
tp880
a(I1
g242
tp881
a(I2
g242
tp882
a(I3
g242
tp883
a(I0
g242
tp884
a(I1
g242
tp885
a(I2
g242
tp886
a(I3
g242
tp887
a(I0
g242
tp888
a(I1
g242
tp889
a(I2
g242
tp890
a(I3
g242
tp891
a(I0
g242
tp892
a(I1
g242
tp893
a(I2
g242
tp894
a(I3
g242
tp895
a(I0
g242
tp896
a(I1
g242
tp897
a(I2
g242
tp898
a(I3
g242
tp899
a(I0
g242
tp900
a(I1
g242
tp901
a(I2
g242
tp902
a(I3
g242
tp903
a(I0
g242
tp904
a(I1
g242
tp905
a(I2
g242
tp906
a(I3
g242
tp907
a(I0
g242
tp908
a(I1
g242
tp909
a(I2
g242
tp910
a(I3
g242
tp911
a(I0
g242
tp912
a(I1
g242
tp913
a(I2
g242
tp914
a(I3
g242
tp915
a(I0
g242
tp916
a(I1
g242
tp917
a(I2
g242
tp918
a(I3
g242
tp919
a(I0
g242
tp920
a(I1
g242
tp921
a(I2
g242
tp922
a(I3
g242
tp923
a(I0
g242
tp924
a(I1
g242
tp925
a(I2
g242
tp926
a(I3
g242
tp927
a(I0
g242
tp928
a(I1
g242
tp929
a(I2
g242
tp930
a(I3
g242
tp931
a(I0
g242
tp932
a(I1
g242
tp933
a(I2
g242
tp934
a(I3
g242
tp935
a(I0
g242
tp936
a(I1
g242
tp937
a(I2
g242
tp938
a(I3
g242
tp939
a(I0
g242
tp940
a(I1
g242
tp941
a(I2
g242
tp942
a(I3
g242
tp943
a(I0
g242
tp944
a(I1
g242
tp945
a(I2
g242
tp946
a(I3
g242
tp947
a(I0
g242
tp948
a(I1
g242
tp949
a(I2
g242
tp950
a(I3
g242
tp951
a(I0
g242
tp952
a(I1
g242
tp953
a(I2
g242
tp954
a(I3
g242
tp955
a(I0
g242
tp956
a(I1
g242
tp957
a(I2
g242
tp958
a(I3
g242
tp959
a(I0
g242
tp960
a(I1
g242
tp961
a(I2
g242
tp962
a(I3
g242
tp963
a(I0
g242
tp964
a(I1
g242
tp965
a(I2
g242
tp966
a(I3
g242
tp967
a(I0
g242
tp968
a(I1
g242
tp969
a(I2
g242
tp970
a(I3
g242
tp971
a(I0
g242
tp972
a(I1
g242
tp973
a(I2
g242
tp974
a(I3
g242
tp975
a(I0
g242
tp976
a(I1
g242
tp977
a(I2
g242
tp978
a(I3
g242
tp979
a(I0
g242
tp980
a(I1
g242
tp981
a(I2
g242
tp982
a(I3
g242
tp983
a(I0
g242
tp984
a(I1
g242
tp985
a(I2
g242
tp986
a(I3
g242
tp987
a(I0
g242
tp988
a(I1
g242
tp989
a(I2
g242
tp990
a(I3
g242
tp991
a(I0
g242
tp992
a(I1
g242
tp993
a(I2
g242
tp994
a(I3
g242
tp995
a(I0
g242
tp996
a(I1
g242
tp997
a(I2
g242
tp998
a(I3
g242
tp999
a(I0
g242
tp1000
a(I1
g242
tp1001
a(I2
g242
tp1002
a(I3
g242
tp1003
a(I0
g242
tp1004
a(I1
g242
tp1005
a(I2
g242
tp1006
a(I3
g242
tp1007
a(I0
g242
tp1008
a(I1
g242
tp1009
a(I2
g242
tp1010
a(I3
g242
tp1011
a(I0
g242
tp1012
a(I1
g242
tp1013
a(I2
g242
tp1014
a(I3
g242
tp1015
a(I0
g242
tp1016
a(I1
g242
tp1017
a(I2
g242
tp1018
a(I3
g242
tp1019
a(I0
g242
tp1020
a(I1
g242
tp1021
a(I2
g242
tp1022
a(I3
g242
tp1023
a(I0
g242
tp1024
a(I1
g242
tp1025
a(I2
g242
tp1026
a(I3
g242
tp1027
a(I0
g242
tp1028
a(I1
g242
tp1029
a(I2
g242
tp1030
a(I3
g242
tp1031
a(I0
g242
tp1032
a(I1
g242
tp1033
a(I2
g242
tp1034
a(I3
g242
tp1035
a(I0
g242
tp1036
a(I1
g242
tp1037
a(I2
g242
tp1038
a(I3
g242
tp1039
a(I0
g242
tp1040
a(I1
g242
tp1041
a(I2
g242
tp1042
a(I3
g242
tp1043
a(I0
g242
tp1044
a(I1
g242
tp1045
a(I2
g242
tp1046
a(I3
g242
tp1047
a(I0
g242
tp1048
a(I1
g242
tp1049
a(I2
g242
tp1050
a(I3
g242
tp1051
a(I0
g242
tp1052
a(I1
g242
tp1053
a(I2
g242
tp1054
a(I3
g242
tp1055
a(I0
g242
tp1056
a(I1
g242
tp1057
a(I2
g242
tp1058
a(I3
g242
tp1059
a(I0
g242
tp1060
a(I1
g242
tp1061
a(I2
g242
tp1062
a(I3
g242
tp1063
a(I0
g242
tp1064
a(I1
g242
tp1065
a(I2
g242
tp1066
a(I3
g242
tp1067
a(I0
g242
tp1068
a(I1
g242
tp1069
a(I2
g242
tp1070
a(I3
g242
tp1071
a(I0
g242
tp1072
a(I1
g242
tp1073
a(I2
g242
tp1074
a(I3
g242
tp1075
a(I0
g242
tp1076
a(I1
g242
tp1077
a(I2
g242
tp1078
a(I3
g242
tp1079
a(I0
g242
tp1080
a(I1
g242
tp1081
a(I2
g242
tp1082
a(I3
g242
tp1083
a(I0
g242
tp1084
a(I1
g242
tp1085
a(I2
g242
tp1086
a(I3
g242
tp1087
a(I0
g242
tp1088
a(I1
g242
tp1089
a(I2
g242
tp1090
a(I3
g242
tp1091
a(I0
g242
tp1092
a(I1
g242
tp1093
a(I2
g242
tp1094
a(I3
g242
tp1095
a(I0
g242
tp1096
a(I1
g242
tp1097
a(I2
g242
tp1098
a(I3
g242
tp1099
a(I0
g242
tp1100
a(I1
g242
tp1101
a(I2
g242
tp1102
a(I3
g242
tp1103
a(I0
g242
tp1104
a(I1
g242
tp1105
a(I2
g242
tp1106
a(I3
g242
tp1107
a(I0
g242
tp1108
a(I1
g242
tp1109
a(I2
g242
tp1110
a(I3
g242
tp1111
a(I0
g242
tp1112
a(I1
g242
tp1113
a(I2
g242
tp1114
a(I3
g242
tp1115
a(I0
g242
tp1116
a(I1
g242
tp1117
a(I2
g242
tp1118
a(I3
g242
tp1119
a(I0
g242
tp1120
a(I1
g242
tp1121
a(I2
g242
tp1122
a(I3
g242
tp1123
a(I0
g242
tp1124
a(I1
g242
tp1125
a(I2
g242
tp1126
a(I3
g242
tp1127
a(I0
g242
tp1128
a(I1
g242
tp1129
a(I2
g242
tp1130
a(I3
g242
tp1131
a(I0
g242
tp1132
a(I1
g242
tp1133
a(I2
g242
tp1134
a(I3
g242
tp1135
a(I0
g242
tp1136
a(I1
g242
tp1137
a(I2
g242
tp1138
a(I3
g242
tp1139
a(I0
g242
tp1140
a(I1
g242
tp1141
a(I2
g242
tp1142
a(I3
g242
tp1143
a(I0
g242
tp1144
a(I1
g242
tp1145
a(I2
g242
tp1146
a(I3
g242
tp1147
a(I0
g242
tp1148
a(I1
g242
tp1149
a(I2
g242
tp1150
a(I3
g242
tp1151
a(I0
g242
tp1152
a(I1
g242
tp1153
a(I2
g242
tp1154
a(I3
g242
tp1155
a(I0
g242
tp1156
a(I1
g242
tp1157
a(I2
g242
tp1158
a(I3
g242
tp1159
a(I0
g242
tp1160
a(I1
g242
tp1161
a(I2
g242
tp1162
a(I3
g242
tp1163
a(I0
g242
tp1164
a(I1
g242
tp1165
a(I2
g242
tp1166
a(I3
g242
tp1167
a(I0
g242
tp1168
a(I1
g242
tp1169
a(I2
g242
tp1170
a(I3
g242
tp1171
a(I0
g242
tp1172
a(I1
g242
tp1173
a(I2
g242
tp1174
a(I3
g242
tp1175
a(I0
g242
tp1176
a(I1
g242
tp1177
a(I2
g242
tp1178
a(I3
g242
tp1179
a(I0
g242
tp1180
a(I1
g242
tp1181
a(I2
g242
tp1182
a(I3
g242
tp1183
a(I0
g242
tp1184
a(I1
g242
tp1185
a(I2
g242
tp1186
a(I3
g242
tp1187
a(I0
g242
tp1188
a(I1
g242
tp1189
a(I2
g242
tp1190
a(I3
g242
tp1191
a(I0
g242
tp1192
a(I1
g242
tp1193
a(I2
g242
tp1194
a(I3
g242
tp1195
a(I0
g242
tp1196
a(I1
g242
tp1197
a(I2
g242
tp1198
a(I3
g242
tp1199
a(I0
g242
tp1200
a(I1
g242
tp1201
a(I2
g242
tp1202
a(I3
g242
tp1203
a(I0
g242
tp1204
a(I1
g242
tp1205
a(I2
g242
tp1206
a(I3
g242
tp1207
a(I0
g242
tp1208
a(I1
g242
tp1209
a(I2
g242
tp1210
a(I3
g242
tp1211
a(I0
g242
tp1212
a(I1
g242
tp1213
a(I2
g242
tp1214
a(I3
g242
tp1215
a(I0
g242
tp1216
a(I1
g242
tp1217
a(I2
g242
tp1218
a(I3
g242
tp1219
a(I0
g242
tp1220
a(I1
g242
tp1221
a(I2
g242
tp1222
a(I3
g242
tp1223
a(I0
g242
tp1224
a(I1
g242
tp1225
a(I2
g242
tp1226
a(I3
g242
tp1227
a(I0
g242
tp1228
a(I1
g242
tp1229
a(I2
g242
tp1230
a(I3
g242
tp1231
a(I0
g242
tp1232
a(I1
g242
tp1233
a(I2
g242
tp1234
a(I3
g242
tp1235
a(I0
g242
tp1236
a(I1
g242
tp1237
a(I2
g242
tp1238
a(I3
g242
tp1239
a(I0
g242
tp1240
a(I1
g242
tp1241
a(I2
g242
tp1242
a(I3
g242
tp1243
a(I0
g242
tp1244
a(I1
g242
tp1245
a(I2
g242
tp1246
a(I3
g242
tp1247
a(I0
g242
tp1248
a(I1
g242
tp1249
a(I2
g242
tp1250
a(I3
g242
tp1251
a(I0
g242
tp1252
a(I1
g242
tp1253
a(I2
g242
tp1254
a(I3
g242
tp1255
a(I0
g242
tp1256
a(I1
g242
tp1257
a(I2
g242
tp1258
a(I3
g242
tp1259
a(I0
g242
tp1260
a(I1
g242
tp1261
a(I2
g242
tp1262
a(I3
g242
tp1263
a(I0
g242
tp1264
a(I1
g242
tp1265
a(I2
g242
tp1266
a(I3
g242
tp1267
a(I0
g242
tp1268
a(I1
g242
tp1269
a(I2
g242
tp1270
a(I3
g242
tp1271
a(I0
g242
tp1272
a(I1
g242
tp1273
a(I2
g242
tp1274
a(I3
g242
tp1275
a(I0
g242
tp1276
a(I1
g242
tp1277
a(I2
g242
tp1278
a(I3
g242
tp1279
a(I0
g242
tp1280
a(I1
g242
tp1281
a(I2
g242
tp1282
a(I3
g242
tp1283
a(I0
g242
tp1284
a(I1
g242
tp1285
a(I2
g242
tp1286
a(I3
g242
tp1287
a(I0
g242
tp1288
a(I1
g242
tp1289
a(I2
g242
tp1290
a(I3
g242
tp1291
a(I0
g242
tp1292
a(I1
g242
tp1293
a(I2
g242
tp1294
a(I3
g242
tp1295
a(I0
g242
tp1296
a(I1
g242
tp1297
a(I2
g242
tp1298
a(I3
g242
tp1299
a(I0
g242
tp1300
a(I1
g242
tp1301
a(I2
g242
tp1302
a(I3
g242
tp1303
a(I0
g242
tp1304
a(I1
g242
tp1305
a(I2
g242
tp1306
a(I3
g242
tp1307
a(I0
g242
tp1308
a(I1
g242
tp1309
a(I2
g242
tp1310
a(I3
g242
tp1311
a(I0
g242
tp1312
a(I1
g242
tp1313
a(I2
g242
tp1314
a(I3
g242
tp1315
a(I0
g242
tp1316
a(I1
g242
tp1317
a(I2
g242
tp1318
a(I3
g242
tp1319
a(I0
g242
tp1320
a(I1
g242
tp1321
a(I2
g242
tp1322
a(I3
g242
tp1323
a(I0
g242
tp1324
a(I1
g242
tp1325
a(I2
g242
tp1326
a(I3
g242
tp1327
a(I0
g242
tp1328
a(I1
g242
tp1329
a(I2
g242
tp1330
a(I3
g242
tp1331
asS'length'
p1332
I1200
sS'agents'
p1333
(lp1334
(igame
Agent
p1335
(dp1336
S'index'
p1337
I0
sba(igame
Agent
p1338
(dp1339
g1337
I0
sba(igame
Agent
p1340
(dp1341
g1337
I0
sba(igame
Agent
p1342
(dp1343
g1337
I0
sbasS'redTeamName'
p1344
S'Red'
p1345
s.