(dp1
S'layout'
p2
(ilayout
Layout
p3
(dp4
S'capsules'
p5
(lp6
(I11
I3
tp7
a(I19
I8
tp8
a(I14
I9
tp9
a(I22
I16
tp10
asS'numGhosts'
p11
I4
sS'food'
p12
(igame
Grid
p13
(dp14
S'CELLS_PER_INT'
p15
I30
sS'width'
p16
I34
sS'data'
p17
(lp18
(lp19
I00
aI00
aI00
aI00
aI00
aI00
aI00
aI00
aI00
aI00
aI00
aI00
aI00
aI00
aI00
aI00
aI00
aI00
aa(lp20
I00
aI00
aI00
aI00
aI00
aI00
aI00
aI01
aI00
aI00
aI00
aI00
aI00
aI00
aI01
aI00
aI01
aI00
aa(lp21
I00
aI00
aI00
aI00
aI00
aI00
aI00
aI00
aI00
aI00
aI00
aI00
aI00
aI00
aI00
aI00
aI00
aI00
aa(lp22
I00
aI00
aI00
aI00
aI00
aI00
aI00
aI00
aI01
aI01
aI00
aI00
aI00
aI00
aI00
aI00
aI01
aI00
aa(lp23
I00
aI00
aI00
aI00
aI00
aI00
aI00
aI00
aI00
aI00
aI00
aI00
aI00
aI00
aI00
aI00
aI00
aI00
aa(lp24
I00
aI00
aI00
aI00
aI00
aI00
aI01
aI00
aI00
aI00
aI00
aI00
aI01
aI00
aI00
aI01
aI00
aI00
aa(lp25
I00
aI00
aI00
aI01
aI00
aI00
aI00
aI00
aI00
aI00
aI00
aI00
aI01
aI00
aI00
aI00
aI00
aI00
aa(lp26
I00
aI00
aI00
aI00
aI00
aI00
aI01
aI00
aI00
aI00
aI00
aI00
aI00
aI00
aI00
aI00
aI01
aI00
aa(lp27
I00
aI00
aI00
aI00
aI00
aI00
aI00
aI00
aI01
aI00
aI01
aI00
aI01
aI00
aI00
aI00
aI01
aI00
aa(lp28
I00
aI00
aI00
aI00
aI00
aI00
aI00
aI00
aI00
aI01
aI00
aI00
aI01
aI00
aI00
aI00
aI01
aI00
aa(lp29
I00
aI00
aI00
aI00
aI00
aI00
aI00
aI00
aI00
aI00
aI00
aI00
aI00
aI00
aI00
aI00
aI00
aI00
aa(lp30
I00
aI00
aI00
aI00
aI00
aI01
aI01
aI00
aI00
aI00
aI00
aI01
aI01
aI00
aI01
aI00
aI01
aI00
aa(lp31
I00
aI00
aI00
aI00
aI00
aI00
aI00
aI00
aI00
aI00
aI00
aI00
aI00
aI00
aI00
aI00
aI00
aI00
aa(lp32
I00
aI00
aI00
aI00
aI00
aI00
aI00
aI00
aI00
aI00
aI00
aI00
aI00
aI00
aI00
aI00
aI01
aI00
aa(lp33
I00
aI00
aI00
aI00
aI00
aI00
aI00
aI00
aI00
aI00
aI00
aI00
aI00
aI00
aI00
aI00
aI01
aI00
aa(lp34
I00
aI00
aI00
aI00
aI00
aI00
aI00
aI00
aI00
aI00
aI00
aI00
aI00
aI00
aI00
aI00
aI00
aI00
aa(lp35
I00
aI01
aI00
aI00
aI00
aI00
aI00
aI00
aI01
aI00
aI00
aI00
aI00
aI00
aI00
aI00
aI00
aI00
aa(lp36
I00
aI00
aI00
aI00
aI00
aI00
aI00
aI00
aI00
aI01
aI00
aI00
aI00
aI00
aI00
aI00
aI01
aI00
aa(lp37
I00
aI00
aI00
aI00
aI00
aI00
aI00
aI00
aI00
aI00
aI00
aI00
aI00
aI00
aI00
aI00
aI00
aI00
aa(lp38
I00
aI01
aI00
aI00
aI00
aI00
aI00
aI00
aI00
aI00
aI00
aI00
aI00
aI00
aI00
aI00
aI00
aI00
aa(lp39
I00
aI01
aI00
aI00
aI00
aI00
aI00
aI00
aI00
aI00
aI00
aI00
aI00
aI00
aI00
aI00
aI00
aI00
aa(lp40
I00
aI00
aI00
aI00
aI00
aI00
aI00
aI00
aI00
aI00
aI00
aI00
aI00
aI00
aI00
aI00
aI00
aI00
aa(lp41
I00
aI01
aI00
aI01
aI00
aI01
aI01
aI00
aI00
aI00
aI00
aI01
aI01
aI00
aI00
aI00
aI00
aI00
aa(lp42
I00
aI00
aI00
aI00
aI00
aI00
aI00
aI00
aI00
aI00
aI00
aI00
aI00
aI00
aI00
aI00
aI00
aI00
aa(lp43
I00
aI01
aI00
aI00
aI00
aI01
aI00
aI00
aI01
aI00
aI00
aI00
aI00
aI00
aI00
aI00
aI00
aI00
aa(lp44
I00
aI01
aI00
aI00
aI00
aI01
aI00
aI01
aI00
aI01
aI00
aI00
aI00
aI00
aI00
aI00
aI00
aI00
aa(lp45
I00
aI01
aI00
aI00
aI00
aI00
aI00
aI00
aI00
aI00
aI00
aI01
aI00
aI00
aI00
aI00
aI00
aI00
aa(lp46
I00
aI00
aI00
aI00
aI00
aI01
aI00
aI00
aI00
aI00
aI00
aI00
aI00
aI00
aI01
aI00
aI00
aI00
aa(lp47
I00
aI00
aI01
aI00
aI00
aI01
aI00
aI00
aI00
aI00
aI00
aI01
aI00
aI00
aI00
aI00
aI00
aI00
aa(lp48
I00
aI00
aI00
aI00
aI00
aI00
aI00
aI00
aI00
aI00
aI00
aI00
aI00
aI00
aI00
aI00
aI00
aI00
aa(lp49
I00
aI01
aI00
aI00
aI00
aI00
aI00
aI00
aI01
aI01
aI00
aI00
aI00
aI00
aI00
aI00
aI00
aI00
aa(lp50
I00
aI00
aI00
aI00
aI00
aI00
aI00
aI00
aI00
aI00
aI00
aI00
aI00
aI00
aI00
aI00
aI00
aI00
aa(lp51
I00
aI01
aI00
aI01
aI00
aI00
aI00
aI00
aI00
aI00
aI01
aI00
aI00
aI00
aI00
aI00
aI00
aI00
aa(lp52
I00
aI00
aI00
aI00
aI00
aI00
aI00
aI00
aI00
aI00
aI00
aI00
aI00
aI00
aI00
aI00
aI00
aI00
aasS'height'
p53
I18
sbsS'agentPositions'
p54
(lp55
(I00
(I1
I2
tp56
tp57
a(I00
(I32
I15
tp58
tp59
a(I00
(I1
I1
tp60
tp61
a(I00
(I32
I16
tp62
tp63
asg53
I18
sg16
I34
sS'walls'
p64
(igame
Grid
p65
(dp66
g15
I30
sg16
I34
sg17
(lp67
(lp68
I01
aI01
aI01
aI01
aI01
aI01
aI01
aI01
aI01
aI01
aI01
aI01
aI01
aI01
aI01
aI01
aI01
aI01
aa(lp69
I01
aI00
aI00
aI00
aI00
aI00
aI00
aI00
aI00
aI00
aI00
aI00
aI00
aI00
aI00
aI00
aI00
aI01
aa(lp70
I01
aI00
aI00
aI00
aI01
aI01
aI01
aI01
aI01
aI01
aI01
aI01
aI01
aI01
aI01
aI01
aI00
aI01
aa(lp71
I01
aI00
aI01
aI00
aI01
aI00
aI00
aI01
aI00
aI00
aI00
aI00
aI00
aI00
aI00
aI01
aI00
aI01
aa(lp72
I01
aI00
aI01
aI00
aI01
aI00
aI00
aI01
aI01
aI01
aI00
aI01
aI01
aI01
aI00
aI01
aI00
aI01
aa(lp73
I01
aI00
aI01
aI00
aI01
aI00
aI00
aI01
aI00
aI00
aI00
aI01
aI00
aI01
aI00
aI00
aI00
aI01
aa(lp74
I01
aI00
aI01
aI00
aI01
aI00
aI00
aI00
aI00
aI00
aI01
aI01
aI00
aI01
aI00
aI01
aI01
aI01
aa(lp75
I01
aI00
aI01
aI00
aI01
aI00
aI00
aI01
aI00
aI00
aI00
aI00
aI00
aI01
aI00
aI01
aI00
aI01
aa(lp76
I01
aI00
aI01
aI00
aI01
aI00
aI00
aI01
aI00
aI01
aI00
aI01
aI00
aI01
aI00
aI01
aI00
aI01
aa(lp77
I01
aI00
aI00
aI00
aI01
aI00
aI00
aI01
aI00
aI00
aI00
aI01
aI00
aI01
aI00
aI01
aI00
aI01
aa(lp78
I01
aI00
aI01
aI00
aI01
aI01
aI01
aI01
aI00
aI01
aI01
aI01
aI01
aI01
aI00
aI00
aI00
aI01
aa(lp79
I01
aI00
aI01
aI00
aI01
aI00
aI00
aI00
aI00
aI00
aI00
aI00
aI00
aI01
aI00
aI01
aI00
aI01
aa(lp80
I01
aI00
aI01
aI00
aI01
aI01
aI01
aI01
aI01
aI01
aI00
aI01
aI01
aI01
aI01
aI01
aI01
aI01
aa(lp81
I01
aI00
aI00
aI00
aI00
aI00
aI01
aI00
aI00
aI00
aI00
aI00
aI00
aI01
aI00
aI00
aI00
aI01
aa(lp82
I01
aI00
aI00
aI00
aI01
aI00
aI00
aI00
aI01
aI00
aI00
aI01
aI00
aI00
aI00
aI01
aI00
aI01
aa(lp83
I01
aI01
aI00
aI00
aI01
aI00
aI01
aI00
aI01
aI01
aI00
aI01
aI01
aI01
aI00
aI01
aI01
aI01
aa(lp84
I01
aI00
aI00
aI00
aI00
aI00
aI00
aI00
aI00
aI00
aI00
aI00
aI00
aI00
aI00
aI00
aI00
aI01
aa(lp85
I01
aI00
aI00
aI00
aI00
aI00
aI00
aI00
aI00
aI00
aI00
aI00
aI00
aI00
aI00
aI00
aI00
aI01
aa(lp86
I01
aI01
aI01
aI00
aI01
aI01
aI01
aI00
aI01
aI01
aI00
aI01
aI00
aI01
aI00
aI00
aI01
aI01
aa(lp87
I01
aI00
aI01
aI00
aI00
aI00
aI01
aI00
aI00
aI01
aI00
aI00
aI00
aI01
aI00
aI00
aI00
aI01
aa(lp88
I01
aI00
aI00
aI00
aI01
aI00
aI00
aI00
aI00
aI00
aI00
aI01
aI00
aI00
aI00
aI00
aI00
aI01
aa(lp89
I01
aI01
aI01
aI01
aI01
aI01
aI01
aI00
aI01
aI01
aI01
aI01
aI01
aI01
aI00
aI01
aI00
aI01
aa(lp90
I01
aI00
aI01
aI00
aI01
aI00
aI00
aI00
aI00
aI00
aI00
aI00
aI00
aI01
aI00
aI01
aI00
aI01
aa(lp91
I01
aI00
aI00
aI00
aI01
aI01
aI01
aI01
aI01
aI00
aI01
aI01
aI01
aI01
aI00
aI01
aI00
aI01
aa(lp92
I01
aI00
aI01
aI00
aI01
aI00
aI01
aI00
aI00
aI00
aI01
aI00
aI00
aI01
aI00
aI00
aI00
aI01
aa(lp93
I01
aI00
aI01
aI00
aI01
aI00
aI01
aI00
aI01
aI00
aI01
aI00
aI00
aI01
aI00
aI01
aI00
aI01
aa(lp94
I01
aI00
aI01
aI00
aI01
aI00
aI00
aI00
aI00
aI00
aI01
aI00
aI00
aI01
aI00
aI01
aI00
aI01
aa(lp95
I01
aI01
aI01
aI00
aI01
aI00
aI01
aI01
aI00
aI00
aI00
aI00
aI00
aI01
aI00
aI01
aI00
aI01
aa(lp96
I01
aI00
aI00
aI00
aI01
aI00
aI01
aI00
aI00
aI00
aI01
aI00
aI00
aI01
aI00
aI01
aI00
aI01
aa(lp97
I01
aI00
aI01
aI00
aI01
aI01
aI01
aI00
aI01
aI01
aI01
aI00
aI00
aI01
aI00
aI01
aI00
aI01
aa(lp98
I01
aI00
aI01
aI00
aI00
aI00
aI00
aI00
aI00
aI00
aI01
aI00
aI00
aI01
aI00
aI01
aI00
aI01
aa(lp99
I01
aI00
aI01
aI01
aI01
aI01
aI01
aI01
aI01
aI01
aI01
aI01
aI01
aI01
aI00
aI00
aI00
aI01
aa(lp100
I01
aI00
aI00
aI00
aI00
aI00
aI00
aI00
aI00
aI00
aI00
aI00
aI00
aI00
aI00
aI00
aI00
aI01
aa(lp101
I01
aI01
aI01
aI01
aI01
aI01
aI01
aI01
aI01
aI01
aI01
aI01
aI01
aI01
aI01
aI01
aI01
aI01
aasg53
I18
sbsS'totalFood'
p102
I60
sS'layoutText'
p103
(lp104
S'%%%%%%%%%%%%%%%%%%%%%%%%%%%%%%%%%%'
p105
aS'%. .  %... .%..% .%   o         4%'
p106
aS'% %%%.%%%% %% %%     %%% %%%%%% 2%'
p107
aS'%.%        .%              .     %'
p108
aS'% % %%%%%%%%%% %  %% %%%%%%%%%%% %'
p109
aS'% % %.. ..%.%  %     %.%       % %'
p110
aS'% % %%% %%%.% %%  % %%.%  . .  % %'
p111
aS'% %   % . %          % %%%% %%%%.%'
p112
aS'% %.%   %.% % o% .%% %   .   %.% %'
p113
aS'% %.%   .   % %%. %o % %.%   %.% %'
p114
aS'%.%%%% %%%% %          % . %   % %'
p115
aS'% %  . .  %.%% %  %% %.%%% %%% % %'
p116
aS'% %       %.%     %  %.%.. ..% % %'
p117
aS'% %%%%%%%%%%% %%  % %%%%%%%%%% % %'
p118
aS'%     .    o         %.        %.%'
p119
aS'%1 %%%%%% %%%     %% %% %%%%.%%% %'
p120
aS'%3             %. %..%. ...%  . .%'
p121
aS'%%%%%%%%%%%%%%%%%%%%%%%%%%%%%%%%%%'
p122
asbsS'blueTeamName'
p123
S'Blue'
p124
sS'actions'
p125
(lp126
(I0
S'East'
p127
tp128
a(I1
S'West'
p129
tp130
a(I2
g127
tp131
a(I3
g129
tp132
a(I0
S'North'
p133
tp134
a(I1
S'South'
p135
tp136
a(I2
g133
tp137
a(I3
g129
tp138
a(I0
g127
tp139
a(I1
g129
tp140
a(I2
g133
tp141
a(I3
g129
tp142
a(I0
g127
tp143
a(I1
g129
tp144
a(I2
g127
tp145
a(I3
g129
tp146
a(I0
g127
tp147
a(I1
g129
tp148
a(I2
g127
tp149
a(I3
g129
tp150
a(I0
g127
tp151
a(I1
g129
tp152
a(I2
g127
tp153
a(I3
g129
tp154
a(I0
g127
tp155
a(I1
g129
tp156
a(I2
g127
tp157
a(I3
g129
tp158
a(I0
g127
tp159
a(I1
g129
tp160
a(I2
g127
tp161
a(I3
g129
tp162
a(I0
g127
tp163
a(I1
g129
tp164
a(I2
g127
tp165
a(I3
g129
tp166
a(I0
g127
tp167
a(I1
g129
tp168
a(I2
g127
tp169
a(I3
g129
tp170
a(I0
g127
tp171
a(I1
g129
tp172
a(I2
g127
tp173
a(I3
g129
tp174
a(I0
g127
tp175
a(I1
g129
tp176
a(I2
g127
tp177
a(I3
g129
tp178
a(I0
g127
tp179
a(I1
g129
tp180
a(I2
g127
tp181
a(I3
g135
tp182
a(I0
g127
tp183
a(I1
g129
tp184
a(I2
g127
tp185
a(I3
g135
tp186
a(I0
g127
tp187
a(I1
g129
tp188
a(I2
g133
tp189
a(I3
g135
tp190
a(I0
g127
tp191
a(I1
g129
tp192
a(I2
g133
tp193
a(I3
g135
tp194
a(I0
g127
tp195
a(I1
g129
tp196
a(I2
g127
tp197
a(I3
g129
tp198
a(I0
g127
tp199
a(I1
g129
tp200
a(I2
g133
tp201
a(I3
g135
tp202
a(I0
g127
tp203
a(I1
g129
tp204
a(I2
g133
tp205
a(I3
g135
tp206
a(I0
g127
tp207
a(I1
g129
tp208
a(I2
g127
tp209
a(I3
g127
tp210
a(I0
g135
tp211
a(I1
g133
tp212
a(I2
g127
tp213
a(I3
g135
tp214
a(I0
g135
tp215
a(I1
g133
tp216
a(I2
g127
tp217
a(I3
g135
tp218
a(I0
g129
tp219
a(I1
g135
tp220
a(I2
g127
tp221
a(I3
g135
tp222
a(I0
g127
tp223
a(I1
g135
tp224
a(I2
S'Stop'
p225
tp226
a(I3
g129
tp227
a(I0
g133
tp228
a(I1
g127
tp229
a(I2
g225
tp230
a(I3
g129
tp231
a(I0
g133
tp232
a(I1
g127
tp233
a(I2
g127
tp234
a(I3
g127
tp235
a(I0
g129
tp236
a(I1
g127
tp237
a(I2
g127
tp238
a(I3
g127
tp239
a(I0
g129
tp240
a(I1
g127
tp241
a(I2
g127
tp242
a(I3
g127
tp243
a(I0
g129
tp244
a(I1
g135
tp245
a(I2
g127
tp246
a(I3
g127
tp247
a(I0
g129
tp248
a(I1
g135
tp249
a(I2
g127
tp250
a(I3
g133
tp251
a(I0
g127
tp252
a(I1
g127
tp253
a(I2
g127
tp254
a(I3
g133
tp255
a(I0
g133
tp256
a(I1
g127
tp257
a(I2
g127
tp258
a(I3
g225
tp259
a(I0
g133
tp260
a(I1
g135
tp261
a(I2
g127
tp262
a(I3
g135
tp263
a(I0
g133
tp264
a(I1
g135
tp265
a(I2
g127
tp266
a(I3
g135
tp267
a(I0
g133
tp268
a(I1
g129
tp269
a(I2
g127
tp270
a(I3
g129
tp271
a(I0
g133
tp272
a(I1
g129
tp273
a(I2
g127
tp274
a(I3
g129
tp275
a(I0
g133
tp276
a(I1
g135
tp277
a(I2
g127
tp278
a(I3
g133
tp279
a(I0
g127
tp280
a(I1
g135
tp281
a(I2
g127
tp282
a(I3
g133
tp283
a(I0
g133
tp284
a(I1
g135
tp285
a(I2
g133
tp286
a(I3
g133
tp287
a(I0
g127
tp288
a(I1
g127
tp289
a(I2
g127
tp290
a(I3
g129
tp291
a(I0
g127
tp292
a(I1
g127
tp293
a(I2
g127
tp294
a(I3
g133
tp295
a(I0
g127
tp296
a(I1
g127
tp297
a(I2
g127
tp298
a(I3
g133
tp299
a(I0
g127
tp300
a(I1
g127
tp301
a(I2
g133
tp302
a(I3
g127
tp303
a(I0
g127
tp304
a(I1
g127
tp305
a(I2
g133
tp306
a(I3
g133
tp307
a(I0
g127
tp308
a(I1
g133
tp309
a(I2
g133
tp310
a(I3
g133
tp311
a(I0
g127
tp312
a(I1
g133
tp313
a(I2
g133
tp314
a(I3
g127
tp315
a(I0
g127
tp316
a(I1
g127
tp317
a(I2
g133
tp318
a(I3
g127
tp319
a(I0
g127
tp320
a(I1
g127
tp321
a(I2
g127
tp322
a(I3
g127
tp323
a(I0
g127
tp324
a(I1
g127
tp325
a(I2
g127
tp326
a(I3
g127
tp327
a(I0
g127
tp328
a(I1
g127
tp329
a(I2
g225
tp330
a(I3
g133
tp331
a(I0
g127
tp332
a(I1
g127
tp333
a(I2
g225
tp334
a(I3
g135
tp335
a(I0
g127
tp336
a(I1
g127
tp337
a(I2
g225
tp338
a(I3
g127
tp339
a(I0
g127
tp340
a(I1
g135
tp341
a(I2
g225
tp342
a(I3
g127
tp343
a(I0
g127
tp344
a(I1
g135
tp345
a(I2
g225
tp346
a(I3
g127
tp347
a(I0
g133
tp348
a(I1
g127
tp349
a(I2
g225
tp350
a(I3
g127
tp351
a(I0
g133
tp352
a(I1
g127
tp353
a(I2
g225
tp354
a(I3
g127
tp355
a(I0
g133
tp356
a(I1
g135
tp357
a(I2
g225
tp358
a(I3
g127
tp359
a(I0
g133
tp360
a(I1
g135
tp361
a(I2
g225
tp362
a(I3
g127
tp363
a(I0
g133
tp364
a(I1
g135
tp365
a(I2
g225
tp366
a(I3
g127
tp367
a(I0
g129
tp368
a(I1
g135
tp369
a(I2
g225
tp370
a(I3
g135
tp371
a(I0
g133
tp372
a(I1
g129
tp373
a(I2
g225
tp374
a(I3
g135
tp375
a(I0
g133
tp376
a(I1
g129
tp377
a(I2
g225
tp378
a(I3
g135
tp379
a(I0
g133
tp380
a(I1
g129
tp381
a(I2
g225
tp382
a(I3
g135
tp383
a(I0
g127
tp384
a(I1
g129
tp385
a(I2
g225
tp386
a(I3
g135
tp387
a(I0
g133
tp388
a(I1
g129
tp389
a(I2
g225
tp390
a(I3
g135
tp391
a(I0
g133
tp392
a(I1
g127
tp393
a(I2
g225
tp394
a(I3
g135
tp395
a(I0
g133
tp396
a(I1
g127
tp397
a(I2
g225
tp398
a(I3
g135
tp399
a(I0
g133
tp400
a(I1
g127
tp401
a(I2
g225
tp402
a(I3
g135
tp403
a(I0
g133
tp404
a(I1
g127
tp405
a(I2
g225
tp406
a(I3
g135
tp407
a(I0
g135
tp408
a(I1
g127
tp409
a(I2
g225
tp410
a(I3
g135
tp411
a(I0
g127
tp412
a(I1
g133
tp413
a(I2
g225
tp414
a(I3
g135
tp415
a(I0
g127
tp416
a(I1
g133
tp417
a(I2
g225
tp418
a(I3
g135
tp419
a(I0
g127
tp420
a(I1
g133
tp421
a(I2
g225
tp422
a(I3
g129
tp423
a(I0
g135
tp424
a(I1
g133
tp425
a(I2
g225
tp426
a(I3
g129
tp427
a(I0
g127
tp428
a(I1
g129
tp429
a(I2
g225
tp430
a(I3
g129
tp431
a(I0
g127
tp432
a(I1
g129
tp433
a(I2
g225
tp434
a(I3
g129
tp435
a(I0
g127
tp436
a(I1
g133
tp437
a(I2
g225
tp438
a(I3
g133
tp439
a(I0
g127
tp440
a(I1
g129
tp441
a(I2
g225
tp442
a(I3
g133
tp443
a(I0
g127
tp444
a(I1
g129
tp445
a(I2
g225
tp446
a(I3
g129
tp447
a(I0
g127
tp448
a(I1
g133
tp449
a(I2
g225
tp450
a(I3
g127
tp451
a(I0
g127
tp452
a(I1
g129
tp453
a(I2
g225
tp454
a(I3
g129
tp455
a(I0
g129
tp456
a(I1
g129
tp457
a(I2
g225
tp458
a(I3
g129
tp459
a(I0
g129
tp460
a(I1
g129
tp461
a(I2
g225
tp462
a(I3
g129
tp463
a(I0
g129
tp464
a(I1
g129
tp465
a(I2
g225
tp466
a(I3
g127
tp467
a(I0
g129
tp468
a(I1
g135
tp469
a(I2
g225
tp470
a(I3
g127
tp471
a(I0
g129
tp472
a(I1
g135
tp473
a(I2
g225
tp474
a(I3
g127
tp475
a(I0
g129
tp476
a(I1
g129
tp477
a(I2
g225
tp478
a(I3
g127
tp479
a(I0
g129
tp480
a(I1
g129
tp481
a(I2
g225
tp482
a(I3
g127
tp483
a(I0
g129
tp484
a(I1
g129
tp485
a(I2
g127
tp486
a(I3
g129
tp487
a(I0
g129
tp488
a(I1
g127
tp489
a(I2
g133
tp490
a(I3
g129
tp491
a(I0
g129
tp492
a(I1
g127
tp493
a(I2
g133
tp494
a(I3
g135
tp495
a(I0
g129
tp496
a(I1
g127
tp497
a(I2
g127
tp498
a(I3
g135
tp499
a(I0
g127
tp500
a(I1
g133
tp501
a(I2
g127
tp502
a(I3
g127
tp503
a(I0
g127
tp504
a(I1
g133
tp505
a(I2
g127
tp506
a(I3
g127
tp507
a(I0
g127
tp508
a(I1
g127
tp509
a(I2
g127
tp510
a(I3
g127
tp511
a(I0
g127
tp512
a(I1
g127
tp513
a(I2
g127
tp514
a(I3
g127
tp515
a(I0
g127
tp516
a(I1
g127
tp517
a(I2
g127
tp518
a(I3
g133
tp519
a(I0
g127
tp520
a(I1
g127
tp521
a(I2
g127
tp522
a(I3
g133
tp523
a(I0
g127
tp524
a(I1
g127
tp525
a(I2
g127
tp526
a(I3
g133
tp527
a(I0
g127
tp528
a(I1
g127
tp529
a(I2
g127
tp530
a(I3
g133
tp531
a(I0
g127
tp532
a(I1
g135
tp533
a(I2
g127
tp534
a(I3
g133
tp535
a(I0
g127
tp536
a(I1
g135
tp537
a(I2
g127
tp538
a(I3
g133
tp539
a(I0
g127
tp540
a(I1
g127
tp541
a(I2
g133
tp542
a(I3
g133
tp543
a(I0
g127
tp544
a(I1
g127
tp545
a(I2
g133
tp546
a(I3
g133
tp547
a(I0
g127
tp548
a(I1
g135
tp549
a(I2
g127
tp550
a(I3
g133
tp551
a(I0
g127
tp552
a(I1
g135
tp553
a(I2
g133
tp554
a(I3
g133
tp555
a(I0
g129
tp556
a(I1
g135
tp557
a(I2
g133
tp558
a(I3
g133
tp559
a(I0
g129
tp560
a(I1
g135
tp561
a(I2
g127
tp562
a(I3
g133
tp563
a(I0
g129
tp564
a(I1
g129
tp565
a(I2
g127
tp566
a(I3
g133
tp567
a(I0
g129
tp568
a(I1
g129
tp569
a(I2
g127
tp570
a(I3
g129
tp571
a(I0
g129
tp572
a(I1
g129
tp573
a(I2
g127
tp574
a(I3
g129
tp575
a(I0
g129
tp576
a(I1
g129
tp577
a(I2
g127
tp578
a(I3
g129
tp579
a(I0
g133
tp580
a(I1
g129
tp581
a(I2
g225
tp582
a(I3
g129
tp583
a(I0
g133
tp584
a(I1
g127
tp585
a(I2
g225
tp586
a(I3
g129
tp587
a(I0
g127
tp588
a(I1
g127
tp589
a(I2
g225
tp590
a(I3
g129
tp591
a(I0
g127
tp592
a(I1
g127
tp593
a(I2
g225
tp594
a(I3
g129
tp595
a(I0
g127
tp596
a(I1
g135
tp597
a(I2
g225
tp598
a(I3
g129
tp599
a(I0
g127
tp600
a(I1
g133
tp601
a(I2
g225
tp602
a(I3
g133
tp603
a(I0
g127
tp604
a(I1
g127
tp605
a(I2
g225
tp606
a(I3
g135
tp607
a(I0
g127
tp608
a(I1
g127
tp609
a(I2
g225
tp610
a(I3
g127
tp611
a(I0
g127
tp612
a(I1
g133
tp613
a(I2
g225
tp614
a(I3
g127
tp615
a(I0
g127
tp616
a(I1
g133
tp617
a(I2
g225
tp618
a(I3
g127
tp619
a(I0
g135
tp620
a(I1
g133
tp621
a(I2
g225
tp622
a(I3
g127
tp623
a(I0
g135
tp624
a(I1
g135
tp625
a(I2
g225
tp626
a(I3
g127
tp627
a(I0
g135
tp628
a(I1
g135
tp629
a(I2
g225
tp630
a(I3
g127
tp631
a(I0
g135
tp632
a(I1
g135
tp633
a(I2
g225
tp634
a(I3
g127
tp635
a(I0
g135
tp636
a(I1
g129
tp637
a(I2
g225
tp638
a(I3
g127
tp639
a(I0
g135
tp640
a(I1
g129
tp641
a(I2
g225
tp642
a(I3
g135
tp643
a(I0
g135
tp644
a(I1
g135
tp645
a(I2
g225
tp646
a(I3
g135
tp647
a(I0
g135
tp648
a(I1
g135
tp649
a(I2
g225
tp650
a(I3
g135
tp651
a(I0
g135
tp652
a(I1
g127
tp653
a(I2
g225
tp654
a(I3
g135
tp655
a(I0
g135
tp656
a(I1
g127
tp657
a(I2
g225
tp658
a(I3
g135
tp659
a(I0
g135
tp660
a(I1
g127
tp661
a(I2
g225
tp662
a(I3
g135
tp663
a(I0
g135
tp664
a(I1
g127
tp665
a(I2
g225
tp666
a(I3
g135
tp667
a(I0
g135
tp668
a(I1
g133
tp669
a(I2
g225
tp670
a(I3
g135
tp671
a(I0
g135
tp672
a(I1
g135
tp673
a(I2
g225
tp674
a(I3
g135
tp675
a(I0
g127
tp676
a(I1
g129
tp677
a(I2
g225
tp678
a(I3
g135
tp679
a(I0
g133
tp680
a(I1
g129
tp681
a(I2
g225
tp682
a(I3
g135
tp683
a(I0
g127
tp684
a(I1
g129
tp685
a(I2
g225
tp686
a(I3
g135
tp687
a(I0
g127
tp688
a(I1
g129
tp689
a(I2
g225
tp690
a(I3
g135
tp691
a(I0
g127
tp692
a(I1
g133
tp693
a(I2
g225
tp694
a(I3
g129
tp695
a(I0
g127
tp696
a(I1
g133
tp697
a(I2
g225
tp698
a(I3
g129
tp699
a(I0
g127
tp700
a(I1
g127
tp701
a(I2
g225
tp702
a(I3
g129
tp703
a(I0
g127
tp704
a(I1
g127
tp705
a(I2
g225
tp706
a(I3
g129
tp707
a(I0
g127
tp708
a(I1
g133
tp709
a(I2
g225
tp710
a(I3
g133
tp711
a(I0
g127
tp712
a(I1
g133
tp713
a(I2
g225
tp714
a(I3
g133
tp715
a(I0
g127
tp716
a(I1
g133
tp717
a(I2
g225
tp718
a(I3
g129
tp719
a(I0
g127
tp720
a(I1
g133
tp721
a(I2
g225
tp722
a(I3
g129
tp723
a(I0
g127
tp724
a(I1
g129
tp725
a(I2
g225
tp726
a(I3
g129
tp727
a(I0
g127
tp728
a(I1
g129
tp729
a(I2
g225
tp730
a(I3
g127
tp731
a(I0
g127
tp732
a(I1
g133
tp733
a(I2
g225
tp734
a(I3
g127
tp735
a(I0
g127
tp736
a(I1
g129
tp737
a(I2
g225
tp738
a(I3
g127
tp739
a(I0
g127
tp740
a(I1
g129
tp741
a(I2
g225
tp742
a(I3
g135
tp743
a(I0
g127
tp744
a(I1
g133
tp745
a(I2
g225
tp746
a(I3
g135
tp747
a(I0
g127
tp748
a(I1
g129
tp749
a(I2
g225
tp750
a(I3
g127
tp751
a(I0
g133
tp752
a(I1
g129
tp753
a(I2
g225
tp754
a(I3
g127
tp755
a(I0
g133
tp756
a(I1
g129
tp757
a(I2
g225
tp758
a(I3
g127
tp759
a(I0
g127
tp760
a(I1
g129
tp761
a(I2
g225
tp762
a(I3
g129
tp763
a(I0
g133
tp764
a(I1
g135
tp765
a(I2
g225
tp766
a(I3
g129
tp767
a(I0
g133
tp768
a(I1
g135
tp769
a(I2
g225
tp770
a(I3
g129
tp771
a(I0
g129
tp772
a(I1
g129
tp773
a(I2
g225
tp774
a(I3
g133
tp775
a(I0
g129
tp776
a(I1
g129
tp777
a(I2
g225
tp778
a(I3
g133
tp779
a(I0
g129
tp780
a(I1
g129
tp781
a(I2
g127
tp782
a(I3
g127
tp783
a(I0
g133
tp784
a(I1
g129
tp785
a(I2
g133
tp786
a(I3
g127
tp787
a(I0
g133
tp788
a(I1
g129
tp789
a(I2
g133
tp790
a(I3
g133
tp791
a(I0
g133
tp792
a(I1
g133
tp793
a(I2
g127
tp794
a(I3
g133
tp795
a(I0
g127
tp796
a(I1
g133
tp797
a(I2
g127
tp798
a(I3
g133
tp799
a(I0
g127
tp800
a(I1
g133
tp801
a(I2
g127
tp802
a(I3
g133
tp803
a(I0
g127
tp804
a(I1
g127
tp805
a(I2
g127
tp806
a(I3
g129
tp807
a(I0
g135
tp808
a(I1
g127
tp809
a(I2
g127
tp810
a(I3
g129
tp811
a(I0
g135
tp812
a(I1
g127
tp813
a(I2
g127
tp814
a(I3
g133
tp815
a(I0
g135
tp816
a(I1
g135
tp817
a(I2
g127
tp818
a(I3
g133
tp819
a(I0
g127
tp820
a(I1
g135
tp821
a(I2
g127
tp822
a(I3
g129
tp823
a(I0
g127
tp824
a(I1
g135
tp825
a(I2
g127
tp826
a(I3
g129
tp827
a(I0
g135
tp828
a(I1
g127
tp829
a(I2
g127
tp830
a(I3
g129
tp831
a(I0
g135
tp832
a(I1
g127
tp833
a(I2
g127
tp834
a(I3
g129
tp835
a(I0
g225
tp836
a(I1
g135
tp837
a(I2
g133
tp838
a(I3
g129
tp839
a(I0
g133
tp840
a(I1
g133
tp841
a(I2
g133
tp842
a(I3
g129
tp843
a(I0
g127
tp844
a(I1
g133
tp845
a(I2
g127
tp846
a(I3
g135
tp847
a(I0
g133
tp848
a(I1
g133
tp849
a(I2
g127
tp850
a(I3
g135
tp851
a(I0
g127
tp852
a(I1
g127
tp853
a(I2
g127
tp854
a(I3
g129
tp855
a(I0
g127
tp856
a(I1
g127
tp857
a(I2
g133
tp858
a(I3
g129
tp859
a(I0
g127
tp860
a(I1
g225
tp861
a(I2
g127
tp862
a(I3
g129
tp863
a(I0
g127
tp864
a(I1
g129
tp865
a(I2
g133
tp866
a(I3
g129
tp867
a(I0
g127
tp868
a(I1
g129
tp869
a(I2
g225
tp870
a(I3
g129
tp871
a(I0
g127
tp872
a(I1
g127
tp873
a(I2
g133
tp874
a(I3
g133
tp875
a(I0
g127
tp876
a(I1
g127
tp877
a(I2
g127
tp878
a(I3
g133
tp879
a(I0
g127
tp880
a(I1
g127
tp881
a(I2
g133
tp882
a(I3
g133
tp883
a(I0
g127
tp884
a(I1
g127
tp885
a(I2
g127
tp886
a(I3
g127
tp887
a(I0
g127
tp888
a(I1
g127
tp889
a(I2
g127
tp890
a(I3
g127
tp891
a(I0
g127
tp892
a(I1
g127
tp893
a(I2
g127
tp894
a(I3
g133
tp895
a(I0
g127
tp896
a(I1
g135
tp897
a(I2
g127
tp898
a(I3
g133
tp899
a(I0
g127
tp900
a(I1
g135
tp901
a(I2
g127
tp902
a(I3
g127
tp903
a(I0
g127
tp904
a(I1
g127
tp905
a(I2
g127
tp906
a(I3
g133
tp907
a(I0
g127
tp908
a(I1
g127
tp909
a(I2
g127
tp910
a(I3
g133
tp911
a(I0
g127
tp912
a(I1
g135
tp913
a(I2
g127
tp914
a(I3
g127
tp915
a(I0
g127
tp916
a(I1
g135
tp917
a(I2
g127
tp918
a(I3
g127
tp919
a(I0
g133
tp920
a(I1
g135
tp921
a(I2
g127
tp922
a(I3
g127
tp923
a(I0
g133
tp924
a(I1
g135
tp925
a(I2
g127
tp926
a(I3
g127
tp927
a(I0
g127
tp928
a(I1
g129
tp929
a(I2
g127
tp930
a(I3
g133
tp931
a(I0
g133
tp932
a(I1
g129
tp933
a(I2
g127
tp934
a(I3
g135
tp935
a(I0
g133
tp936
a(I1
g129
tp937
a(I2
g127
tp938
a(I3
g127
tp939
a(I0
g127
tp940
a(I1
g129
tp941
a(I2
g127
tp942
a(I3
g127
tp943
a(I0
g127
tp944
a(I1
g129
tp945
a(I2
g133
tp946
a(I3
g127
tp947
a(I0
g133
tp948
a(I1
g127
tp949
a(I2
g133
tp950
a(I3
g127
tp951
a(I0
g133
tp952
a(I1
g127
tp953
a(I2
g133
tp954
a(I3
g127
tp955
a(I0
g133
tp956
a(I1
g127
tp957
a(I2
g133
tp958
a(I3
g127
tp959
a(I0
g133
tp960
a(I1
g127
tp961
a(I2
g127
tp962
a(I3
g127
tp963
a(I0
g135
tp964
a(I1
g127
tp965
a(I2
g127
tp966
a(I3
g127
tp967
a(I0
g135
tp968
a(I1
g133
tp969
a(I2
g225
tp970
a(I3
g135
tp971
a(I0
g127
tp972
a(I1
g133
tp973
a(I2
g225
tp974
a(I3
g135
tp975
a(I0
g127
tp976
a(I1
g133
tp977
a(I2
g225
tp978
a(I3
g135
tp979
a(I0
g127
tp980
a(I1
g133
tp981
a(I2
g225
tp982
a(I3
g135
tp983
a(I0
g127
tp984
a(I1
g129
tp985
a(I2
g225
tp986
a(I3
g135
tp987
a(I0
g129
tp988
a(I1
g129
tp989
a(I2
g225
tp990
a(I3
g135
tp991
a(I0
g129
tp992
a(I1
g133
tp993
a(I2
g225
tp994
a(I3
g135
tp995
a(I0
g129
tp996
a(I1
g129
tp997
a(I2
g225
tp998
a(I3
g135
tp999
a(I0
g129
tp1000
a(I1
g129
tp1001
a(I2
g225
tp1002
a(I3
g135
tp1003
a(I0
g135
tp1004
a(I1
g133
tp1005
a(I2
g225
tp1006
a(I3
g135
tp1007
a(I0
g135
tp1008
a(I1
g129
tp1009
a(I2
g225
tp1010
a(I3
g135
tp1011
a(I0
g129
tp1012
a(I1
g129
tp1013
a(I2
g225
tp1014
a(I3
g135
tp1015
a(I0
g129
tp1016
a(I1
g129
tp1017
a(I2
g225
tp1018
a(I3
g135
tp1019
a(I0
g135
tp1020
a(I1
g129
tp1021
a(I2
g225
tp1022
a(I3
g129
tp1023
a(I0
g135
tp1024
a(I1
g135
tp1025
a(I2
g225
tp1026
a(I3
g129
tp1027
a(I0
g129
tp1028
a(I1
g135
tp1029
a(I2
g225
tp1030
a(I3
g129
tp1031
a(I0
g135
tp1032
a(I1
g129
tp1033
a(I2
g225
tp1034
a(I3
g129
tp1035
a(I0
g135
tp1036
a(I1
g129
tp1037
a(I2
g225
tp1038
a(I3
g133
tp1039
a(I0
g129
tp1040
a(I1
g129
tp1041
a(I2
g127
tp1042
a(I3
g133
tp1043
a(I0
g129
tp1044
a(I1
g127
tp1045
a(I2
g133
tp1046
a(I3
g129
tp1047
a(I0
g129
tp1048
a(I1
g127
tp1049
a(I2
g133
tp1050
a(I3
g129
tp1051
a(I0
g127
tp1052
a(I1
g127
tp1053
a(I2
g127
tp1054
a(I3
g129
tp1055
a(I0
g127
tp1056
a(I1
g133
tp1057
a(I2
g127
tp1058
a(I3
g127
tp1059
a(I0
g127
tp1060
a(I1
g133
tp1061
a(I2
g127
tp1062
a(I3
g127
tp1063
a(I0
g133
tp1064
a(I1
g127
tp1065
a(I2
g127
tp1066
a(I3
g127
tp1067
a(I0
g133
tp1068
a(I1
g127
tp1069
a(I2
g127
tp1070
a(I3
g135
tp1071
a(I0
g127
tp1072
a(I1
g127
tp1073
a(I2
g127
tp1074
a(I3
g135
tp1075
a(I0
g133
tp1076
a(I1
g127
tp1077
a(I2
g127
tp1078
a(I3
g127
tp1079
a(I0
g133
tp1080
a(I1
g127
tp1081
a(I2
g127
tp1082
a(I3
g127
tp1083
a(I0
g127
tp1084
a(I1
g127
tp1085
a(I2
g127
tp1086
a(I3
g127
tp1087
a(I0
g127
tp1088
a(I1
g135
tp1089
a(I2
g127
tp1090
a(I3
g127
tp1091
a(I0
g135
tp1092
a(I1
g135
tp1093
a(I2
g127
tp1094
a(I3
g133
tp1095
a(I0
g135
tp1096
a(I1
g127
tp1097
a(I2
g127
tp1098
a(I3
g133
tp1099
a(I0
g133
tp1100
a(I1
g127
tp1101
a(I2
g127
tp1102
a(I3
g133
tp1103
a(I0
g133
tp1104
a(I1
g135
tp1105
a(I2
g127
tp1106
a(I3
g133
tp1107
a(I0
g133
tp1108
a(I1
g135
tp1109
a(I2
g127
tp1110
a(I3
g133
tp1111
a(I0
g133
tp1112
a(I1
g135
tp1113
a(I2
g133
tp1114
a(I3
g133
tp1115
a(I0
g127
tp1116
a(I1
g135
tp1117
a(I2
g133
tp1118
a(I3
g133
tp1119
a(I0
g127
tp1120
a(I1
g129
tp1121
a(I2
g133
tp1122
a(I3
g133
tp1123
a(I0
g135
tp1124
a(I1
g129
tp1125
a(I2
g133
tp1126
a(I3
g133
tp1127
a(I0
g133
tp1128
a(I1
g129
tp1129
a(I2
g127
tp1130
a(I3
g133
tp1131
a(I0
g127
tp1132
a(I1
g129
tp1133
a(I2
g127
tp1134
a(I3
g133
tp1135
a(I0
g127
tp1136
a(I1
g129
tp1137
a(I2
g225
tp1138
a(I3
g133
tp1139
a(I0
g127
tp1140
a(I1
g127
tp1141
a(I2
g225
tp1142
a(I3
g133
tp1143
a(I0
g127
tp1144
a(I1
g127
tp1145
a(I2
g225
tp1146
a(I3
g129
tp1147
a(I0
g135
tp1148
a(I1
g127
tp1149
a(I2
g225
tp1150
a(I3
g127
tp1151
a(I0
g129
tp1152
a(I1
g127
tp1153
a(I2
g225
tp1154
a(I3
g129
tp1155
a(I0
g129
tp1156
a(I1
g127
tp1157
a(I2
g225
tp1158
a(I3
g129
tp1159
a(I0
g133
tp1160
a(I1
g133
tp1161
a(I2
g225
tp1162
a(I3
g129
tp1163
a(I0
g129
tp1164
a(I1
g133
tp1165
a(I2
g225
tp1166
a(I3
g129
tp1167
a(I0
g129
tp1168
a(I1
g133
tp1169
a(I2
g225
tp1170
a(I3
g129
tp1171
a(I0
g129
tp1172
a(I1
g133
tp1173
a(I2
g225
tp1174
a(I3
g129
tp1175
a(I0
g129
tp1176
a(I1
g129
tp1177
a(I2
g225
tp1178
a(I3
g129
tp1179
a(I0
g135
tp1180
a(I1
g129
tp1181
a(I2
g225
tp1182
a(I3
g129
tp1183
a(I0
g135
tp1184
a(I1
g133
tp1185
a(I2
g225
tp1186
a(I3
g133
tp1187
a(I0
g129
tp1188
a(I1
g129
tp1189
a(I2
g225
tp1190
a(I3
g135
tp1191
a(I0
g129
tp1192
a(I1
g129
tp1193
a(I2
g225
tp1194
a(I3
g127
tp1195
a(I0
g135
tp1196
a(I1
g133
tp1197
a(I2
g225
tp1198
a(I3
g127
tp1199
a(I0
g135
tp1200
a(I1
g129
tp1201
a(I2
g225
tp1202
a(I3
g127
tp1203
a(I0
g129
tp1204
a(I1
g129
tp1205
a(I2
g225
tp1206
a(I3
g127
tp1207
a(I0
g135
tp1208
a(I1
g129
tp1209
a(I2
g225
tp1210
a(I3
g127
tp1211
a(I0
g135
tp1212
a(I1
g129
tp1213
a(I2
g225
tp1214
a(I3
g129
tp1215
a(I0
g129
tp1216
a(I1
g135
tp1217
a(I2
g225
tp1218
a(I3
g129
tp1219
a(I0
g129
tp1220
a(I1
g135
tp1221
a(I2
g225
tp1222
a(I3
g129
tp1223
a(I0
g129
tp1224
a(I1
g129
tp1225
a(I2
g225
tp1226
a(I3
g129
tp1227
a(I0
g127
tp1228
a(I1
g129
tp1229
a(I2
g225
tp1230
a(I3
g129
tp1231
a(I0
g133
tp1232
a(I1
g129
tp1233
a(I2
g133
tp1234
a(I3
g129
tp1235
a(I0
g135
tp1236
a(I1
g127
tp1237
a(I2
g133
tp1238
a(I3
g127
tp1239
a(I0
g127
tp1240
a(I1
g127
tp1241
a(I2
g127
tp1242
a(I3
g127
tp1243
a(I0
g127
tp1244
a(I1
g127
tp1245
a(I2
g127
tp1246
a(I3
g127
tp1247
a(I0
g133
tp1248
a(I1
g133
tp1249
a(I2
g127
tp1250
a(I3
g127
tp1251
a(I0
g133
tp1252
a(I1
g133
tp1253
a(I2
g127
tp1254
a(I3
g127
tp1255
a(I0
g127
tp1256
a(I1
g127
tp1257
a(I2
g127
tp1258
a(I3
g127
tp1259
a(I0
g133
tp1260
a(I1
g127
tp1261
a(I2
g127
tp1262
a(I3
g127
tp1263
a(I0
g133
tp1264
a(I1
g127
tp1265
a(I2
g127
tp1266
a(I3
g127
tp1267
a(I0
g127
tp1268
a(I1
g127
tp1269
a(I2
g127
tp1270
a(I3
g127
tp1271
a(I0
g127
tp1272
a(I1
g127
tp1273
a(I2
g127
tp1274
a(I3
g135
tp1275
a(I0
g133
tp1276
a(I1
g127
tp1277
a(I2
g127
tp1278
a(I3
g135
tp1279
a(I0
g133
tp1280
a(I1
g135
tp1281
a(I2
g127
tp1282
a(I3
g135
tp1283
a(I0
g133
tp1284
a(I1
g135
tp1285
a(I2
g127
tp1286
a(I3
g135
tp1287
a(I0
g133
tp1288
a(I1
g127
tp1289
a(I2
g127
tp1290
a(I3
g135
tp1291
a(I0
g133
tp1292
a(I1
g127
tp1293
a(I2
g127
tp1294
a(I3
g135
tp1295
a(I0
g135
tp1296
a(I1
g135
tp1297
a(I2
g127
tp1298
a(I3
g135
tp1299
a(I0
g135
tp1300
a(I1
g135
tp1301
a(I2
g127
tp1302
a(I3
g135
tp1303
a(I0
g135
tp1304
a(I1
g135
tp1305
a(I2
g133
tp1306
a(I3
g135
tp1307
a(I0
g127
tp1308
a(I1
g135
tp1309
a(I2
g133
tp1310
a(I3
g135
tp1311
a(I0
g127
tp1312
a(I1
g129
tp1313
a(I2
g133
tp1314
a(I3
g135
tp1315
a(I0
g135
tp1316
a(I1
g129
tp1317
a(I2
g133
tp1318
a(I3
g135
tp1319
a(I0
g135
tp1320
a(I1
g129
tp1321
a(I2
g127
tp1322
a(I3
g135
tp1323
a(I0
g127
tp1324
a(I1
g129
tp1325
a(I2
g127
tp1326
a(I3
g129
tp1327
a(I0
g129
tp1328
a(I1
g129
tp1329
a(I2
g225
tp1330
a(I3
g129
tp1331
asS'length'
p1332
I1200
sS'agents'
p1333
(lp1334
(igame
Agent
p1335
(dp1336
S'index'
p1337
I0
sba(igame
Agent
p1338
(dp1339
g1337
I0
sba(igame
Agent
p1340
(dp1341
g1337
I0
sba(igame
Agent
p1342
(dp1343
g1337
I0
sbasS'redTeamName'
p1344
S'Red'
p1345
s.