(dp1
S'layout'
p2
(ilayout
Layout
p3
(dp4
S'capsules'
p5
(lp6
(I26
I7
tp7
a(I10
I8
tp8
a(I23
I9
tp9
a(I7
I10
tp10
asS'numGhosts'
p11
I4
sS'food'
p12
(igame
Grid
p13
(dp14
S'CELLS_PER_INT'
p15
I30
sS'width'
p16
I34
sS'data'
p17
(lp18
(lp19
I00
aI00
aI00
aI00
aI00
aI00
aI00
aI00
aI00
aI00
aI00
aI00
aI00
aI00
aI00
aI00
aI00
aI00
aa(lp20
I00
aI00
aI00
aI00
aI00
aI00
aI00
aI00
aI00
aI00
aI00
aI00
aI00
aI00
aI00
aI00
aI00
aI00
aa(lp21
I00
aI00
aI00
aI00
aI00
aI00
aI00
aI00
aI00
aI00
aI00
aI00
aI00
aI00
aI00
aI00
aI00
aI00
aa(lp22
I00
aI00
aI00
aI00
aI00
aI00
aI00
aI00
aI00
aI00
aI00
aI00
aI00
aI00
aI00
aI00
aI00
aI00
aa(lp23
I00
aI00
aI00
aI00
aI00
aI00
aI00
aI00
aI00
aI00
aI00
aI00
aI00
aI00
aI00
aI00
aI00
aI00
aa(lp24
I00
aI00
aI00
aI00
aI00
aI00
aI01
aI00
aI00
aI01
aI00
aI00
aI01
aI00
aI00
aI01
aI01
aI00
aa(lp25
I00
aI00
aI00
aI00
aI00
aI00
aI00
aI00
aI00
aI00
aI00
aI00
aI00
aI00
aI00
aI00
aI00
aI00
aa(lp26
I00
aI01
aI00
aI00
aI00
aI00
aI00
aI00
aI00
aI00
aI00
aI01
aI00
aI00
aI01
aI00
aI01
aI00
aa(lp27
I00
aI00
aI00
aI00
aI00
aI00
aI01
aI00
aI00
aI00
aI00
aI00
aI00
aI00
aI00
aI00
aI00
aI00
aa(lp28
I00
aI01
aI00
aI01
aI00
aI00
aI00
aI00
aI00
aI00
aI00
aI00
aI00
aI00
aI00
aI00
aI01
aI00
aa(lp29
I00
aI00
aI00
aI00
aI01
aI00
aI01
aI00
aI00
aI00
aI01
aI00
aI00
aI00
aI00
aI00
aI00
aI00
aa(lp30
I00
aI01
aI00
aI01
aI00
aI00
aI00
aI01
aI01
aI00
aI00
aI00
aI00
aI00
aI00
aI00
aI01
aI00
aa(lp31
I00
aI00
aI00
aI00
aI00
aI00
aI00
aI00
aI00
aI00
aI00
aI00
aI00
aI00
aI00
aI00
aI00
aI00
aa(lp32
I00
aI01
aI00
aI00
aI00
aI00
aI00
aI01
aI00
aI00
aI01
aI00
aI00
aI00
aI01
aI01
aI01
aI00
aa(lp33
I00
aI00
aI00
aI00
aI00
aI01
aI00
aI01
aI00
aI00
aI00
aI00
aI01
aI00
aI00
aI00
aI00
aI00
aa(lp34
I00
aI00
aI00
aI00
aI00
aI00
aI00
aI00
aI00
aI00
aI00
aI00
aI00
aI00
aI00
aI00
aI00
aI00
aa(lp35
I00
aI00
aI00
aI00
aI00
aI00
aI00
aI00
aI00
aI00
aI00
aI00
aI00
aI00
aI00
aI00
aI00
aI00
aa(lp36
I00
aI00
aI00
aI00
aI00
aI00
aI00
aI00
aI00
aI00
aI00
aI00
aI00
aI00
aI00
aI00
aI00
aI00
aa(lp37
I00
aI00
aI00
aI00
aI00
aI00
aI00
aI00
aI00
aI00
aI00
aI00
aI00
aI00
aI00
aI00
aI00
aI00
aa(lp38
I00
aI00
aI00
aI00
aI00
aI01
aI00
aI00
aI00
aI00
aI01
aI00
aI01
aI00
aI00
aI00
aI00
aI00
aa(lp39
I00
aI01
aI01
aI01
aI00
aI00
aI00
aI01
aI00
aI00
aI01
aI00
aI00
aI00
aI00
aI00
aI01
aI00
aa(lp40
I00
aI00
aI00
aI00
aI00
aI00
aI00
aI00
aI00
aI00
aI00
aI00
aI00
aI00
aI00
aI00
aI00
aI00
aa(lp41
I00
aI01
aI00
aI00
aI00
aI00
aI00
aI00
aI00
aI01
aI01
aI00
aI00
aI00
aI01
aI00
aI01
aI00
aa(lp42
I00
aI00
aI00
aI00
aI00
aI00
aI00
aI01
aI00
aI00
aI00
aI01
aI00
aI01
aI00
aI00
aI00
aI00
aa(lp43
I00
aI01
aI00
aI00
aI00
aI00
aI00
aI00
aI00
aI00
aI00
aI00
aI00
aI00
aI01
aI00
aI01
aI00
aa(lp44
I00
aI00
aI00
aI00
aI00
aI00
aI00
aI00
aI00
aI00
aI00
aI01
aI00
aI00
aI00
aI00
aI00
aI00
aa(lp45
I00
aI01
aI00
aI01
aI00
aI00
aI01
aI00
aI00
aI00
aI00
aI00
aI00
aI00
aI00
aI00
aI01
aI00
aa(lp46
I00
aI00
aI00
aI00
aI00
aI00
aI00
aI00
aI00
aI00
aI00
aI00
aI00
aI00
aI00
aI00
aI00
aI00
aa(lp47
I00
aI01
aI01
aI00
aI00
aI01
aI00
aI00
aI01
aI00
aI00
aI01
aI00
aI00
aI00
aI00
aI00
aI00
aa(lp48
I00
aI00
aI00
aI00
aI00
aI00
aI00
aI00
aI00
aI00
aI00
aI00
aI00
aI00
aI00
aI00
aI00
aI00
aa(lp49
I00
aI00
aI00
aI00
aI00
aI00
aI00
aI00
aI00
aI00
aI00
aI00
aI00
aI00
aI00
aI00
aI00
aI00
aa(lp50
I00
aI00
aI00
aI00
aI00
aI00
aI00
aI00
aI00
aI00
aI00
aI00
aI00
aI00
aI00
aI00
aI00
aI00
aa(lp51
I00
aI00
aI00
aI00
aI00
aI00
aI00
aI00
aI00
aI00
aI00
aI00
aI00
aI00
aI00
aI00
aI00
aI00
aa(lp52
I00
aI00
aI00
aI00
aI00
aI00
aI00
aI00
aI00
aI00
aI00
aI00
aI00
aI00
aI00
aI00
aI00
aI00
aasS'height'
p53
I18
sbsS'agentPositions'
p54
(lp55
(I00
(I1
I2
tp56
tp57
a(I00
(I32
I15
tp58
tp59
a(I00
(I1
I1
tp60
tp61
a(I00
(I32
I16
tp62
tp63
asg53
I18
sg16
I34
sS'walls'
p64
(igame
Grid
p65
(dp66
g15
I30
sg16
I34
sg17
(lp67
(lp68
I01
aI01
aI01
aI01
aI01
aI01
aI01
aI01
aI01
aI01
aI01
aI01
aI01
aI01
aI01
aI01
aI01
aI01
aa(lp69
I01
aI00
aI00
aI00
aI00
aI00
aI00
aI00
aI00
aI00
aI00
aI00
aI00
aI00
aI00
aI00
aI00
aI01
aa(lp70
I01
aI01
aI01
aI01
aI01
aI01
aI01
aI01
aI01
aI01
aI01
aI01
aI01
aI01
aI01
aI01
aI00
aI01
aa(lp71
I01
aI00
aI00
aI00
aI00
aI00
aI00
aI00
aI00
aI00
aI00
aI00
aI00
aI00
aI00
aI00
aI00
aI01
aa(lp72
I01
aI00
aI01
aI01
aI01
aI01
aI01
aI01
aI01
aI01
aI01
aI01
aI01
aI01
aI01
aI01
aI01
aI01
aa(lp73
I01
aI00
aI00
aI00
aI00
aI00
aI00
aI00
aI00
aI00
aI00
aI00
aI00
aI00
aI00
aI00
aI00
aI01
aa(lp74
I01
aI01
aI00
aI01
aI01
aI00
aI00
aI00
aI01
aI01
aI01
aI01
aI01
aI01
aI00
aI01
aI01
aI01
aa(lp75
I01
aI00
aI00
aI00
aI00
aI00
aI00
aI00
aI00
aI00
aI00
aI00
aI00
aI00
aI00
aI00
aI00
aI01
aa(lp76
I01
aI01
aI01
aI00
aI01
aI01
aI00
aI01
aI01
aI01
aI01
aI01
aI01
aI01
aI01
aI00
aI01
aI01
aa(lp77
I01
aI00
aI00
aI00
aI01
aI00
aI00
aI00
aI00
aI01
aI00
aI00
aI00
aI00
aI00
aI00
aI00
aI01
aa(lp78
I01
aI01
aI00
aI00
aI00
aI00
aI00
aI00
aI00
aI00
aI00
aI01
aI01
aI01
aI01
aI00
aI01
aI01
aa(lp79
I01
aI00
aI00
aI00
aI01
aI00
aI01
aI00
aI00
aI01
aI00
aI00
aI00
aI00
aI00
aI00
aI00
aI01
aa(lp80
I01
aI01
aI01
aI01
aI01
aI00
aI01
aI01
aI00
aI01
aI01
aI01
aI01
aI01
aI01
aI01
aI01
aI01
aa(lp81
I01
aI00
aI00
aI01
aI00
aI00
aI01
aI00
aI00
aI00
aI00
aI00
aI00
aI00
aI00
aI00
aI00
aI01
aa(lp82
I01
aI00
aI00
aI00
aI00
aI00
aI01
aI00
aI01
aI01
aI01
aI01
aI00
aI01
aI01
aI01
aI01
aI01
aa(lp83
I01
aI00
aI00
aI01
aI00
aI00
aI00
aI00
aI00
aI00
aI00
aI00
aI00
aI00
aI00
aI00
aI00
aI01
aa(lp84
I01
aI00
aI00
aI01
aI00
aI00
aI01
aI00
aI01
aI00
aI00
aI01
aI00
aI01
aI00
aI01
aI00
aI01
aa(lp85
I01
aI00
aI01
aI00
aI01
aI00
aI01
aI00
aI00
aI01
aI00
aI01
aI00
aI00
aI01
aI00
aI00
aI01
aa(lp86
I01
aI00
aI00
aI00
aI00
aI00
aI00
aI00
aI00
aI00
aI00
aI00
aI00
aI00
aI01
aI00
aI00
aI01
aa(lp87
I01
aI01
aI01
aI01
aI01
aI00
aI01
aI01
aI01
aI01
aI00
aI01
aI00
aI00
aI00
aI00
aI00
aI01
aa(lp88
I01
aI00
aI00
aI00
aI00
aI00
aI00
aI00
aI00
aI00
aI00
aI01
aI00
aI00
aI01
aI00
aI00
aI01
aa(lp89
I01
aI01
aI01
aI01
aI01
aI01
aI01
aI01
aI01
aI00
aI01
aI01
aI00
aI01
aI01
aI01
aI01
aI01
aa(lp90
I01
aI00
aI00
aI00
aI00
aI00
aI00
aI00
aI01
aI00
aI00
aI01
aI00
aI01
aI00
aI00
aI00
aI01
aa(lp91
I01
aI01
aI00
aI01
aI01
aI01
aI01
aI00
aI00
aI00
aI00
aI00
aI00
aI00
aI00
aI00
aI01
aI01
aa(lp92
I01
aI00
aI00
aI00
aI00
aI00
aI00
aI00
aI01
aI00
aI00
aI00
aI00
aI01
aI00
aI00
aI00
aI01
aa(lp93
I01
aI01
aI00
aI01
aI01
aI01
aI01
aI01
aI01
aI01
aI01
aI00
aI01
aI01
aI00
aI01
aI01
aI01
aa(lp94
I01
aI00
aI00
aI00
aI00
aI00
aI00
aI00
aI00
aI00
aI00
aI00
aI00
aI00
aI00
aI00
aI00
aI01
aa(lp95
I01
aI01
aI01
aI00
aI01
aI01
aI01
aI01
aI01
aI01
aI00
aI00
aI00
aI01
aI01
aI00
aI01
aI01
aa(lp96
I01
aI00
aI00
aI00
aI00
aI00
aI00
aI00
aI00
aI00
aI00
aI00
aI00
aI00
aI00
aI00
aI00
aI01
aa(lp97
I01
aI01
aI01
aI01
aI01
aI01
aI01
aI01
aI01
aI01
aI01
aI01
aI01
aI01
aI01
aI01
aI00
aI01
aa(lp98
I01
aI00
aI00
aI00
aI00
aI00
aI00
aI00
aI00
aI00
aI00
aI00
aI00
aI00
aI00
aI00
aI00
aI01
aa(lp99
I01
aI00
aI01
aI01
aI01
aI01
aI01
aI01
aI01
aI01
aI01
aI01
aI01
aI01
aI01
aI01
aI01
aI01
aa(lp100
I01
aI00
aI00
aI00
aI00
aI00
aI00
aI00
aI00
aI00
aI00
aI00
aI00
aI00
aI00
aI00
aI00
aI01
aa(lp101
I01
aI01
aI01
aI01
aI01
aI01
aI01
aI01
aI01
aI01
aI01
aI01
aI01
aI01
aI01
aI01
aI01
aI01
aasg53
I18
sbsS'totalFood'
p102
I60
sS'layoutText'
p103
(lp104
S'%%%%%%%%%%%%%%%%%%%%%%%%%%%%%%%%%%'
p105
aS'%   %.%.%.%.%.%     .%.%.%.%   %4%'
p106
aS'% % %.%     %.% %    %   %   % %2%'
p107
aS'% % %  .% % %.%  %% %%. .  % % % %'
p108
aS'% % % % % % % % %    %%.%% % % % %'
p109
aS'% % %.% % % % .    .     %   % % %'
p110
aS'% % % %.% % % % %% %%%%. .  .% % %'
p111
aS'% % % %o% . %.%    ..%.  %   % % %'
p112
aS'% % %.% %% %% %  % %  .o % % % % %'
p113
aS'% % % % % o.  % %  % %% %% %.% % %'
p114
aS'% % %   %  .%..    %.% . %o% % % %'
p115
aS'% % %.  . .%%%% %% % % % %.% % % %'
p116
aS'% % %   %     .    . % % % %.% % %'
p117
aS'% % % % %%.%%    % % % % % % % % %'
p118
aS'% % % %  . .%% %%  %.% % %.  % % %'
p119
aS'%1% %   %   %    % %.%     %.% % %'
p120
aS'%3%   %.%.%.%.     %.%.%.%.%.%   %'
p121
aS'%%%%%%%%%%%%%%%%%%%%%%%%%%%%%%%%%%'
p122
asbsS'blueTeamName'
p123
S'Blue'
p124
sS'actions'
p125
(lp126
(I0
S'North'
p127
tp128
a(I1
S'South'
p129
tp130
a(I2
g127
tp131
a(I3
g129
tp132
a(I0
g127
tp133
a(I1
g129
tp134
a(I2
g127
tp135
a(I3
g129
tp136
a(I0
g127
tp137
a(I1
g129
tp138
a(I2
g127
tp139
a(I3
g129
tp140
a(I0
g127
tp141
a(I1
g129
tp142
a(I2
g127
tp143
a(I3
g129
tp144
a(I0
g127
tp145
a(I1
g129
tp146
a(I2
g127
tp147
a(I3
g129
tp148
a(I0
g127
tp149
a(I1
g129
tp150
a(I2
g127
tp151
a(I3
g129
tp152
a(I0
g127
tp153
a(I1
g129
tp154
a(I2
g127
tp155
a(I3
g129
tp156
a(I0
g127
tp157
a(I1
g129
tp158
a(I2
g127
tp159
a(I3
g129
tp160
a(I0
g127
tp161
a(I1
g129
tp162
a(I2
g127
tp163
a(I3
g129
tp164
a(I0
g127
tp165
a(I1
g129
tp166
a(I2
g127
tp167
a(I3
g129
tp168
a(I0
g127
tp169
a(I1
g129
tp170
a(I2
g127
tp171
a(I3
g129
tp172
a(I0
g127
tp173
a(I1
g129
tp174
a(I2
g127
tp175
a(I3
g129
tp176
a(I0
g127
tp177
a(I1
g129
tp178
a(I2
g127
tp179
a(I3
g129
tp180
a(I0
g127
tp181
a(I1
g129
tp182
a(I2
g127
tp183
a(I3
g129
tp184
a(I0
S'East'
p185
tp186
a(I1
S'West'
p187
tp188
a(I2
g127
tp189
a(I3
g129
tp190
a(I0
g185
tp191
a(I1
g187
tp192
a(I2
g185
tp193
a(I3
g187
tp194
a(I0
g129
tp195
a(I1
g127
tp196
a(I2
g185
tp197
a(I3
g187
tp198
a(I0
g129
tp199
a(I1
g127
tp200
a(I2
g129
tp201
a(I3
g127
tp202
a(I0
g129
tp203
a(I1
g127
tp204
a(I2
g129
tp205
a(I3
g127
tp206
a(I0
g129
tp207
a(I1
g127
tp208
a(I2
g129
tp209
a(I3
g127
tp210
a(I0
g129
tp211
a(I1
g127
tp212
a(I2
g129
tp213
a(I3
g127
tp214
a(I0
g129
tp215
a(I1
g127
tp216
a(I2
g129
tp217
a(I3
g127
tp218
a(I0
g129
tp219
a(I1
g127
tp220
a(I2
g129
tp221
a(I3
g127
tp222
a(I0
g129
tp223
a(I1
g127
tp224
a(I2
g129
tp225
a(I3
g127
tp226
a(I0
g129
tp227
a(I1
g127
tp228
a(I2
g129
tp229
a(I3
g127
tp230
a(I0
g129
tp231
a(I1
g127
tp232
a(I2
g129
tp233
a(I3
g127
tp234
a(I0
g129
tp235
a(I1
g127
tp236
a(I2
g129
tp237
a(I3
g127
tp238
a(I0
g129
tp239
a(I1
g127
tp240
a(I2
g129
tp241
a(I3
g127
tp242
a(I0
g129
tp243
a(I1
g127
tp244
a(I2
g129
tp245
a(I3
g127
tp246
a(I0
g129
tp247
a(I1
g127
tp248
a(I2
g129
tp249
a(I3
g127
tp250
a(I0
g129
tp251
a(I1
g127
tp252
a(I2
g129
tp253
a(I3
g127
tp254
a(I0
g185
tp255
a(I1
g187
tp256
a(I2
g129
tp257
a(I3
g127
tp258
a(I0
g185
tp259
a(I1
g187
tp260
a(I2
g185
tp261
a(I3
g187
tp262
a(I0
g127
tp263
a(I1
g129
tp264
a(I2
g185
tp265
a(I3
g187
tp266
a(I0
g185
tp267
a(I1
g187
tp268
a(I2
g127
tp269
a(I3
g129
tp270
a(I0
g185
tp271
a(I1
g187
tp272
a(I2
g185
tp273
a(I3
g187
tp274
a(I0
g127
tp275
a(I1
g129
tp276
a(I2
g185
tp277
a(I3
g187
tp278
a(I0
g185
tp279
a(I1
g187
tp280
a(I2
g127
tp281
a(I3
g129
tp282
a(I0
g185
tp283
a(I1
g187
tp284
a(I2
g185
tp285
a(I3
g187
tp286
a(I0
g185
tp287
a(I1
g187
tp288
a(I2
g185
tp289
a(I3
g187
tp290
a(I0
g127
tp291
a(I1
g129
tp292
a(I2
g185
tp293
a(I3
g187
tp294
a(I0
g127
tp295
a(I1
g129
tp296
a(I2
g127
tp297
a(I3
g129
tp298
a(I0
g185
tp299
a(I1
g187
tp300
a(I2
g127
tp301
a(I3
g129
tp302
a(I0
g185
tp303
a(I1
g187
tp304
a(I2
g185
tp305
a(I3
g187
tp306
a(I0
g185
tp307
a(I1
g187
tp308
a(I2
g185
tp309
a(I3
g187
tp310
a(I0
g185
tp311
a(I1
g187
tp312
a(I2
g185
tp313
a(I3
g187
tp314
a(I0
g185
tp315
a(I1
g187
tp316
a(I2
g185
tp317
a(I3
g187
tp318
a(I0
g185
tp319
a(I1
g187
tp320
a(I2
g185
tp321
a(I3
g187
tp322
a(I0
g185
tp323
a(I1
g187
tp324
a(I2
g185
tp325
a(I3
g187
tp326
a(I0
g185
tp327
a(I1
g187
tp328
a(I2
g185
tp329
a(I3
g127
tp330
a(I0
g185
tp331
a(I1
g187
tp332
a(I2
g185
tp333
a(I3
g185
tp334
a(I0
g185
tp335
a(I1
g187
tp336
a(I2
g185
tp337
a(I3
g129
tp338
a(I0
g127
tp339
a(I1
g127
tp340
a(I2
g185
tp341
a(I3
g187
tp342
a(I0
g127
tp343
a(I1
g127
tp344
a(I2
g127
tp345
a(I3
g127
tp346
a(I0
g127
tp347
a(I1
g127
tp348
a(I2
g127
tp349
a(I3
g185
tp350
a(I0
g127
tp351
a(I1
g127
tp352
a(I2
g127
tp353
a(I3
g129
tp354
a(I0
g129
tp355
a(I1
g129
tp356
a(I2
g127
tp357
a(I3
g129
tp358
a(I0
g129
tp359
a(I1
g129
tp360
a(I2
g185
tp361
a(I3
g129
tp362
a(I0
g129
tp363
a(I1
g129
tp364
a(I2
S'Stop'
p365
tp366
a(I3
g185
tp367
a(I0
g129
tp368
a(I1
g129
tp369
a(I2
g365
tp370
a(I3
g185
tp371
a(I0
g187
tp372
a(I1
g129
tp373
a(I2
g365
tp374
a(I3
g129
tp375
a(I0
g187
tp376
a(I1
g129
tp377
a(I2
g365
tp378
a(I3
g185
tp379
a(I0
g187
tp380
a(I1
g129
tp381
a(I2
g127
tp382
a(I3
g185
tp383
a(I0
g187
tp384
a(I1
g129
tp385
a(I2
g127
tp386
a(I3
g185
tp387
a(I0
g185
tp388
a(I1
g129
tp389
a(I2
g127
tp390
a(I3
g127
tp391
a(I0
g185
tp392
a(I1
g185
tp393
a(I2
g127
tp394
a(I3
g187
tp395
a(I0
g185
tp396
a(I1
g185
tp397
a(I2
g127
tp398
a(I3
g129
tp399
a(I0
g185
tp400
a(I1
g129
tp401
a(I2
g127
tp402
a(I3
g187
tp403
a(I0
g129
tp404
a(I1
g129
tp405
a(I2
g127
tp406
a(I3
g187
tp407
a(I0
g129
tp408
a(I1
g187
tp409
a(I2
g127
tp410
a(I3
g127
tp411
a(I0
g129
tp412
a(I1
g185
tp413
a(I2
g127
tp414
a(I3
g187
tp415
a(I0
g129
tp416
a(I1
g185
tp417
a(I2
g127
tp418
a(I3
g187
tp419
a(I0
g127
tp420
a(I1
g185
tp421
a(I2
g127
tp422
a(I3
g187
tp423
a(I0
g127
tp424
a(I1
g187
tp425
a(I2
g127
tp426
a(I3
g185
tp427
a(I0
g365
tp428
a(I1
g187
tp429
a(I2
g127
tp430
a(I3
g127
tp431
a(I0
g365
tp432
a(I1
g187
tp433
a(I2
g127
tp434
a(I3
g127
tp435
a(I0
g127
tp436
a(I1
g187
tp437
a(I2
g127
tp438
a(I3
g187
tp439
a(I0
g127
tp440
a(I1
g187
tp441
a(I2
g185
tp442
a(I3
g127
tp443
a(I0
g187
tp444
a(I1
g187
tp445
a(I2
g185
tp446
a(I3
g185
tp447
a(I0
g187
tp448
a(I1
g187
tp449
a(I2
g129
tp450
a(I3
g129
tp451
a(I0
g187
tp452
a(I1
g127
tp453
a(I2
g129
tp454
a(I3
g187
tp455
a(I0
g187
tp456
a(I1
g187
tp457
a(I2
g129
tp458
a(I3
g127
tp459
a(I0
g185
tp460
a(I1
g187
tp461
a(I2
g129
tp462
a(I3
g185
tp463
a(I0
g185
tp464
a(I1
g187
tp465
a(I2
g129
tp466
a(I3
g129
tp467
a(I0
g127
tp468
a(I1
g187
tp469
a(I2
g129
tp470
a(I3
g187
tp471
a(I0
g127
tp472
a(I1
g187
tp473
a(I2
g129
tp474
a(I3
g127
tp475
a(I0
g127
tp476
a(I1
g127
tp477
a(I2
g129
tp478
a(I3
g185
tp479
a(I0
g127
tp480
a(I1
g127
tp481
a(I2
g129
tp482
a(I3
g129
tp483
a(I0
g127
tp484
a(I1
g127
tp485
a(I2
g129
tp486
a(I3
g129
tp487
a(I0
g185
tp488
a(I1
g127
tp489
a(I2
g129
tp490
a(I3
g129
tp491
a(I0
g185
tp492
a(I1
g127
tp493
a(I2
g129
tp494
a(I3
g185
tp495
a(I0
g187
tp496
a(I1
g127
tp497
a(I2
g129
tp498
a(I3
g185
tp499
a(I0
g127
tp500
a(I1
g127
tp501
a(I2
g129
tp502
a(I3
g129
tp503
a(I0
g127
tp504
a(I1
g127
tp505
a(I2
g129
tp506
a(I3
g185
tp507
a(I0
g127
tp508
a(I1
g127
tp509
a(I2
g185
tp510
a(I3
g185
tp511
a(I0
g127
tp512
a(I1
g127
tp513
a(I2
g185
tp514
a(I3
g185
tp515
a(I0
g127
tp516
a(I1
g129
tp517
a(I2
g127
tp518
a(I3
g185
tp519
a(I0
g127
tp520
a(I1
g129
tp521
a(I2
g185
tp522
a(I3
g127
tp523
a(I0
g127
tp524
a(I1
g185
tp525
a(I2
g185
tp526
a(I3
g187
tp527
a(I0
g127
tp528
a(I1
g185
tp529
a(I2
g127
tp530
a(I3
g129
tp531
a(I0
g127
tp532
a(I1
g127
tp533
a(I2
g185
tp534
a(I3
g187
tp535
a(I0
g127
tp536
a(I1
g127
tp537
a(I2
g185
tp538
a(I3
g187
tp539
a(I0
g127
tp540
a(I1
g129
tp541
a(I2
g185
tp542
a(I3
g187
tp543
a(I0
g127
tp544
a(I1
g185
tp545
a(I2
g127
tp546
a(I3
g127
tp547
a(I0
g127
tp548
a(I1
g185
tp549
a(I2
g127
tp550
a(I3
g187
tp551
a(I0
g127
tp552
a(I1
g127
tp553
a(I2
g185
tp554
a(I3
g187
tp555
a(I0
g185
tp556
a(I1
g129
tp557
a(I2
g185
tp558
a(I3
g187
tp559
a(I0
g185
tp560
a(I1
g185
tp561
a(I2
g185
tp562
a(I3
g185
tp563
a(I0
g129
tp564
a(I1
g185
tp565
a(I2
g185
tp566
a(I3
g127
tp567
a(I0
g129
tp568
a(I1
g127
tp569
a(I2
g185
tp570
a(I3
g127
tp571
a(I0
g129
tp572
a(I1
g129
tp573
a(I2
g185
tp574
a(I3
g187
tp575
a(I0
g129
tp576
a(I1
g129
tp577
a(I2
g185
tp578
a(I3
g127
tp579
a(I0
g129
tp580
a(I1
g129
tp581
a(I2
g185
tp582
a(I3
g185
tp583
a(I0
g129
tp584
a(I1
g129
tp585
a(I2
g185
tp586
a(I3
g129
tp587
a(I0
g129
tp588
a(I1
g129
tp589
a(I2
g185
tp590
a(I3
g187
tp591
a(I0
g129
tp592
a(I1
g129
tp593
a(I2
g127
tp594
a(I3
g127
tp595
a(I0
g129
tp596
a(I1
g187
tp597
a(I2
g127
tp598
a(I3
g185
tp599
a(I0
g129
tp600
a(I1
g129
tp601
a(I2
g127
tp602
a(I3
g129
tp603
a(I0
g129
tp604
a(I1
g129
tp605
a(I2
g127
tp606
a(I3
g129
tp607
a(I0
g129
tp608
a(I1
g185
tp609
a(I2
g185
tp610
a(I3
g129
tp611
a(I0
g129
tp612
a(I1
g129
tp613
a(I2
g365
tp614
a(I3
g185
tp615
a(I0
g129
tp616
a(I1
g127
tp617
a(I2
g365
tp618
a(I3
g185
tp619
a(I0
g129
tp620
a(I1
g185
tp621
a(I2
g365
tp622
a(I3
g129
tp623
a(I0
g185
tp624
a(I1
g185
tp625
a(I2
g365
tp626
a(I3
g185
tp627
a(I0
g185
tp628
a(I1
g129
tp629
a(I2
g127
tp630
a(I3
g185
tp631
a(I0
g127
tp632
a(I1
g185
tp633
a(I2
g127
tp634
a(I3
g185
tp635
a(I0
g185
tp636
a(I1
g185
tp637
a(I2
g127
tp638
a(I3
g127
tp639
a(I0
g185
tp640
a(I1
g185
tp641
a(I2
g127
tp642
a(I3
g127
tp643
a(I0
g127
tp644
a(I1
g185
tp645
a(I2
g127
tp646
a(I3
g127
tp647
a(I0
g185
tp648
a(I1
g187
tp649
a(I2
g127
tp650
a(I3
g187
tp651
a(I0
g185
tp652
a(I1
g187
tp653
a(I2
g127
tp654
a(I3
g187
tp655
a(I0
g185
tp656
a(I1
g129
tp657
a(I2
g127
tp658
a(I3
g187
tp659
a(I0
g127
tp660
a(I1
g129
tp661
a(I2
g127
tp662
a(I3
g187
tp663
a(I0
g127
tp664
a(I1
g129
tp665
a(I2
g127
tp666
a(I3
g187
tp667
a(I0
g185
tp668
a(I1
g185
tp669
a(I2
g127
tp670
a(I3
g187
tp671
a(I0
g185
tp672
a(I1
g187
tp673
a(I2
g127
tp674
a(I3
g127
tp675
a(I0
g185
tp676
a(I1
g185
tp677
a(I2
g127
tp678
a(I3
g185
tp679
a(I0
g185
tp680
a(I1
g187
tp681
a(I2
g127
tp682
a(I3
g129
tp683
a(I0
g185
tp684
a(I1
g127
tp685
a(I2
g127
tp686
a(I3
g187
tp687
a(I0
g127
tp688
a(I1
g187
tp689
a(I2
g185
tp690
a(I3
g127
tp691
a(I0
g127
tp692
a(I1
g187
tp693
a(I2
g185
tp694
a(I3
g185
tp695
a(I0
g127
tp696
a(I1
g187
tp697
a(I2
g129
tp698
a(I3
g129
tp699
a(I0
g127
tp700
a(I1
g187
tp701
a(I2
g129
tp702
a(I3
g187
tp703
a(I0
g127
tp704
a(I1
g187
tp705
a(I2
g129
tp706
a(I3
g127
tp707
a(I0
g127
tp708
a(I1
g129
tp709
a(I2
g129
tp710
a(I3
g185
tp711
a(I0
g127
tp712
a(I1
g129
tp713
a(I2
g129
tp714
a(I3
g129
tp715
a(I0
g127
tp716
a(I1
g187
tp717
a(I2
g129
tp718
a(I3
g187
tp719
a(I0
g127
tp720
a(I1
g185
tp721
a(I2
g129
tp722
a(I3
g127
tp723
a(I0
g127
tp724
a(I1
g185
tp725
a(I2
g129
tp726
a(I3
g185
tp727
a(I0
g127
tp728
a(I1
g129
tp729
a(I2
g129
tp730
a(I3
g129
tp731
a(I0
g127
tp732
a(I1
g129
tp733
a(I2
g129
tp734
a(I3
g187
tp735
a(I0
g127
tp736
a(I1
g127
tp737
a(I2
g129
tp738
a(I3
g127
tp739
a(I0
g127
tp740
a(I1
g187
tp741
a(I2
g129
tp742
a(I3
g185
tp743
a(I0
g185
tp744
a(I1
g187
tp745
a(I2
g129
tp746
a(I3
g129
tp747
a(I0
g185
tp748
a(I1
g129
tp749
a(I2
g129
tp750
a(I3
g187
tp751
a(I0
g129
tp752
a(I1
g127
tp753
a(I2
g129
tp754
a(I3
g127
tp755
a(I0
g129
tp756
a(I1
g127
tp757
a(I2
g185
tp758
a(I3
g185
tp759
a(I0
g129
tp760
a(I1
g185
tp761
a(I2
g185
tp762
a(I3
g129
tp763
a(I0
g129
tp764
a(I1
g127
tp765
a(I2
g127
tp766
a(I3
g187
tp767
a(I0
g129
tp768
a(I1
g127
tp769
a(I2
g185
tp770
a(I3
g127
tp771
a(I0
g129
tp772
a(I1
g185
tp773
a(I2
g185
tp774
a(I3
g185
tp775
a(I0
g129
tp776
a(I1
g185
tp777
a(I2
g127
tp778
a(I3
g129
tp779
a(I0
g129
tp780
a(I1
g185
tp781
a(I2
g185
tp782
a(I3
g187
tp783
a(I0
g129
tp784
a(I1
g185
tp785
a(I2
g185
tp786
a(I3
g127
tp787
a(I0
g129
tp788
a(I1
g185
tp789
a(I2
g185
tp790
a(I3
g185
tp791
a(I0
g129
tp792
a(I1
g185
tp793
a(I2
g127
tp794
a(I3
g129
tp795
a(I0
g129
tp796
a(I1
g185
tp797
a(I2
g127
tp798
a(I3
g187
tp799
a(I0
g129
tp800
a(I1
g187
tp801
a(I2
g185
tp802
a(I3
g127
tp803
a(I0
g129
tp804
a(I1
g129
tp805
a(I2
g185
tp806
a(I3
g185
tp807
a(I0
g129
tp808
a(I1
g187
tp809
a(I2
g185
tp810
a(I3
g129
tp811
a(I0
g185
tp812
a(I1
g185
tp813
a(I2
g185
tp814
a(I3
g187
tp815
a(I0
g185
tp816
a(I1
g187
tp817
a(I2
g185
tp818
a(I3
g127
tp819
a(I0
g127
tp820
a(I1
g127
tp821
a(I2
g185
tp822
a(I3
g185
tp823
a(I0
g185
tp824
a(I1
g129
tp825
a(I2
g185
tp826
a(I3
g129
tp827
a(I0
g185
tp828
a(I1
g129
tp829
a(I2
g185
tp830
a(I3
g187
tp831
a(I0
g127
tp832
a(I1
g129
tp833
a(I2
g185
tp834
a(I3
g127
tp835
a(I0
g185
tp836
a(I1
g129
tp837
a(I2
g185
tp838
a(I3
g185
tp839
a(I0
g185
tp840
a(I1
g129
tp841
a(I2
g127
tp842
a(I3
g129
tp843
a(I0
g185
tp844
a(I1
g129
tp845
a(I2
g127
tp846
a(I3
g187
tp847
a(I0
g127
tp848
a(I1
g129
tp849
a(I2
g127
tp850
a(I3
g127
tp851
a(I0
g127
tp852
a(I1
g129
tp853
a(I2
g127
tp854
a(I3
g185
tp855
a(I0
g185
tp856
a(I1
g129
tp857
a(I2
g185
tp858
a(I3
g129
tp859
a(I0
g185
tp860
a(I1
g129
tp861
a(I2
g185
tp862
a(I3
g187
tp863
a(I0
g185
tp864
a(I1
g129
tp865
a(I2
g365
tp866
a(I3
g127
tp867
a(I0
g185
tp868
a(I1
g129
tp869
a(I2
g365
tp870
a(I3
g185
tp871
a(I0
g185
tp872
a(I1
g129
tp873
a(I2
g365
tp874
a(I3
g129
tp875
a(I0
g185
tp876
a(I1
g129
tp877
a(I2
g365
tp878
a(I3
g187
tp879
a(I0
g185
tp880
a(I1
g187
tp881
a(I2
g365
tp882
a(I3
g127
tp883
a(I0
g185
tp884
a(I1
g187
tp885
a(I2
g365
tp886
a(I3
g185
tp887
a(I0
g127
tp888
a(I1
g127
tp889
a(I2
g365
tp890
a(I3
g129
tp891
a(I0
g127
tp892
a(I1
g127
tp893
a(I2
g365
tp894
a(I3
g129
tp895
a(I0
g127
tp896
a(I1
g127
tp897
a(I2
g365
tp898
a(I3
g129
tp899
a(I0
g127
tp900
a(I1
g127
tp901
a(I2
g365
tp902
a(I3
g129
tp903
a(I0
g127
tp904
a(I1
g127
tp905
a(I2
g365
tp906
a(I3
g127
tp907
a(I0
g127
tp908
a(I1
g127
tp909
a(I2
g365
tp910
a(I3
g185
tp911
a(I0
g127
tp912
a(I1
g127
tp913
a(I2
g365
tp914
a(I3
g185
tp915
a(I0
g127
tp916
a(I1
g127
tp917
a(I2
g365
tp918
a(I3
g129
tp919
a(I0
g127
tp920
a(I1
g127
tp921
a(I2
g365
tp922
a(I3
g185
tp923
a(I0
g127
tp924
a(I1
g127
tp925
a(I2
g365
tp926
a(I3
g185
tp927
a(I0
g127
tp928
a(I1
g127
tp929
a(I2
g127
tp930
a(I3
g185
tp931
a(I0
g127
tp932
a(I1
g127
tp933
a(I2
g127
tp934
a(I3
g129
tp935
a(I0
g127
tp936
a(I1
g127
tp937
a(I2
g127
tp938
a(I3
g129
tp939
a(I0
g127
tp940
a(I1
g127
tp941
a(I2
g127
tp942
a(I3
g187
tp943
a(I0
g127
tp944
a(I1
g127
tp945
a(I2
g127
tp946
a(I3
g129
tp947
a(I0
g127
tp948
a(I1
g187
tp949
a(I2
g127
tp950
a(I3
g129
tp951
a(I0
g127
tp952
a(I1
g187
tp953
a(I2
g127
tp954
a(I3
g129
tp955
a(I0
g127
tp956
a(I1
g129
tp957
a(I2
g127
tp958
a(I3
g129
tp959
a(I0
g185
tp960
a(I1
g187
tp961
a(I2
g127
tp962
a(I3
g129
tp963
a(I0
g185
tp964
a(I1
g187
tp965
a(I2
g127
tp966
a(I3
g129
tp967
a(I0
g129
tp968
a(I1
g129
tp969
a(I2
g127
tp970
a(I3
g127
tp971
a(I0
g129
tp972
a(I1
g187
tp973
a(I2
g127
tp974
a(I3
g127
tp975
a(I0
g129
tp976
a(I1
g187
tp977
a(I2
g127
tp978
a(I3
g127
tp979
a(I0
g129
tp980
a(I1
g187
tp981
a(I2
g127
tp982
a(I3
g127
tp983
a(I0
g129
tp984
a(I1
g129
tp985
a(I2
g127
tp986
a(I3
g127
tp987
a(I0
g129
tp988
a(I1
g129
tp989
a(I2
g185
tp990
a(I3
g127
tp991
a(I0
g129
tp992
a(I1
g187
tp993
a(I2
g185
tp994
a(I3
g185
tp995
a(I0
g129
tp996
a(I1
g187
tp997
a(I2
g129
tp998
a(I3
g127
tp999
a(I0
g129
tp1000
a(I1
g187
tp1001
a(I2
g129
tp1002
a(I3
g127
tp1003
a(I0
g129
tp1004
a(I1
g187
tp1005
a(I2
g129
tp1006
a(I3
g187
tp1007
a(I0
g129
tp1008
a(I1
g187
tp1009
a(I2
g129
tp1010
a(I3
g187
tp1011
a(I0
g129
tp1012
a(I1
g187
tp1013
a(I2
g129
tp1014
a(I3
g187
tp1015
a(I0
g129
tp1016
a(I1
g187
tp1017
a(I2
g129
tp1018
a(I3
g127
tp1019
a(I0
g129
tp1020
a(I1
g187
tp1021
a(I2
g129
tp1022
a(I3
g187
tp1023
a(I0
g129
tp1024
a(I1
g129
tp1025
a(I2
g129
tp1026
a(I3
g187
tp1027
a(I0
g185
tp1028
a(I1
g129
tp1029
a(I2
g129
tp1030
a(I3
g187
tp1031
a(I0
g185
tp1032
a(I1
g129
tp1033
a(I2
g129
tp1034
a(I3
g185
tp1035
a(I0
g127
tp1036
a(I1
g129
tp1037
a(I2
g129
tp1038
a(I3
g185
tp1039
a(I0
g185
tp1040
a(I1
g129
tp1041
a(I2
g129
tp1042
a(I3
g185
tp1043
a(I0
g185
tp1044
a(I1
g129
tp1045
a(I2
g129
tp1046
a(I3
g129
tp1047
a(I0
g127
tp1048
a(I1
g129
tp1049
a(I2
g129
tp1050
a(I3
g185
tp1051
a(I0
g185
tp1052
a(I1
g187
tp1053
a(I2
g129
tp1054
a(I3
g185
tp1055
a(I0
g185
tp1056
a(I1
g129
tp1057
a(I2
g185
tp1058
a(I3
g185
tp1059
a(I0
g185
tp1060
a(I1
g129
tp1061
a(I2
g185
tp1062
a(I3
g129
tp1063
a(I0
g127
tp1064
a(I1
g129
tp1065
a(I2
g127
tp1066
a(I3
g129
tp1067
a(I0
g127
tp1068
a(I1
g187
tp1069
a(I2
g185
tp1070
a(I3
g187
tp1071
a(I0
g185
tp1072
a(I1
g129
tp1073
a(I2
g185
tp1074
a(I3
g129
tp1075
a(I0
g185
tp1076
a(I1
g185
tp1077
a(I2
g127
tp1078
a(I3
g129
tp1079
a(I0
g185
tp1080
a(I1
g185
tp1081
a(I2
g185
tp1082
a(I3
g129
tp1083
a(I0
g185
tp1084
a(I1
g185
tp1085
a(I2
g185
tp1086
a(I3
g129
tp1087
a(I0
g185
tp1088
a(I1
g185
tp1089
asS'length'
p1090
I1200
sS'agents'
p1091
(lp1092
(igame
Agent
p1093
(dp1094
S'index'
p1095
I0
sba(igame
Agent
p1096
(dp1097
g1095
I0
sba(igame
Agent
p1098
(dp1099
g1095
I0
sba(igame
Agent
p1100
(dp1101
g1095
I0
sbasS'redTeamName'
p1102
S'Red'
p1103
s.