(dp1
S'layout'
p2
(ilayout
Layout
p3
(dp4
S'capsules'
p5
(lp6
sS'numGhosts'
p7
I4
sS'food'
p8
(igame
Grid
p9
(dp10
S'CELLS_PER_INT'
p11
I30
sS'width'
p12
I34
sS'data'
p13
(lp14
(lp15
I00
aI00
aI00
aI00
aI00
aI00
aI00
aI00
aI00
aI00
aI00
aI00
aI00
aI00
aI00
aI00
aI00
aI00
aa(lp16
I00
aI00
aI00
aI00
aI00
aI00
aI00
aI00
aI01
aI00
aI01
aI00
aI00
aI00
aI01
aI00
aI01
aI00
aa(lp17
I00
aI00
aI00
aI00
aI00
aI00
aI00
aI00
aI00
aI00
aI00
aI00
aI00
aI00
aI00
aI01
aI00
aI00
aa(lp18
I00
aI00
aI00
aI00
aI00
aI00
aI00
aI00
aI01
aI00
aI00
aI00
aI00
aI00
aI01
aI00
aI00
aI00
aa(lp19
I00
aI00
aI00
aI00
aI00
aI00
aI01
aI00
aI00
aI00
aI00
aI01
aI00
aI00
aI01
aI00
aI00
aI00
aa(lp20
I00
aI00
aI00
aI00
aI00
aI00
aI00
aI00
aI00
aI00
aI00
aI00
aI00
aI00
aI00
aI00
aI01
aI00
aa(lp21
I00
aI00
aI01
aI00
aI00
aI00
aI00
aI00
aI00
aI00
aI00
aI00
aI01
aI00
aI01
aI00
aI00
aI00
aa(lp22
I00
aI00
aI00
aI00
aI00
aI00
aI00
aI00
aI00
aI00
aI00
aI00
aI00
aI00
aI00
aI00
aI00
aI00
aa(lp23
I00
aI00
aI01
aI00
aI00
aI00
aI00
aI00
aI00
aI01
aI00
aI00
aI00
aI00
aI00
aI00
aI00
aI00
aa(lp24
I00
aI00
aI00
aI00
aI00
aI00
aI00
aI00
aI00
aI00
aI00
aI00
aI00
aI00
aI00
aI00
aI00
aI00
aa(lp25
I00
aI00
aI00
aI00
aI00
aI00
aI00
aI00
aI00
aI00
aI00
aI00
aI00
aI00
aI00
aI00
aI01
aI00
aa(lp26
I00
aI00
aI00
aI00
aI00
aI00
aI00
aI00
aI00
aI00
aI00
aI00
aI00
aI00
aI00
aI00
aI00
aI00
aa(lp27
I00
aI00
aI01
aI00
aI00
aI00
aI00
aI00
aI00
aI00
aI00
aI00
aI01
aI00
aI00
aI00
aI00
aI00
aa(lp28
I00
aI00
aI01
aI00
aI00
aI01
aI00
aI00
aI00
aI00
aI00
aI00
aI00
aI00
aI00
aI00
aI01
aI00
aa(lp29
I00
aI00
aI00
aI00
aI00
aI00
aI00
aI00
aI00
aI00
aI00
aI00
aI00
aI01
aI01
aI00
aI01
aI00
aa(lp30
I00
aI00
aI00
aI00
aI00
aI00
aI00
aI00
aI00
aI00
aI00
aI00
aI00
aI00
aI00
aI00
aI00
aI00
aa(lp31
I00
aI01
aI01
aI01
aI00
aI00
aI00
aI00
aI01
aI00
aI00
aI00
aI00
aI00
aI00
aI00
aI01
aI00
aa(lp32
I00
aI01
aI00
aI00
aI00
aI00
aI00
aI00
aI00
aI01
aI00
aI00
aI00
aI00
aI01
aI01
aI01
aI00
aa(lp33
I00
aI00
aI00
aI00
aI00
aI00
aI00
aI00
aI00
aI00
aI00
aI00
aI00
aI00
aI00
aI00
aI00
aI00
aa(lp34
I00
aI01
aI00
aI01
aI01
aI00
aI00
aI00
aI00
aI00
aI00
aI00
aI00
aI00
aI00
aI00
aI00
aI00
aa(lp35
I00
aI01
aI00
aI00
aI00
aI00
aI00
aI00
aI00
aI00
aI00
aI00
aI01
aI00
aI00
aI01
aI00
aI00
aa(lp36
I00
aI00
aI00
aI00
aI00
aI01
aI00
aI00
aI00
aI00
aI00
aI00
aI00
aI00
aI00
aI01
aI00
aI00
aa(lp37
I00
aI00
aI00
aI00
aI00
aI00
aI00
aI00
aI00
aI00
aI00
aI00
aI00
aI00
aI00
aI00
aI00
aI00
aa(lp38
I00
aI01
aI00
aI00
aI00
aI00
aI00
aI00
aI00
aI00
aI00
aI00
aI00
aI00
aI00
aI00
aI00
aI00
aa(lp39
I00
aI00
aI00
aI00
aI00
aI00
aI00
aI00
aI00
aI00
aI00
aI00
aI00
aI00
aI00
aI00
aI00
aI00
aa(lp40
I00
aI00
aI00
aI00
aI00
aI00
aI00
aI00
aI01
aI00
aI00
aI00
aI00
aI00
aI00
aI01
aI00
aI00
aa(lp41
I00
aI00
aI00
aI00
aI00
aI00
aI00
aI00
aI00
aI00
aI00
aI00
aI00
aI00
aI00
aI00
aI00
aI00
aa(lp42
I00
aI00
aI00
aI01
aI00
aI01
aI00
aI00
aI00
aI00
aI00
aI00
aI00
aI00
aI00
aI01
aI00
aI00
aa(lp43
I00
aI01
aI00
aI00
aI00
aI00
aI00
aI00
aI00
aI00
aI00
aI00
aI00
aI00
aI00
aI00
aI00
aI00
aa(lp44
I00
aI00
aI00
aI01
aI00
aI00
aI01
aI00
aI00
aI00
aI00
aI01
aI00
aI00
aI00
aI00
aI00
aI00
aa(lp45
I00
aI00
aI00
aI01
aI00
aI00
aI00
aI00
aI00
aI01
aI00
aI00
aI00
aI00
aI00
aI00
aI00
aI00
aa(lp46
I00
aI00
aI01
aI00
aI00
aI00
aI00
aI00
aI00
aI00
aI00
aI00
aI00
aI00
aI00
aI00
aI00
aI00
aa(lp47
I00
aI01
aI00
aI01
aI00
aI00
aI00
aI01
aI00
aI01
aI00
aI00
aI00
aI00
aI00
aI00
aI00
aI00
aa(lp48
I00
aI00
aI00
aI00
aI00
aI00
aI00
aI00
aI00
aI00
aI00
aI00
aI00
aI00
aI00
aI00
aI00
aI00
aasS'height'
p49
I18
sbsS'agentPositions'
p50
(lp51
(I00
(I1
I2
tp52
tp53
a(I00
(I32
I15
tp54
tp55
a(I00
(I1
I1
tp56
tp57
a(I00
(I32
I16
tp58
tp59
asg49
I18
sg12
I34
sS'walls'
p60
(igame
Grid
p61
(dp62
g11
I30
sg12
I34
sg13
(lp63
(lp64
I01
aI01
aI01
aI01
aI01
aI01
aI01
aI01
aI01
aI01
aI01
aI01
aI01
aI01
aI01
aI01
aI01
aI01
aa(lp65
I01
aI00
aI00
aI00
aI01
aI00
aI00
aI01
aI00
aI00
aI00
aI00
aI00
aI01
aI00
aI01
aI00
aI01
aa(lp66
I01
aI00
aI00
aI00
aI00
aI00
aI00
aI01
aI01
aI00
aI01
aI01
aI00
aI01
aI00
aI00
aI00
aI01
aa(lp67
I01
aI01
aI01
aI00
aI01
aI01
aI01
aI01
aI00
aI00
aI01
aI00
aI00
aI01
aI00
aI01
aI00
aI01
aa(lp68
I01
aI00
aI00
aI00
aI00
aI01
aI00
aI01
aI00
aI00
aI01
aI00
aI00
aI01
aI00
aI01
aI00
aI01
aa(lp69
I01
aI00
aI01
aI01
aI00
aI00
aI00
aI01
aI01
aI01
aI01
aI01
aI00
aI01
aI01
aI01
aI00
aI01
aa(lp70
I01
aI00
aI00
aI01
aI00
aI01
aI00
aI00
aI00
aI00
aI00
aI00
aI00
aI01
aI00
aI01
aI00
aI01
aa(lp71
I01
aI00
aI01
aI01
aI00
aI01
aI00
aI01
aI00
aI01
aI01
aI00
aI01
aI01
aI00
aI00
aI00
aI01
aa(lp72
I01
aI00
aI00
aI01
aI00
aI01
aI00
aI01
aI00
aI00
aI01
aI00
aI00
aI00
aI00
aI00
aI00
aI01
aa(lp73
I01
aI00
aI00
aI00
aI00
aI01
aI00
aI00
aI00
aI01
aI01
aI01
aI01
aI01
aI01
aI00
aI01
aI01
aa(lp74
I01
aI00
aI00
aI01
aI00
aI01
aI00
aI01
aI00
aI00
aI00
aI00
aI01
aI00
aI00
aI00
aI00
aI01
aa(lp75
I01
aI00
aI00
aI01
aI00
aI00
aI00
aI01
aI00
aI00
aI00
aI00
aI01
aI00
aI01
aI01
aI01
aI01
aa(lp76
I01
aI00
aI00
aI01
aI01
aI00
aI00
aI00
aI00
aI00
aI01
aI00
aI00
aI00
aI00
aI00
aI00
aI01
aa(lp77
I01
aI00
aI00
aI01
aI00
aI00
aI00
aI01
aI00
aI00
aI00
aI00
aI01
aI00
aI01
aI01
aI00
aI01
aa(lp78
I01
aI00
aI00
aI00
aI00
aI00
aI00
aI01
aI00
aI00
aI00
aI00
aI01
aI00
aI00
aI01
aI00
aI01
aa(lp79
I01
aI00
aI00
aI00
aI00
aI00
aI01
aI01
aI01
aI00
aI01
aI01
aI01
aI01
aI01
aI01
aI01
aI01
aa(lp80
I01
aI00
aI00
aI00
aI00
aI00
aI00
aI00
aI00
aI00
aI00
aI00
aI00
aI00
aI00
aI00
aI00
aI01
aa(lp81
I01
aI00
aI00
aI00
aI00
aI00
aI00
aI00
aI00
aI00
aI00
aI00
aI00
aI00
aI00
aI00
aI00
aI01
aa(lp82
I01
aI01
aI01
aI01
aI01
aI01
aI01
aI01
aI00
aI01
aI01
aI01
aI00
aI00
aI00
aI00
aI00
aI01
aa(lp83
I01
aI00
aI01
aI00
aI00
aI01
aI00
aI00
aI00
aI00
aI01
aI00
aI00
aI00
aI00
aI00
aI00
aI01
aa(lp84
I01
aI00
aI01
aI01
aI00
aI01
aI00
aI00
aI00
aI00
aI01
aI00
aI00
aI00
aI01
aI00
aI00
aI01
aa(lp85
I01
aI00
aI00
aI00
aI00
aI00
aI00
aI01
aI00
aI00
aI00
aI00
aI00
aI01
aI01
aI00
aI00
aI01
aa(lp86
I01
aI01
aI01
aI01
aI00
aI01
aI00
aI00
aI00
aI00
aI01
aI00
aI00
aI00
aI01
aI00
aI00
aI01
aa(lp87
I01
aI00
aI00
aI00
aI00
aI01
aI00
aI00
aI00
aI00
aI01
aI00
aI01
aI00
aI01
aI00
aI00
aI01
aa(lp88
I01
aI01
aI00
aI01
aI01
aI01
aI01
aI01
aI01
aI00
aI00
aI00
aI01
aI00
aI00
aI00
aI00
aI01
aa(lp89
I01
aI00
aI00
aI00
aI00
aI00
aI00
aI01
aI00
aI00
aI01
aI00
aI01
aI00
aI01
aI00
aI00
aI01
aa(lp90
I01
aI00
aI00
aI00
aI01
aI01
aI00
aI01
aI01
aI00
aI01
aI00
aI01
aI00
aI01
aI01
aI00
aI01
aa(lp91
I01
aI00
aI01
aI00
aI01
aI00
aI00
aI00
aI00
aI00
aI00
aI00
aI01
aI00
aI01
aI00
aI00
aI01
aa(lp92
I01
aI00
aI01
aI01
aI01
aI00
aI01
aI01
aI01
aI01
aI01
aI00
aI00
aI00
aI01
aI01
aI00
aI01
aa(lp93
I01
aI00
aI01
aI00
aI01
aI00
aI00
aI01
aI00
aI00
aI01
aI00
aI01
aI00
aI00
aI00
aI00
aI01
aa(lp94
I01
aI00
aI01
aI00
aI01
aI00
aI00
aI01
aI00
aI00
aI01
aI01
aI01
aI01
aI00
aI01
aI01
aI01
aa(lp95
I01
aI00
aI00
aI00
aI01
aI00
aI01
aI01
aI00
aI01
aI01
aI00
aI00
aI00
aI00
aI00
aI00
aI01
aa(lp96
I01
aI00
aI01
aI00
aI01
aI00
aI00
aI00
aI00
aI00
aI01
aI00
aI00
aI01
aI00
aI00
aI00
aI01
aa(lp97
I01
aI01
aI01
aI01
aI01
aI01
aI01
aI01
aI01
aI01
aI01
aI01
aI01
aI01
aI01
aI01
aI01
aI01
aasg49
I18
sbsS'totalFood'
p98
I60
sS'layoutText'
p99
(lp100
S'%%%%%%%%%%%%%%%%%%%%%%%%%%%%%%%%%%'
p101
aS'%.   .   %.% ..%..            % 4%'
p102
aS'%%.%%%%    % %%% .  ..   .%.% % 2%'
p103
aS'%. ..%.  % % %.% .  %%%% %%%%    %'
p104
aS'%%%%%%%% %    .%     %        % %%'
p105
aS'%     .% %%%.%%%    .  %%%%% %%  %'
p106
aS'% % .%   %     %  %          .%  %'
p107
aS'%.%%%% %%%  %  %  %%% %% %% %%%%%%'
p108
aS'%    % %.%       .%         % .%.%'
p109
aS'%.%. %         %.       %.% %    %'
p110
aS'%%%%%% %% %% %%%  %  %  %%% %%%%.%'
p111
aS'%  %.          %  %     %   %. % %'
p112
aS'%  %% %%%%%  .    %%%.%%% %.     %'
p113
aS'%% %        %     %.    % %%%%%%%%'
p114
aS'%    %%%% %%%%  . %.% % %  .%.. .%'
p115
aS'%1 % %.%.   ..  . %%% %    %%%%.%%'
p116
aS'%3 %            ..%.. %.%   .   .%'
p117
aS'%%%%%%%%%%%%%%%%%%%%%%%%%%%%%%%%%%'
p118
asbsS'blueTeamName'
p119
S'Blue'
p120
sS'actions'
p121
(lp122
(I0
S'East'
p123
tp124
a(I1
S'West'
p125
tp126
a(I2
S'North'
p127
tp128
a(I3
g125
tp129
a(I0
g127
tp130
a(I1
S'South'
p131
tp132
a(I2
g123
tp133
a(I3
g131
tp134
a(I0
g123
tp135
a(I1
g125
tp136
a(I2
g127
tp137
a(I3
g131
tp138
a(I0
g123
tp139
a(I1
g125
tp140
a(I2
g123
tp141
a(I3
g125
tp142
a(I0
g131
tp143
a(I1
g127
tp144
a(I2
g123
tp145
a(I3
g125
tp146
a(I0
g131
tp147
a(I1
g127
tp148
a(I2
g131
tp149
a(I3
g131
tp150
a(I0
g123
tp151
a(I1
g125
tp152
a(I2
g131
tp153
a(I3
g125
tp154
a(I0
g123
tp155
a(I1
g125
tp156
a(I2
g123
tp157
a(I3
g125
tp158
a(I0
g123
tp159
a(I1
g125
tp160
a(I2
g123
tp161
a(I3
g125
tp162
a(I0
g123
tp163
a(I1
g125
tp164
a(I2
g123
tp165
a(I3
g125
tp166
a(I0
g123
tp167
a(I1
g125
tp168
a(I2
g123
tp169
a(I3
g125
tp170
a(I0
g123
tp171
a(I1
g125
tp172
a(I2
g123
tp173
a(I3
g125
tp174
a(I0
g123
tp175
a(I1
g125
tp176
a(I2
g123
tp177
a(I3
g125
tp178
a(I0
g123
tp179
a(I1
g125
tp180
a(I2
g123
tp181
a(I3
g131
tp182
a(I0
g123
tp183
a(I1
g125
tp184
a(I2
g123
tp185
a(I3
g125
tp186
a(I0
g123
tp187
a(I1
g125
tp188
a(I2
g123
tp189
a(I3
g125
tp190
a(I0
g123
tp191
a(I1
g125
tp192
a(I2
g123
tp193
a(I3
g125
tp194
a(I0
g123
tp195
a(I1
g125
tp196
a(I2
g123
tp197
a(I3
g125
tp198
a(I0
g123
tp199
a(I1
g125
tp200
a(I2
g127
tp201
a(I3
g125
tp202
a(I0
g127
tp203
a(I1
g123
tp204
a(I2
g127
tp205
a(I3
g131
tp206
a(I0
g127
tp207
a(I1
g125
tp208
a(I2
g127
tp209
a(I3
g131
tp210
a(I0
g127
tp211
a(I1
g131
tp212
a(I2
g127
tp213
a(I3
g131
tp214
a(I0
g127
tp215
a(I1
g131
tp216
a(I2
g123
tp217
a(I3
g131
tp218
a(I0
g125
tp219
a(I1
g131
tp220
a(I2
g127
tp221
a(I3
g127
tp222
a(I0
g127
tp223
a(I1
g131
tp224
a(I2
g127
tp225
a(I3
S'Stop'
p226
tp227
a(I0
g127
tp228
a(I1
g131
tp229
a(I2
g123
tp230
a(I3
g131
tp231
a(I0
g127
tp232
a(I1
g131
tp233
a(I2
g226
tp234
a(I3
g131
tp235
a(I0
g123
tp236
a(I1
g131
tp237
a(I2
g127
tp238
a(I3
g127
tp239
a(I0
g123
tp240
a(I1
g131
tp241
a(I2
g127
tp242
a(I3
g127
tp243
a(I0
g127
tp244
a(I1
g123
tp245
a(I2
g123
tp246
a(I3
g226
tp247
a(I0
g123
tp248
a(I1
g125
tp249
a(I2
g123
tp250
a(I3
g226
tp251
a(I0
g123
tp252
a(I1
g131
tp253
a(I2
g123
tp254
a(I3
g226
tp255
a(I0
g127
tp256
a(I1
g131
tp257
a(I2
g127
tp258
a(I3
g226
tp259
a(I0
g123
tp260
a(I1
g131
tp261
a(I2
g123
tp262
a(I3
g226
tp263
a(I0
g123
tp264
a(I1
g131
tp265
a(I2
g127
tp266
a(I3
g226
tp267
a(I0
g123
tp268
a(I1
g131
tp269
a(I2
g127
tp270
a(I3
g226
tp271
a(I0
g123
tp272
a(I1
g123
tp273
a(I2
g123
tp274
a(I3
g226
tp275
a(I0
g123
tp276
a(I1
g125
tp277
a(I2
g123
tp278
a(I3
g226
tp279
a(I0
g123
tp280
a(I1
g131
tp281
a(I2
g123
tp282
a(I3
g226
tp283
a(I0
g123
tp284
a(I1
g123
tp285
a(I2
g123
tp286
a(I3
g226
tp287
a(I0
g127
tp288
a(I1
g125
tp289
a(I2
g127
tp290
a(I3
g226
tp291
a(I0
g123
tp292
a(I1
g131
tp293
a(I2
g127
tp294
a(I3
g226
tp295
a(I0
g123
tp296
a(I1
g123
tp297
a(I2
g123
tp298
a(I3
g226
tp299
a(I0
g123
tp300
a(I1
g125
tp301
a(I2
g127
tp302
a(I3
g226
tp303
a(I0
g123
tp304
a(I1
g125
tp305
a(I2
g123
tp306
a(I3
g226
tp307
a(I0
g123
tp308
a(I1
g125
tp309
a(I2
g123
tp310
a(I3
g226
tp311
a(I0
g127
tp312
a(I1
g125
tp313
a(I2
g123
tp314
a(I3
g226
tp315
a(I0
g127
tp316
a(I1
g127
tp317
a(I2
g123
tp318
a(I3
g226
tp319
a(I0
g127
tp320
a(I1
g125
tp321
a(I2
g123
tp322
a(I3
g226
tp323
a(I0
g127
tp324
a(I1
g125
tp325
a(I2
g226
tp326
a(I3
g226
tp327
a(I0
g127
tp328
a(I1
g125
tp329
a(I2
g226
tp330
a(I3
g226
tp331
a(I0
g123
tp332
a(I1
g125
tp333
a(I2
g226
tp334
a(I3
g127
tp335
a(I0
g123
tp336
a(I1
g125
tp337
a(I2
g226
tp338
a(I3
g131
tp339
a(I0
g127
tp340
a(I1
g131
tp341
a(I2
g226
tp342
a(I3
g226
tp343
a(I0
g123
tp344
a(I1
g125
tp345
a(I2
g226
tp346
a(I3
g226
tp347
a(I0
g123
tp348
a(I1
g125
tp349
a(I2
g226
tp350
a(I3
g226
tp351
a(I0
g127
tp352
a(I1
g127
tp353
a(I2
g226
tp354
a(I3
g226
tp355
a(I0
g123
tp356
a(I1
g131
tp357
a(I2
g226
tp358
a(I3
g226
tp359
a(I0
g123
tp360
a(I1
g125
tp361
a(I2
g226
tp362
a(I3
g226
tp363
a(I0
g123
tp364
a(I1
g125
tp365
a(I2
g226
tp366
a(I3
g226
tp367
a(I0
g123
tp368
a(I1
g127
tp369
a(I2
g226
tp370
a(I3
g226
tp371
a(I0
g123
tp372
a(I1
g127
tp373
a(I2
g226
tp374
a(I3
g226
tp375
a(I0
g123
tp376
a(I1
g127
tp377
a(I2
g226
tp378
a(I3
g226
tp379
a(I0
g123
tp380
a(I1
g123
tp381
a(I2
g226
tp382
a(I3
g226
tp383
a(I0
g127
tp384
a(I1
g127
tp385
a(I2
g226
tp386
a(I3
g226
tp387
a(I0
g123
tp388
a(I1
g127
tp389
a(I2
g226
tp390
a(I3
g226
tp391
a(I0
g123
tp392
a(I1
g125
tp393
a(I2
g226
tp394
a(I3
g226
tp395
a(I0
g123
tp396
a(I1
g123
tp397
a(I2
g226
tp398
a(I3
g226
tp399
a(I0
g123
tp400
a(I1
g123
tp401
a(I2
g226
tp402
a(I3
g226
tp403
a(I0
g123
tp404
a(I1
g123
tp405
a(I2
g226
tp406
a(I3
g226
tp407
a(I0
g127
tp408
a(I1
g123
tp409
a(I2
g226
tp410
a(I3
g226
tp411
a(I0
g127
tp412
a(I1
g123
tp413
a(I2
g226
tp414
a(I3
g226
tp415
a(I0
g127
tp416
a(I1
g123
tp417
a(I2
g226
tp418
a(I3
g226
tp419
a(I0
g127
tp420
a(I1
g123
tp421
a(I2
g226
tp422
a(I3
g226
tp423
a(I0
g127
tp424
a(I1
g123
tp425
a(I2
g226
tp426
a(I3
g226
tp427
a(I0
g123
tp428
a(I1
g123
tp429
a(I2
g226
tp430
a(I3
g127
tp431
a(I0
g123
tp432
a(I1
g123
tp433
a(I2
g226
tp434
a(I3
g131
tp435
a(I0
g127
tp436
a(I1
g131
tp437
a(I2
g226
tp438
a(I3
g226
tp439
a(I0
g123
tp440
a(I1
g123
tp441
a(I2
g226
tp442
a(I3
g226
tp443
a(I0
g123
tp444
a(I1
g123
tp445
a(I2
g226
tp446
a(I3
g226
tp447
a(I0
g127
tp448
a(I1
g123
tp449
a(I2
g226
tp450
a(I3
g226
tp451
a(I0
g123
tp452
a(I1
g125
tp453
a(I2
g226
tp454
a(I3
g226
tp455
a(I0
g123
tp456
a(I1
g125
tp457
a(I2
g226
tp458
a(I3
g226
tp459
a(I0
g123
tp460
a(I1
g125
tp461
a(I2
g226
tp462
a(I3
g226
tp463
a(I0
g123
tp464
a(I1
g125
tp465
a(I2
g226
tp466
a(I3
g226
tp467
a(I0
g123
tp468
a(I1
g125
tp469
a(I2
g226
tp470
a(I3
g226
tp471
a(I0
g123
tp472
a(I1
g125
tp473
a(I2
g226
tp474
a(I3
g226
tp475
a(I0
g125
tp476
a(I1
g127
tp477
a(I2
g226
tp478
a(I3
g226
tp479
a(I0
g123
tp480
a(I1
g125
tp481
a(I2
g226
tp482
a(I3
g226
tp483
a(I0
g123
tp484
a(I1
g125
tp485
a(I2
g226
tp486
a(I3
g226
tp487
a(I0
g127
tp488
a(I1
g127
tp489
a(I2
g226
tp490
a(I3
g226
tp491
a(I0
g123
tp492
a(I1
g127
tp493
a(I2
g226
tp494
a(I3
g226
tp495
a(I0
g123
tp496
a(I1
g125
tp497
a(I2
g226
tp498
a(I3
g226
tp499
a(I0
g123
tp500
a(I1
g127
tp501
a(I2
g226
tp502
a(I3
g226
tp503
a(I0
g123
tp504
a(I1
g131
tp505
a(I2
g226
tp506
a(I3
g226
tp507
a(I0
g123
tp508
a(I1
g125
tp509
a(I2
g226
tp510
a(I3
g226
tp511
a(I0
g127
tp512
a(I1
g125
tp513
a(I2
g226
tp514
a(I3
g226
tp515
a(I0
g127
tp516
a(I1
g127
tp517
a(I2
g226
tp518
a(I3
g226
tp519
a(I0
g127
tp520
a(I1
g127
tp521
a(I2
g226
tp522
a(I3
g226
tp523
a(I0
g127
tp524
a(I1
g127
tp525
a(I2
g226
tp526
a(I3
g226
tp527
a(I0
g127
tp528
a(I1
g127
tp529
a(I2
g226
tp530
a(I3
g226
tp531
a(I0
g123
tp532
a(I1
g125
tp533
a(I2
g226
tp534
a(I3
g127
tp535
a(I0
g123
tp536
a(I1
g125
tp537
a(I2
g226
tp538
a(I3
g131
tp539
a(I0
g127
tp540
a(I1
g131
tp541
a(I2
g226
tp542
a(I3
g226
tp543
a(I0
g123
tp544
a(I1
g125
tp545
a(I2
g226
tp546
a(I3
g226
tp547
a(I0
g123
tp548
a(I1
g127
tp549
a(I2
g226
tp550
a(I3
g226
tp551
a(I0
g127
tp552
a(I1
g125
tp553
a(I2
g226
tp554
a(I3
g226
tp555
a(I0
g123
tp556
a(I1
g125
tp557
a(I2
g226
tp558
a(I3
g226
tp559
a(I0
g123
tp560
a(I1
g131
tp561
a(I2
g226
tp562
a(I3
g226
tp563
a(I0
g123
tp564
a(I1
g131
tp565
a(I2
g226
tp566
a(I3
g226
tp567
a(I0
g123
tp568
a(I1
g127
tp569
a(I2
g226
tp570
a(I3
g226
tp571
a(I0
g123
tp572
a(I1
g127
tp573
a(I2
g226
tp574
a(I3
g226
tp575
a(I0
g123
tp576
a(I1
g123
tp577
a(I2
g226
tp578
a(I3
g226
tp579
a(I0
g123
tp580
a(I1
g123
tp581
a(I2
g226
tp582
a(I3
g226
tp583
a(I0
g127
tp584
a(I1
g123
tp585
a(I2
g226
tp586
a(I3
g226
tp587
a(I0
g123
tp588
a(I1
g123
tp589
a(I2
g226
tp590
a(I3
g226
tp591
a(I0
g123
tp592
a(I1
g123
tp593
a(I2
g226
tp594
a(I3
g226
tp595
a(I0
g123
tp596
a(I1
g131
tp597
a(I2
g226
tp598
a(I3
g226
tp599
a(I0
g123
tp600
a(I1
g131
tp601
a(I2
g226
tp602
a(I3
g226
tp603
a(I0
g123
tp604
a(I1
g131
tp605
a(I2
g226
tp606
a(I3
g226
tp607
a(I0
g127
tp608
a(I1
g131
tp609
a(I2
g226
tp610
a(I3
g226
tp611
a(I0
g127
tp612
a(I1
g123
tp613
a(I2
g226
tp614
a(I3
g226
tp615
a(I0
g127
tp616
a(I1
g123
tp617
a(I2
g226
tp618
a(I3
g226
tp619
a(I0
g127
tp620
a(I1
g123
tp621
a(I2
g226
tp622
a(I3
g226
tp623
a(I0
g127
tp624
a(I1
g123
tp625
a(I2
g226
tp626
a(I3
g226
tp627
a(I0
g123
tp628
a(I1
g123
tp629
a(I2
g226
tp630
a(I3
g127
tp631
a(I0
g123
tp632
a(I1
g123
tp633
a(I2
g226
tp634
a(I3
g131
tp635
a(I0
g127
tp636
a(I1
g123
tp637
a(I2
g226
tp638
a(I3
g226
tp639
a(I0
g123
tp640
a(I1
g123
tp641
a(I2
g226
tp642
a(I3
g226
tp643
a(I0
g123
tp644
a(I1
g127
tp645
a(I2
g226
tp646
a(I3
g226
tp647
a(I0
g127
tp648
a(I1
g226
tp649
a(I2
g226
tp650
a(I3
g226
tp651
a(I0
g123
tp652
a(I1
g226
tp653
a(I2
g226
tp654
a(I3
g226
tp655
a(I0
g123
tp656
a(I1
g226
tp657
a(I2
g226
tp658
a(I3
g226
tp659
a(I0
g123
tp660
a(I1
g226
tp661
a(I2
g226
tp662
a(I3
g226
tp663
a(I0
g123
tp664
a(I1
g226
tp665
a(I2
g226
tp666
a(I3
g226
tp667
a(I0
g123
tp668
a(I1
g226
tp669
a(I2
g226
tp670
a(I3
g226
tp671
a(I0
g123
tp672
a(I1
g226
tp673
a(I2
g226
tp674
a(I3
g226
tp675
a(I0
g123
tp676
a(I1
g226
tp677
a(I2
g226
tp678
a(I3
g226
tp679
a(I0
g127
tp680
a(I1
g226
tp681
a(I2
g226
tp682
a(I3
g226
tp683
a(I0
g123
tp684
a(I1
g226
tp685
a(I2
g226
tp686
a(I3
g226
tp687
a(I0
g123
tp688
a(I1
g226
tp689
a(I2
g226
tp690
a(I3
g226
tp691
a(I0
g123
tp692
a(I1
g226
tp693
a(I2
g226
tp694
a(I3
g226
tp695
a(I0
g123
tp696
a(I1
g226
tp697
a(I2
g226
tp698
a(I3
g226
tp699
a(I0
g123
tp700
a(I1
g226
tp701
a(I2
g226
tp702
a(I3
g226
tp703
a(I0
g127
tp704
a(I1
g226
tp705
a(I2
g226
tp706
a(I3
g226
tp707
a(I0
g127
tp708
a(I1
g226
tp709
a(I2
g226
tp710
a(I3
g226
tp711
a(I0
g127
tp712
a(I1
g226
tp713
a(I2
g226
tp714
a(I3
g226
tp715
a(I0
g127
tp716
a(I1
g226
tp717
a(I2
g226
tp718
a(I3
g226
tp719
a(I0
g127
tp720
a(I1
g226
tp721
a(I2
g226
tp722
a(I3
g226
tp723
a(I0
g123
tp724
a(I1
g226
tp725
a(I2
g226
tp726
a(I3
g127
tp727
a(I0
g123
tp728
a(I1
g226
tp729
a(I2
g226
tp730
a(I3
g131
tp731
a(I0
g127
tp732
a(I1
g226
tp733
a(I2
g226
tp734
a(I3
g226
tp735
a(I0
g123
tp736
a(I1
g226
tp737
a(I2
g226
tp738
a(I3
g226
tp739
a(I0
g123
tp740
a(I1
g226
tp741
a(I2
g226
tp742
a(I3
g226
tp743
a(I0
g127
tp744
a(I1
g226
tp745
a(I2
g226
tp746
a(I3
g226
tp747
a(I0
g123
tp748
a(I1
g226
tp749
a(I2
g226
tp750
a(I3
g226
tp751
a(I0
g123
tp752
a(I1
g226
tp753
a(I2
g226
tp754
a(I3
g226
tp755
a(I0
g123
tp756
a(I1
g226
tp757
a(I2
g226
tp758
a(I3
g226
tp759
a(I0
g123
tp760
a(I1
g226
tp761
a(I2
g226
tp762
a(I3
g226
tp763
a(I0
g123
tp764
a(I1
g226
tp765
a(I2
g226
tp766
a(I3
g226
tp767
a(I0
g123
tp768
a(I1
g226
tp769
a(I2
g226
tp770
a(I3
g226
tp771
a(I0
g123
tp772
a(I1
g226
tp773
a(I2
g226
tp774
a(I3
g226
tp775
a(I0
g127
tp776
a(I1
g226
tp777
a(I2
g226
tp778
a(I3
g226
tp779
a(I0
g123
tp780
a(I1
g226
tp781
a(I2
g226
tp782
a(I3
g226
tp783
a(I0
g123
tp784
a(I1
g226
tp785
a(I2
g226
tp786
a(I3
g226
tp787
a(I0
g123
tp788
a(I1
g226
tp789
a(I2
g226
tp790
a(I3
g226
tp791
a(I0
g123
tp792
a(I1
g226
tp793
a(I2
g226
tp794
a(I3
g226
tp795
a(I0
g123
tp796
a(I1
g226
tp797
a(I2
g226
tp798
a(I3
g226
tp799
a(I0
g127
tp800
a(I1
g226
tp801
a(I2
g226
tp802
a(I3
g226
tp803
a(I0
g127
tp804
a(I1
g226
tp805
a(I2
g226
tp806
a(I3
g226
tp807
a(I0
g127
tp808
a(I1
g226
tp809
a(I2
g226
tp810
a(I3
g226
tp811
a(I0
g127
tp812
a(I1
g226
tp813
a(I2
g226
tp814
a(I3
g226
tp815
a(I0
g127
tp816
a(I1
g226
tp817
a(I2
g226
tp818
a(I3
g226
tp819
a(I0
g123
tp820
a(I1
g226
tp821
a(I2
g226
tp822
a(I3
g127
tp823
a(I0
g123
tp824
a(I1
g226
tp825
a(I2
g226
tp826
a(I3
g131
tp827
a(I0
g127
tp828
a(I1
g226
tp829
a(I2
g226
tp830
a(I3
g226
tp831
a(I0
g123
tp832
a(I1
g226
tp833
a(I2
g226
tp834
a(I3
g226
tp835
a(I0
g123
tp836
a(I1
g226
tp837
a(I2
g226
tp838
a(I3
g226
tp839
a(I0
g127
tp840
a(I1
g226
tp841
a(I2
g226
tp842
a(I3
g226
tp843
a(I0
g123
tp844
a(I1
g226
tp845
a(I2
g226
tp846
a(I3
g226
tp847
a(I0
g123
tp848
a(I1
g226
tp849
a(I2
g226
tp850
a(I3
g226
tp851
a(I0
g123
tp852
a(I1
g226
tp853
a(I2
g226
tp854
a(I3
g226
tp855
a(I0
g123
tp856
a(I1
g226
tp857
a(I2
g226
tp858
a(I3
g226
tp859
a(I0
g123
tp860
a(I1
g226
tp861
a(I2
g226
tp862
a(I3
g226
tp863
a(I0
g123
tp864
a(I1
g226
tp865
a(I2
g226
tp866
a(I3
g226
tp867
a(I0
g123
tp868
a(I1
g226
tp869
a(I2
g226
tp870
a(I3
g226
tp871
a(I0
g127
tp872
a(I1
g226
tp873
a(I2
g226
tp874
a(I3
g226
tp875
a(I0
g123
tp876
a(I1
g226
tp877
a(I2
g226
tp878
a(I3
g226
tp879
a(I0
g123
tp880
a(I1
g226
tp881
a(I2
g226
tp882
a(I3
g226
tp883
a(I0
g123
tp884
a(I1
g226
tp885
a(I2
g226
tp886
a(I3
g226
tp887
a(I0
g123
tp888
a(I1
g226
tp889
a(I2
g226
tp890
a(I3
g226
tp891
a(I0
g123
tp892
a(I1
g226
tp893
a(I2
g226
tp894
a(I3
g226
tp895
a(I0
g127
tp896
a(I1
g226
tp897
a(I2
g226
tp898
a(I3
g226
tp899
a(I0
g127
tp900
a(I1
g226
tp901
a(I2
g226
tp902
a(I3
g226
tp903
a(I0
g127
tp904
a(I1
g226
tp905
a(I2
g226
tp906
a(I3
g226
tp907
a(I0
g127
tp908
a(I1
g226
tp909
a(I2
g226
tp910
a(I3
g226
tp911
a(I0
g127
tp912
a(I1
g226
tp913
a(I2
g226
tp914
a(I3
g226
tp915
a(I0
g123
tp916
a(I1
g226
tp917
a(I2
g226
tp918
a(I3
g127
tp919
a(I0
g123
tp920
a(I1
g226
tp921
a(I2
g226
tp922
a(I3
g131
tp923
a(I0
g127
tp924
a(I1
g226
tp925
a(I2
g226
tp926
a(I3
g226
tp927
a(I0
g123
tp928
a(I1
g226
tp929
a(I2
g226
tp930
a(I3
g226
tp931
a(I0
g123
tp932
a(I1
g226
tp933
a(I2
g226
tp934
a(I3
g226
tp935
a(I0
g127
tp936
a(I1
g226
tp937
a(I2
g226
tp938
a(I3
g226
tp939
a(I0
g123
tp940
a(I1
g226
tp941
a(I2
g226
tp942
a(I3
g226
tp943
a(I0
g123
tp944
a(I1
g226
tp945
a(I2
g226
tp946
a(I3
g226
tp947
a(I0
g123
tp948
a(I1
g226
tp949
a(I2
g226
tp950
a(I3
g226
tp951
a(I0
g123
tp952
a(I1
g226
tp953
a(I2
g226
tp954
a(I3
g226
tp955
a(I0
g123
tp956
a(I1
g226
tp957
a(I2
g226
tp958
a(I3
g226
tp959
a(I0
g123
tp960
a(I1
g226
tp961
a(I2
g226
tp962
a(I3
g226
tp963
a(I0
g123
tp964
a(I1
g226
tp965
a(I2
g226
tp966
a(I3
g226
tp967
a(I0
g127
tp968
a(I1
g226
tp969
a(I2
g226
tp970
a(I3
g226
tp971
a(I0
g123
tp972
a(I1
g226
tp973
a(I2
g226
tp974
a(I3
g226
tp975
a(I0
g123
tp976
a(I1
g226
tp977
a(I2
g226
tp978
a(I3
g226
tp979
a(I0
g123
tp980
a(I1
g226
tp981
a(I2
g226
tp982
a(I3
g226
tp983
a(I0
g123
tp984
a(I1
g226
tp985
a(I2
g226
tp986
a(I3
g226
tp987
a(I0
g123
tp988
a(I1
g226
tp989
a(I2
g226
tp990
a(I3
g226
tp991
a(I0
g127
tp992
a(I1
g226
tp993
a(I2
g226
tp994
a(I3
g226
tp995
a(I0
g127
tp996
a(I1
g226
tp997
a(I2
g226
tp998
a(I3
g226
tp999
a(I0
g127
tp1000
a(I1
g226
tp1001
a(I2
g226
tp1002
a(I3
g226
tp1003
a(I0
g127
tp1004
a(I1
g226
tp1005
a(I2
g226
tp1006
a(I3
g226
tp1007
a(I0
g127
tp1008
a(I1
g226
tp1009
a(I2
g226
tp1010
a(I3
g226
tp1011
a(I0
g123
tp1012
a(I1
g226
tp1013
a(I2
g226
tp1014
a(I3
g127
tp1015
a(I0
g123
tp1016
a(I1
g226
tp1017
a(I2
g226
tp1018
a(I3
g131
tp1019
a(I0
g127
tp1020
a(I1
g226
tp1021
a(I2
g226
tp1022
a(I3
g226
tp1023
a(I0
g123
tp1024
a(I1
g226
tp1025
a(I2
g226
tp1026
a(I3
g226
tp1027
a(I0
g123
tp1028
a(I1
g226
tp1029
a(I2
g226
tp1030
a(I3
g226
tp1031
a(I0
g127
tp1032
a(I1
g226
tp1033
a(I2
g226
tp1034
a(I3
g226
tp1035
a(I0
g123
tp1036
a(I1
g226
tp1037
a(I2
g226
tp1038
a(I3
g226
tp1039
a(I0
g123
tp1040
a(I1
g226
tp1041
a(I2
g226
tp1042
a(I3
g226
tp1043
a(I0
g123
tp1044
a(I1
g226
tp1045
a(I2
g226
tp1046
a(I3
g226
tp1047
a(I0
g123
tp1048
a(I1
g226
tp1049
a(I2
g226
tp1050
a(I3
g226
tp1051
a(I0
g123
tp1052
a(I1
g226
tp1053
a(I2
g226
tp1054
a(I3
g226
tp1055
a(I0
g123
tp1056
a(I1
g226
tp1057
a(I2
g226
tp1058
a(I3
g226
tp1059
a(I0
g123
tp1060
a(I1
g226
tp1061
a(I2
g226
tp1062
a(I3
g226
tp1063
a(I0
g127
tp1064
a(I1
g226
tp1065
a(I2
g226
tp1066
a(I3
g226
tp1067
a(I0
g123
tp1068
a(I1
g226
tp1069
a(I2
g226
tp1070
a(I3
g226
tp1071
a(I0
g123
tp1072
a(I1
g226
tp1073
a(I2
g226
tp1074
a(I3
g226
tp1075
a(I0
g123
tp1076
a(I1
g226
tp1077
a(I2
g226
tp1078
a(I3
g226
tp1079
a(I0
g123
tp1080
a(I1
g226
tp1081
a(I2
g226
tp1082
a(I3
g226
tp1083
a(I0
g123
tp1084
a(I1
g226
tp1085
a(I2
g226
tp1086
a(I3
g226
tp1087
a(I0
g127
tp1088
a(I1
g226
tp1089
a(I2
g226
tp1090
a(I3
g226
tp1091
a(I0
g127
tp1092
a(I1
g226
tp1093
a(I2
g226
tp1094
a(I3
g226
tp1095
a(I0
g127
tp1096
a(I1
g226
tp1097
a(I2
g226
tp1098
a(I3
g226
tp1099
a(I0
g127
tp1100
a(I1
g226
tp1101
a(I2
g226
tp1102
a(I3
g226
tp1103
a(I0
g127
tp1104
a(I1
g226
tp1105
a(I2
g226
tp1106
a(I3
g226
tp1107
a(I0
g123
tp1108
a(I1
g226
tp1109
a(I2
g226
tp1110
a(I3
g127
tp1111
a(I0
g123
tp1112
a(I1
g226
tp1113
a(I2
g226
tp1114
a(I3
g131
tp1115
a(I0
g127
tp1116
a(I1
g226
tp1117
a(I2
g226
tp1118
a(I3
g226
tp1119
a(I0
g123
tp1120
a(I1
g226
tp1121
a(I2
g226
tp1122
a(I3
g226
tp1123
a(I0
g123
tp1124
a(I1
g226
tp1125
a(I2
g226
tp1126
a(I3
g226
tp1127
a(I0
g127
tp1128
a(I1
g226
tp1129
a(I2
g226
tp1130
a(I3
g226
tp1131
a(I0
g123
tp1132
a(I1
g226
tp1133
a(I2
g226
tp1134
a(I3
g226
tp1135
a(I0
g123
tp1136
a(I1
g226
tp1137
a(I2
g226
tp1138
a(I3
g226
tp1139
a(I0
g123
tp1140
a(I1
g226
tp1141
a(I2
g226
tp1142
a(I3
g226
tp1143
a(I0
g123
tp1144
a(I1
g226
tp1145
a(I2
g226
tp1146
a(I3
g226
tp1147
a(I0
g123
tp1148
a(I1
g226
tp1149
a(I2
g226
tp1150
a(I3
g226
tp1151
a(I0
g123
tp1152
a(I1
g226
tp1153
a(I2
g226
tp1154
a(I3
g226
tp1155
a(I0
g123
tp1156
a(I1
g226
tp1157
a(I2
g226
tp1158
a(I3
g226
tp1159
a(I0
g127
tp1160
a(I1
g226
tp1161
a(I2
g226
tp1162
a(I3
g226
tp1163
a(I0
g123
tp1164
a(I1
g226
tp1165
a(I2
g226
tp1166
a(I3
g226
tp1167
a(I0
g123
tp1168
a(I1
g226
tp1169
a(I2
g226
tp1170
a(I3
g226
tp1171
a(I0
g123
tp1172
a(I1
g226
tp1173
a(I2
g226
tp1174
a(I3
g226
tp1175
a(I0
g123
tp1176
a(I1
g226
tp1177
a(I2
g226
tp1178
a(I3
g226
tp1179
a(I0
g123
tp1180
a(I1
g226
tp1181
a(I2
g226
tp1182
a(I3
g226
tp1183
a(I0
g127
tp1184
a(I1
g226
tp1185
a(I2
g226
tp1186
a(I3
g226
tp1187
a(I0
g127
tp1188
a(I1
g226
tp1189
a(I2
g226
tp1190
a(I3
g226
tp1191
a(I0
g127
tp1192
a(I1
g226
tp1193
a(I2
g226
tp1194
a(I3
g226
tp1195
a(I0
g127
tp1196
a(I1
g226
tp1197
a(I2
g226
tp1198
a(I3
g226
tp1199
a(I0
g127
tp1200
a(I1
g226
tp1201
a(I2
g226
tp1202
a(I3
g226
tp1203
a(I0
g123
tp1204
a(I1
g226
tp1205
a(I2
g226
tp1206
a(I3
g127
tp1207
a(I0
g123
tp1208
a(I1
g226
tp1209
a(I2
g226
tp1210
a(I3
g131
tp1211
a(I0
g127
tp1212
a(I1
g226
tp1213
a(I2
g226
tp1214
a(I3
g226
tp1215
a(I0
g123
tp1216
a(I1
g226
tp1217
a(I2
g226
tp1218
a(I3
g226
tp1219
a(I0
g123
tp1220
a(I1
g226
tp1221
a(I2
g226
tp1222
a(I3
g226
tp1223
a(I0
g127
tp1224
a(I1
g226
tp1225
a(I2
g226
tp1226
a(I3
g226
tp1227
a(I0
g123
tp1228
a(I1
g226
tp1229
a(I2
g226
tp1230
a(I3
g226
tp1231
a(I0
g123
tp1232
a(I1
g226
tp1233
a(I2
g226
tp1234
a(I3
g226
tp1235
a(I0
g123
tp1236
a(I1
g226
tp1237
a(I2
g226
tp1238
a(I3
g226
tp1239
a(I0
g123
tp1240
a(I1
g226
tp1241
a(I2
g226
tp1242
a(I3
g226
tp1243
a(I0
g123
tp1244
a(I1
g226
tp1245
a(I2
g226
tp1246
a(I3
g226
tp1247
a(I0
g123
tp1248
a(I1
g226
tp1249
a(I2
g226
tp1250
a(I3
g226
tp1251
a(I0
g123
tp1252
a(I1
g226
tp1253
a(I2
g226
tp1254
a(I3
g226
tp1255
a(I0
g127
tp1256
a(I1
g226
tp1257
a(I2
g226
tp1258
a(I3
g226
tp1259
a(I0
g123
tp1260
a(I1
g226
tp1261
a(I2
g226
tp1262
a(I3
g226
tp1263
a(I0
g123
tp1264
a(I1
g226
tp1265
a(I2
g226
tp1266
a(I3
g226
tp1267
a(I0
g123
tp1268
a(I1
g226
tp1269
a(I2
g226
tp1270
a(I3
g226
tp1271
a(I0
g123
tp1272
a(I1
g226
tp1273
a(I2
g226
tp1274
a(I3
g226
tp1275
a(I0
g123
tp1276
a(I1
g226
tp1277
a(I2
g226
tp1278
a(I3
g226
tp1279
a(I0
g127
tp1280
a(I1
g226
tp1281
a(I2
g226
tp1282
a(I3
g226
tp1283
a(I0
g127
tp1284
a(I1
g226
tp1285
a(I2
g226
tp1286
a(I3
g226
tp1287
a(I0
g127
tp1288
a(I1
g226
tp1289
a(I2
g226
tp1290
a(I3
g226
tp1291
a(I0
g127
tp1292
a(I1
g226
tp1293
a(I2
g226
tp1294
a(I3
g226
tp1295
a(I0
g127
tp1296
a(I1
g226
tp1297
a(I2
g226
tp1298
a(I3
g226
tp1299
a(I0
g123
tp1300
a(I1
g226
tp1301
a(I2
g226
tp1302
a(I3
g127
tp1303
a(I0
g123
tp1304
a(I1
g226
tp1305
a(I2
g226
tp1306
a(I3
g131
tp1307
a(I0
g127
tp1308
a(I1
g226
tp1309
a(I2
g226
tp1310
a(I3
g226
tp1311
a(I0
g123
tp1312
a(I1
g226
tp1313
a(I2
g226
tp1314
a(I3
g226
tp1315
a(I0
g123
tp1316
a(I1
g226
tp1317
a(I2
g226
tp1318
a(I3
g226
tp1319
a(I0
g127
tp1320
a(I1
g226
tp1321
a(I2
g226
tp1322
a(I3
g226
tp1323
a(I0
g123
tp1324
a(I1
g226
tp1325
a(I2
g226
tp1326
a(I3
g226
tp1327
asS'length'
p1328
I1200
sS'agents'
p1329
(lp1330
(igame
Agent
p1331
(dp1332
S'index'
p1333
I0
sba(igame
Agent
p1334
(dp1335
g1333
I0
sba(igame
Agent
p1336
(dp1337
g1333
I0
sba(igame
Agent
p1338
(dp1339
g1333
I0
sbasS'redTeamName'
p1340
S'Red'
p1341
s.