(dp1
S'layout'
p2
(ilayout
Layout
p3
(dp4
S'capsules'
p5
(lp6
(I11
I3
tp7
a(I19
I8
tp8
a(I14
I9
tp9
a(I22
I16
tp10
asS'numGhosts'
p11
I4
sS'food'
p12
(igame
Grid
p13
(dp14
S'CELLS_PER_INT'
p15
I30
sS'width'
p16
I34
sS'data'
p17
(lp18
(lp19
I00
aI00
aI00
aI00
aI00
aI00
aI00
aI00
aI00
aI00
aI00
aI00
aI00
aI00
aI00
aI00
aI00
aI00
aa(lp20
I00
aI00
aI00
aI00
aI00
aI00
aI00
aI01
aI00
aI00
aI00
aI00
aI00
aI00
aI01
aI00
aI01
aI00
aa(lp21
I00
aI00
aI00
aI00
aI00
aI00
aI00
aI00
aI00
aI00
aI00
aI00
aI00
aI00
aI00
aI00
aI00
aI00
aa(lp22
I00
aI00
aI00
aI00
aI00
aI00
aI00
aI00
aI01
aI01
aI00
aI00
aI00
aI00
aI00
aI00
aI01
aI00
aa(lp23
I00
aI00
aI00
aI00
aI00
aI00
aI00
aI00
aI00
aI00
aI00
aI00
aI00
aI00
aI00
aI00
aI00
aI00
aa(lp24
I00
aI00
aI00
aI00
aI00
aI00
aI01
aI00
aI00
aI00
aI00
aI00
aI01
aI00
aI00
aI01
aI00
aI00
aa(lp25
I00
aI00
aI00
aI01
aI00
aI00
aI00
aI00
aI00
aI00
aI00
aI00
aI01
aI00
aI00
aI00
aI00
aI00
aa(lp26
I00
aI00
aI00
aI00
aI00
aI00
aI01
aI00
aI00
aI00
aI00
aI00
aI00
aI00
aI00
aI00
aI01
aI00
aa(lp27
I00
aI00
aI00
aI00
aI00
aI00
aI00
aI00
aI01
aI00
aI01
aI00
aI01
aI00
aI00
aI00
aI01
aI00
aa(lp28
I00
aI00
aI00
aI00
aI00
aI00
aI00
aI00
aI00
aI01
aI00
aI00
aI01
aI00
aI00
aI00
aI01
aI00
aa(lp29
I00
aI00
aI00
aI00
aI00
aI00
aI00
aI00
aI00
aI00
aI00
aI00
aI00
aI00
aI00
aI00
aI00
aI00
aa(lp30
I00
aI00
aI00
aI00
aI00
aI01
aI01
aI00
aI00
aI00
aI00
aI01
aI01
aI00
aI01
aI00
aI01
aI00
aa(lp31
I00
aI00
aI00
aI00
aI00
aI00
aI00
aI00
aI00
aI00
aI00
aI00
aI00
aI00
aI00
aI00
aI00
aI00
aa(lp32
I00
aI00
aI00
aI00
aI00
aI00
aI00
aI00
aI00
aI00
aI00
aI00
aI00
aI00
aI00
aI00
aI01
aI00
aa(lp33
I00
aI00
aI00
aI00
aI00
aI00
aI00
aI00
aI00
aI00
aI00
aI00
aI00
aI00
aI00
aI00
aI01
aI00
aa(lp34
I00
aI00
aI00
aI00
aI00
aI00
aI00
aI00
aI00
aI00
aI00
aI00
aI00
aI00
aI00
aI00
aI00
aI00
aa(lp35
I00
aI01
aI00
aI00
aI00
aI00
aI00
aI00
aI01
aI00
aI00
aI00
aI00
aI00
aI00
aI00
aI00
aI00
aa(lp36
I00
aI00
aI00
aI00
aI00
aI00
aI00
aI00
aI00
aI01
aI00
aI00
aI00
aI00
aI00
aI00
aI01
aI00
aa(lp37
I00
aI00
aI00
aI00
aI00
aI00
aI00
aI00
aI00
aI00
aI00
aI00
aI00
aI00
aI00
aI00
aI00
aI00
aa(lp38
I00
aI01
aI00
aI00
aI00
aI00
aI00
aI00
aI00
aI00
aI00
aI00
aI00
aI00
aI00
aI00
aI00
aI00
aa(lp39
I00
aI01
aI00
aI00
aI00
aI00
aI00
aI00
aI00
aI00
aI00
aI00
aI00
aI00
aI00
aI00
aI00
aI00
aa(lp40
I00
aI00
aI00
aI00
aI00
aI00
aI00
aI00
aI00
aI00
aI00
aI00
aI00
aI00
aI00
aI00
aI00
aI00
aa(lp41
I00
aI01
aI00
aI01
aI00
aI01
aI01
aI00
aI00
aI00
aI00
aI01
aI01
aI00
aI00
aI00
aI00
aI00
aa(lp42
I00
aI00
aI00
aI00
aI00
aI00
aI00
aI00
aI00
aI00
aI00
aI00
aI00
aI00
aI00
aI00
aI00
aI00
aa(lp43
I00
aI01
aI00
aI00
aI00
aI01
aI00
aI00
aI01
aI00
aI00
aI00
aI00
aI00
aI00
aI00
aI00
aI00
aa(lp44
I00
aI01
aI00
aI00
aI00
aI01
aI00
aI01
aI00
aI01
aI00
aI00
aI00
aI00
aI00
aI00
aI00
aI00
aa(lp45
I00
aI01
aI00
aI00
aI00
aI00
aI00
aI00
aI00
aI00
aI00
aI01
aI00
aI00
aI00
aI00
aI00
aI00
aa(lp46
I00
aI00
aI00
aI00
aI00
aI01
aI00
aI00
aI00
aI00
aI00
aI00
aI00
aI00
aI01
aI00
aI00
aI00
aa(lp47
I00
aI00
aI01
aI00
aI00
aI01
aI00
aI00
aI00
aI00
aI00
aI01
aI00
aI00
aI00
aI00
aI00
aI00
aa(lp48
I00
aI00
aI00
aI00
aI00
aI00
aI00
aI00
aI00
aI00
aI00
aI00
aI00
aI00
aI00
aI00
aI00
aI00
aa(lp49
I00
aI01
aI00
aI00
aI00
aI00
aI00
aI00
aI01
aI01
aI00
aI00
aI00
aI00
aI00
aI00
aI00
aI00
aa(lp50
I00
aI00
aI00
aI00
aI00
aI00
aI00
aI00
aI00
aI00
aI00
aI00
aI00
aI00
aI00
aI00
aI00
aI00
aa(lp51
I00
aI01
aI00
aI01
aI00
aI00
aI00
aI00
aI00
aI00
aI01
aI00
aI00
aI00
aI00
aI00
aI00
aI00
aa(lp52
I00
aI00
aI00
aI00
aI00
aI00
aI00
aI00
aI00
aI00
aI00
aI00
aI00
aI00
aI00
aI00
aI00
aI00
aasS'height'
p53
I18
sbsS'agentPositions'
p54
(lp55
(I00
(I1
I2
tp56
tp57
a(I00
(I32
I15
tp58
tp59
a(I00
(I1
I1
tp60
tp61
a(I00
(I32
I16
tp62
tp63
asg53
I18
sg16
I34
sS'walls'
p64
(igame
Grid
p65
(dp66
g15
I30
sg16
I34
sg17
(lp67
(lp68
I01
aI01
aI01
aI01
aI01
aI01
aI01
aI01
aI01
aI01
aI01
aI01
aI01
aI01
aI01
aI01
aI01
aI01
aa(lp69
I01
aI00
aI00
aI00
aI00
aI00
aI00
aI00
aI00
aI00
aI00
aI00
aI00
aI00
aI00
aI00
aI00
aI01
aa(lp70
I01
aI00
aI00
aI00
aI01
aI01
aI01
aI01
aI01
aI01
aI01
aI01
aI01
aI01
aI01
aI01
aI00
aI01
aa(lp71
I01
aI00
aI01
aI00
aI01
aI00
aI00
aI01
aI00
aI00
aI00
aI00
aI00
aI00
aI00
aI01
aI00
aI01
aa(lp72
I01
aI00
aI01
aI00
aI01
aI00
aI00
aI01
aI01
aI01
aI00
aI01
aI01
aI01
aI00
aI01
aI00
aI01
aa(lp73
I01
aI00
aI01
aI00
aI01
aI00
aI00
aI01
aI00
aI00
aI00
aI01
aI00
aI01
aI00
aI00
aI00
aI01
aa(lp74
I01
aI00
aI01
aI00
aI01
aI00
aI00
aI00
aI00
aI00
aI01
aI01
aI00
aI01
aI00
aI01
aI01
aI01
aa(lp75
I01
aI00
aI01
aI00
aI01
aI00
aI00
aI01
aI00
aI00
aI00
aI00
aI00
aI01
aI00
aI01
aI00
aI01
aa(lp76
I01
aI00
aI01
aI00
aI01
aI00
aI00
aI01
aI00
aI01
aI00
aI01
aI00
aI01
aI00
aI01
aI00
aI01
aa(lp77
I01
aI00
aI00
aI00
aI01
aI00
aI00
aI01
aI00
aI00
aI00
aI01
aI00
aI01
aI00
aI01
aI00
aI01
aa(lp78
I01
aI00
aI01
aI00
aI01
aI01
aI01
aI01
aI00
aI01
aI01
aI01
aI01
aI01
aI00
aI00
aI00
aI01
aa(lp79
I01
aI00
aI01
aI00
aI01
aI00
aI00
aI00
aI00
aI00
aI00
aI00
aI00
aI01
aI00
aI01
aI00
aI01
aa(lp80
I01
aI00
aI01
aI00
aI01
aI01
aI01
aI01
aI01
aI01
aI00
aI01
aI01
aI01
aI01
aI01
aI01
aI01
aa(lp81
I01
aI00
aI00
aI00
aI00
aI00
aI01
aI00
aI00
aI00
aI00
aI00
aI00
aI01
aI00
aI00
aI00
aI01
aa(lp82
I01
aI00
aI00
aI00
aI01
aI00
aI00
aI00
aI01
aI00
aI00
aI01
aI00
aI00
aI00
aI01
aI00
aI01
aa(lp83
I01
aI01
aI00
aI00
aI01
aI00
aI01
aI00
aI01
aI01
aI00
aI01
aI01
aI01
aI00
aI01
aI01
aI01
aa(lp84
I01
aI00
aI00
aI00
aI00
aI00
aI00
aI00
aI00
aI00
aI00
aI00
aI00
aI00
aI00
aI00
aI00
aI01
aa(lp85
I01
aI00
aI00
aI00
aI00
aI00
aI00
aI00
aI00
aI00
aI00
aI00
aI00
aI00
aI00
aI00
aI00
aI01
aa(lp86
I01
aI01
aI01
aI00
aI01
aI01
aI01
aI00
aI01
aI01
aI00
aI01
aI00
aI01
aI00
aI00
aI01
aI01
aa(lp87
I01
aI00
aI01
aI00
aI00
aI00
aI01
aI00
aI00
aI01
aI00
aI00
aI00
aI01
aI00
aI00
aI00
aI01
aa(lp88
I01
aI00
aI00
aI00
aI01
aI00
aI00
aI00
aI00
aI00
aI00
aI01
aI00
aI00
aI00
aI00
aI00
aI01
aa(lp89
I01
aI01
aI01
aI01
aI01
aI01
aI01
aI00
aI01
aI01
aI01
aI01
aI01
aI01
aI00
aI01
aI00
aI01
aa(lp90
I01
aI00
aI01
aI00
aI01
aI00
aI00
aI00
aI00
aI00
aI00
aI00
aI00
aI01
aI00
aI01
aI00
aI01
aa(lp91
I01
aI00
aI00
aI00
aI01
aI01
aI01
aI01
aI01
aI00
aI01
aI01
aI01
aI01
aI00
aI01
aI00
aI01
aa(lp92
I01
aI00
aI01
aI00
aI01
aI00
aI01
aI00
aI00
aI00
aI01
aI00
aI00
aI01
aI00
aI00
aI00
aI01
aa(lp93
I01
aI00
aI01
aI00
aI01
aI00
aI01
aI00
aI01
aI00
aI01
aI00
aI00
aI01
aI00
aI01
aI00
aI01
aa(lp94
I01
aI00
aI01
aI00
aI01
aI00
aI00
aI00
aI00
aI00
aI01
aI00
aI00
aI01
aI00
aI01
aI00
aI01
aa(lp95
I01
aI01
aI01
aI00
aI01
aI00
aI01
aI01
aI00
aI00
aI00
aI00
aI00
aI01
aI00
aI01
aI00
aI01
aa(lp96
I01
aI00
aI00
aI00
aI01
aI00
aI01
aI00
aI00
aI00
aI01
aI00
aI00
aI01
aI00
aI01
aI00
aI01
aa(lp97
I01
aI00
aI01
aI00
aI01
aI01
aI01
aI00
aI01
aI01
aI01
aI00
aI00
aI01
aI00
aI01
aI00
aI01
aa(lp98
I01
aI00
aI01
aI00
aI00
aI00
aI00
aI00
aI00
aI00
aI01
aI00
aI00
aI01
aI00
aI01
aI00
aI01
aa(lp99
I01
aI00
aI01
aI01
aI01
aI01
aI01
aI01
aI01
aI01
aI01
aI01
aI01
aI01
aI00
aI00
aI00
aI01
aa(lp100
I01
aI00
aI00
aI00
aI00
aI00
aI00
aI00
aI00
aI00
aI00
aI00
aI00
aI00
aI00
aI00
aI00
aI01
aa(lp101
I01
aI01
aI01
aI01
aI01
aI01
aI01
aI01
aI01
aI01
aI01
aI01
aI01
aI01
aI01
aI01
aI01
aI01
aasg53
I18
sbsS'totalFood'
p102
I60
sS'layoutText'
p103
(lp104
S'%%%%%%%%%%%%%%%%%%%%%%%%%%%%%%%%%%'
p105
aS'%. .  %... .%..% .%   o         4%'
p106
aS'% %%%.%%%% %% %%     %%% %%%%%% 2%'
p107
aS'%.%        .%              .     %'
p108
aS'% % %%%%%%%%%% %  %% %%%%%%%%%%% %'
p109
aS'% % %.. ..%.%  %     %.%       % %'
p110
aS'% % %%% %%%.% %%  % %%.%  . .  % %'
p111
aS'% %   % . %          % %%%% %%%%.%'
p112
aS'% %.%   %.% % o% .%% %   .   %.% %'
p113
aS'% %.%   .   % %%. %o % %.%   %.% %'
p114
aS'%.%%%% %%%% %          % . %   % %'
p115
aS'% %  . .  %.%% %  %% %.%%% %%% % %'
p116
aS'% %       %.%     %  %.%.. ..% % %'
p117
aS'% %%%%%%%%%%% %%  % %%%%%%%%%% % %'
p118
aS'%     .    o         %.        %.%'
p119
aS'%1 %%%%%% %%%     %% %% %%%%.%%% %'
p120
aS'%3             %. %..%. ...%  . .%'
p121
aS'%%%%%%%%%%%%%%%%%%%%%%%%%%%%%%%%%%'
p122
asbsS'blueTeamName'
p123
S'Blue'
p124
sS'actions'
p125
(lp126
(I0
S'East'
p127
tp128
a(I1
S'South'
p129
tp130
a(I2
g127
tp131
a(I3
g129
tp132
a(I0
S'North'
p133
tp134
a(I1
S'West'
p135
tp136
a(I2
g127
tp137
a(I3
g129
tp138
a(I0
g127
tp139
a(I1
g135
tp140
a(I2
g127
tp141
a(I3
g129
tp142
a(I0
g127
tp143
a(I1
g135
tp144
a(I2
g127
tp145
a(I3
g129
tp146
a(I0
g127
tp147
a(I1
g135
tp148
a(I2
g127
tp149
a(I3
g129
tp150
a(I0
g127
tp151
a(I1
g135
tp152
a(I2
g127
tp153
a(I3
g129
tp154
a(I0
g127
tp155
a(I1
g135
tp156
a(I2
g127
tp157
a(I3
g129
tp158
a(I0
g127
tp159
a(I1
g135
tp160
a(I2
g127
tp161
a(I3
g133
tp162
a(I0
g127
tp163
a(I1
g135
tp164
a(I2
g127
tp165
a(I3
g133
tp166
a(I0
g127
tp167
a(I1
g135
tp168
a(I2
g127
tp169
a(I3
g129
tp170
a(I0
g127
tp171
a(I1
g135
tp172
a(I2
g127
tp173
a(I3
g133
tp174
a(I0
g127
tp175
a(I1
g135
tp176
a(I2
g127
tp177
a(I3
g129
tp178
a(I0
g127
tp179
a(I1
g135
tp180
a(I2
g127
tp181
a(I3
g133
tp182
a(I0
g127
tp183
a(I1
g135
tp184
a(I2
g133
tp185
a(I3
g129
tp186
a(I0
g127
tp187
a(I1
g135
tp188
a(I2
g127
tp189
a(I3
g133
tp190
a(I0
g127
tp191
a(I1
g135
tp192
a(I2
g127
tp193
a(I3
g129
tp194
a(I0
g127
tp195
a(I1
g135
tp196
a(I2
g127
tp197
a(I3
g133
tp198
a(I0
g127
tp199
a(I1
g135
tp200
a(I2
g133
tp201
a(I3
g129
tp202
a(I0
g127
tp203
a(I1
g135
tp204
a(I2
g127
tp205
a(I3
g133
tp206
a(I0
g127
tp207
a(I1
g135
tp208
a(I2
g127
tp209
a(I3
g129
tp210
a(I0
g129
tp211
a(I1
g133
tp212
a(I2
g127
tp213
a(I3
g129
tp214
a(I0
g129
tp215
a(I1
g133
tp216
a(I2
g135
tp217
a(I3
g133
tp218
a(I0
g135
tp219
a(I1
g127
tp220
a(I2
g133
tp221
a(I3
g133
tp222
a(I0
g127
tp223
a(I1
g135
tp224
a(I2
g133
tp225
a(I3
g129
tp226
a(I0
g133
tp227
a(I1
g129
tp228
a(I2
g127
tp229
a(I3
g133
tp230
a(I0
g133
tp231
a(I1
g129
tp232
a(I2
g133
tp233
a(I3
g129
tp234
a(I0
g135
tp235
a(I1
g127
tp236
a(I2
g133
tp237
a(I3
g133
tp238
a(I0
g135
tp239
a(I1
g129
tp240
a(I2
g127
tp241
a(I3
g129
tp242
a(I0
g135
tp243
a(I1
g129
tp244
a(I2
g127
tp245
a(I3
g129
tp246
a(I0
g133
tp247
a(I1
g135
tp248
a(I2
g129
tp249
a(I3
g133
tp250
a(I0
g133
tp251
a(I1
g129
tp252
a(I2
g129
tp253
a(I3
g133
tp254
a(I0
g133
tp255
a(I1
g129
tp256
a(I2
g133
tp257
a(I3
g129
tp258
a(I0
g133
tp259
a(I1
g135
tp260
a(I2
g133
tp261
a(I3
g133
tp262
a(I0
g133
tp263
a(I1
g135
tp264
a(I2
g133
tp265
a(I3
g129
tp266
a(I0
g133
tp267
a(I1
g133
tp268
a(I2
g133
tp269
a(I3
g129
tp270
a(I0
g133
tp271
a(I1
g133
tp272
a(I2
g133
tp273
a(I3
g133
tp274
a(I0
g133
tp275
a(I1
g129
tp276
a(I2
g133
tp277
a(I3
g129
tp278
a(I0
g133
tp279
a(I1
g129
tp280
a(I2
g133
tp281
a(I3
g133
tp282
a(I0
g133
tp283
a(I1
g129
tp284
a(I2
g129
tp285
a(I3
g129
tp286
a(I0
g133
tp287
a(I1
g129
tp288
a(I2
g129
tp289
a(I3
g133
tp290
a(I0
g133
tp291
a(I1
g129
tp292
a(I2
g129
tp293
a(I3
g133
tp294
a(I0
g133
tp295
a(I1
g129
tp296
a(I2
g127
tp297
a(I3
g129
tp298
a(I0
g129
tp299
a(I1
g129
tp300
a(I2
g127
tp301
a(I3
g133
tp302
a(I0
g127
tp303
a(I1
g133
tp304
a(I2
g127
tp305
a(I3
g129
tp306
a(I0
g127
tp307
a(I1
g133
tp308
a(I2
g135
tp309
a(I3
g129
tp310
a(I0
g127
tp311
a(I1
g133
tp312
a(I2
g129
tp313
a(I3
g133
tp314
a(I0
g129
tp315
a(I1
g135
tp316
a(I2
g129
tp317
a(I3
g129
tp318
a(I0
g127
tp319
a(I1
g135
tp320
a(I2
g127
tp321
a(I3
g133
tp322
a(I0
g127
tp323
a(I1
g135
tp324
a(I2
g127
tp325
a(I3
g129
tp326
a(I0
g127
tp327
a(I1
g127
tp328
a(I2
g129
tp329
a(I3
g133
tp330
a(I0
g127
tp331
a(I1
g133
tp332
a(I2
g129
tp333
a(I3
g129
tp334
a(I0
g127
tp335
a(I1
g133
tp336
a(I2
g127
tp337
a(I3
g133
tp338
a(I0
g127
tp339
a(I1
g135
tp340
a(I2
g135
tp341
a(I3
g129
tp342
a(I0
g127
tp343
a(I1
g135
tp344
a(I2
g135
tp345
a(I3
g133
tp346
a(I0
g135
tp347
a(I1
g133
tp348
a(I2
g135
tp349
a(I3
g133
tp350
a(I0
g135
tp351
a(I1
g133
tp352
a(I2
g127
tp353
a(I3
g129
tp354
a(I0
g135
tp355
a(I1
g127
tp356
a(I2
g127
tp357
a(I3
g133
tp358
a(I0
g135
tp359
a(I1
g127
tp360
a(I2
g127
tp361
a(I3
g129
tp362
a(I0
g135
tp363
a(I1
g135
tp364
a(I2
g127
tp365
a(I3
g133
tp366
a(I0
g135
tp367
a(I1
g135
tp368
a(I2
g135
tp369
a(I3
g129
tp370
a(I0
g135
tp371
a(I1
g135
tp372
a(I2
g135
tp373
a(I3
g129
tp374
a(I0
g135
tp375
a(I1
g135
tp376
a(I2
g133
tp377
a(I3
g133
tp378
a(I0
g127
tp379
a(I1
g127
tp380
a(I2
g133
tp381
a(I3
g133
tp382
a(I0
g127
tp383
a(I1
g127
tp384
a(I2
g133
tp385
a(I3
g129
tp386
a(I0
g127
tp387
a(I1
g129
tp388
a(I2
g127
tp389
a(I3
g129
tp390
a(I0
g127
tp391
a(I1
g129
tp392
a(I2
g133
tp393
a(I3
g133
tp394
a(I0
g127
tp395
a(I1
g129
tp396
a(I2
g133
tp397
a(I3
g129
tp398
a(I0
g127
tp399
a(I1
g129
tp400
a(I2
g133
tp401
a(I3
g133
tp402
a(I0
g127
tp403
a(I1
g135
tp404
a(I2
g135
tp405
a(I3
g133
tp406
a(I0
g127
tp407
a(I1
g129
tp408
a(I2
g127
tp409
a(I3
g129
tp410
a(I0
g127
tp411
a(I1
g129
tp412
a(I2
g127
tp413
a(I3
g129
tp414
a(I0
g127
tp415
a(I1
g135
tp416
a(I2
g135
tp417
a(I3
g133
tp418
a(I0
g127
tp419
a(I1
g127
tp420
a(I2
g129
tp421
a(I3
g133
tp422
a(I0
g127
tp423
a(I1
g127
tp424
a(I2
g129
tp425
a(I3
g129
tp426
a(I0
g133
tp427
a(I1
g135
tp428
a(I2
g127
tp429
a(I3
g129
tp430
a(I0
g133
tp431
a(I1
g133
tp432
a(I2
g129
tp433
a(I3
g133
tp434
a(I0
g127
tp435
a(I1
g133
tp436
a(I2
g129
tp437
a(I3
g133
tp438
a(I0
S'Stop'
p439
tp440
a(I1
g133
tp441
a(I2
g127
tp442
a(I3
g129
tp443
a(I0
g439
tp444
a(I1
g135
tp445
a(I2
g127
tp446
a(I3
g133
tp447
a(I0
g439
tp448
a(I1
g133
tp449
a(I2
g133
tp450
a(I3
g129
tp451
a(I0
g439
tp452
a(I1
g135
tp453
a(I2
g133
tp454
a(I3
g129
tp455
a(I0
g439
tp456
a(I1
g135
tp457
a(I2
g129
tp458
a(I3
g133
tp459
a(I0
g439
tp460
a(I1
g129
tp461
a(I2
g129
tp462
a(I3
g129
tp463
a(I0
g439
tp464
a(I1
g129
tp465
a(I2
g135
tp466
a(I3
g133
tp467
a(I0
g439
tp468
a(I1
g133
tp469
a(I2
g135
tp470
a(I3
g129
tp471
a(I0
g439
tp472
a(I1
g133
tp473
a(I2
g133
tp474
a(I3
g133
tp475
a(I0
g439
tp476
a(I1
g133
tp477
a(I2
g135
tp478
a(I3
g133
tp479
a(I0
g439
tp480
a(I1
g133
tp481
a(I2
g135
tp482
a(I3
g129
tp483
a(I0
g439
tp484
a(I1
g133
tp485
a(I2
g133
tp486
a(I3
g133
tp487
a(I0
g439
tp488
a(I1
g133
tp489
a(I2
g135
tp490
a(I3
g129
tp491
a(I0
g439
tp492
a(I1
g127
tp493
a(I2
g135
tp494
a(I3
g133
tp495
a(I0
g439
tp496
a(I1
g127
tp497
a(I2
g135
tp498
a(I3
g129
tp499
a(I0
g439
tp500
a(I1
g133
tp501
a(I2
g135
tp502
a(I3
g133
tp503
a(I0
g439
tp504
a(I1
g133
tp505
a(I2
g127
tp506
a(I3
g129
tp507
a(I0
g439
tp508
a(I1
g135
tp509
a(I2
g135
tp510
a(I3
g133
tp511
a(I0
g439
tp512
a(I1
g135
tp513
a(I2
g127
tp514
a(I3
g129
tp515
a(I0
g439
tp516
a(I1
g135
tp517
a(I2
g135
tp518
a(I3
g133
tp519
a(I0
g439
tp520
a(I1
g135
tp521
a(I2
g127
tp522
a(I3
g129
tp523
a(I0
g439
tp524
a(I1
g129
tp525
a(I2
g135
tp526
a(I3
g129
tp527
a(I0
g439
tp528
a(I1
g129
tp529
a(I2
g127
tp530
a(I3
g133
tp531
a(I0
g439
tp532
a(I1
g129
tp533
a(I2
g135
tp534
a(I3
g129
tp535
a(I0
g439
tp536
a(I1
g129
tp537
a(I2
g127
tp538
a(I3
g133
tp539
a(I0
g439
tp540
a(I1
g129
tp541
a(I2
g135
tp542
a(I3
g133
tp543
a(I0
g439
tp544
a(I1
g129
tp545
a(I2
g127
tp546
a(I3
g129
tp547
a(I0
g439
tp548
a(I1
g129
tp549
a(I2
g135
tp550
a(I3
g129
tp551
a(I0
g439
tp552
a(I1
g129
tp553
a(I2
g127
tp554
a(I3
g133
tp555
a(I0
g439
tp556
a(I1
g129
tp557
a(I2
g135
tp558
a(I3
g133
tp559
a(I0
g439
tp560
a(I1
g129
tp561
a(I2
g127
tp562
a(I3
g129
tp563
a(I0
g439
tp564
a(I1
g129
tp565
a(I2
g135
tp566
a(I3
g133
tp567
a(I0
g439
tp568
a(I1
g129
tp569
a(I2
g127
tp570
a(I3
g129
tp571
a(I0
g439
tp572
a(I1
g129
tp573
a(I2
g135
tp574
a(I3
g129
tp575
a(I0
g439
tp576
a(I1
g127
tp577
a(I2
g127
tp578
a(I3
g133
tp579
a(I0
g439
tp580
a(I1
g127
tp581
a(I2
g135
tp582
a(I3
g129
tp583
a(I0
g439
tp584
a(I1
g127
tp585
a(I2
g127
tp586
a(I3
g133
tp587
a(I0
g439
tp588
a(I1
g127
tp589
a(I2
g135
tp590
a(I3
g133
tp591
a(I0
g439
tp592
a(I1
g127
tp593
a(I2
g127
tp594
a(I3
g129
tp595
a(I0
g439
tp596
a(I1
g127
tp597
a(I2
g135
tp598
a(I3
g133
tp599
a(I0
g439
tp600
a(I1
g127
tp601
a(I2
g127
tp602
a(I3
g129
tp603
a(I0
g439
tp604
a(I1
g127
tp605
a(I2
g135
tp606
a(I3
g133
tp607
a(I0
g439
tp608
a(I1
g127
tp609
a(I2
g127
tp610
a(I3
g129
tp611
a(I0
g439
tp612
a(I1
g127
tp613
a(I2
g135
tp614
a(I3
g129
tp615
a(I0
g439
tp616
a(I1
g127
tp617
a(I2
g127
tp618
a(I3
g133
tp619
a(I0
g439
tp620
a(I1
g127
tp621
a(I2
g135
tp622
a(I3
g129
tp623
a(I0
g439
tp624
a(I1
g127
tp625
a(I2
g127
tp626
a(I3
g133
tp627
a(I0
g439
tp628
a(I1
g127
tp629
a(I2
g135
tp630
a(I3
g133
tp631
a(I0
g439
tp632
a(I1
g127
tp633
a(I2
g127
tp634
a(I3
g129
tp635
a(I0
g439
tp636
a(I1
g129
tp637
a(I2
g135
tp638
a(I3
g129
tp639
a(I0
g439
tp640
a(I1
g129
tp641
a(I2
g127
tp642
a(I3
g133
tp643
a(I0
g439
tp644
a(I1
g133
tp645
a(I2
g135
tp646
a(I3
g129
tp647
a(I0
g439
tp648
a(I1
g133
tp649
a(I2
g127
tp650
a(I3
g133
tp651
a(I0
g439
tp652
a(I1
g133
tp653
a(I2
g135
tp654
a(I3
g129
tp655
a(I0
g439
tp656
a(I1
g133
tp657
a(I2
g127
tp658
a(I3
g133
tp659
a(I0
g439
tp660
a(I1
g133
tp661
a(I2
g135
tp662
a(I3
g129
tp663
a(I0
g439
tp664
a(I1
g133
tp665
a(I2
g127
tp666
a(I3
g133
tp667
a(I0
g439
tp668
a(I1
g133
tp669
a(I2
g135
tp670
a(I3
g129
tp671
a(I0
g439
tp672
a(I1
g133
tp673
a(I2
g127
tp674
a(I3
g133
tp675
a(I0
g439
tp676
a(I1
g133
tp677
a(I2
g135
tp678
a(I3
g133
tp679
a(I0
g439
tp680
a(I1
g127
tp681
a(I2
g127
tp682
a(I3
g129
tp683
a(I0
g129
tp684
a(I1
g135
tp685
a(I2
g135
tp686
a(I3
g129
tp687
a(I0
g129
tp688
a(I1
g135
tp689
a(I2
g127
tp690
a(I3
g133
tp691
a(I0
g135
tp692
a(I1
g135
tp693
a(I2
g135
tp694
a(I3
g133
tp695
a(I0
g127
tp696
a(I1
g135
tp697
a(I2
g127
tp698
a(I3
g129
tp699
a(I0
g129
tp700
a(I1
g135
tp701
a(I2
g135
tp702
a(I3
g133
tp703
a(I0
g129
tp704
a(I1
g135
tp705
a(I2
g127
tp706
a(I3
g133
tp707
a(I0
g127
tp708
a(I1
g129
tp709
a(I2
g127
tp710
a(I3
g133
tp711
a(I0
g135
tp712
a(I1
g129
tp713
a(I2
g127
tp714
a(I3
g129
tp715
a(I0
g129
tp716
a(I1
g135
tp717
a(I2
g127
tp718
a(I3
g129
tp719
a(I0
g127
tp720
a(I1
g135
tp721
a(I2
g127
tp722
a(I3
g129
tp723
a(I0
g135
tp724
a(I1
g135
tp725
a(I2
g133
tp726
a(I3
g133
tp727
a(I0
g127
tp728
a(I1
g135
tp729
a(I2
g133
tp730
a(I3
g129
tp731
a(I0
g135
tp732
a(I1
g135
tp733
a(I2
g127
tp734
a(I3
g133
tp735
a(I0
g127
tp736
a(I1
g133
tp737
a(I2
g127
tp738
a(I3
g129
tp739
a(I0
g135
tp740
a(I1
g135
tp741
a(I2
g127
tp742
a(I3
g129
tp743
a(I0
g127
tp744
a(I1
g133
tp745
a(I2
g133
tp746
a(I3
g133
tp747
a(I0
g135
tp748
a(I1
g135
tp749
a(I2
g135
tp750
a(I3
g133
tp751
a(I0
g127
tp752
a(I1
g135
tp753
a(I2
g135
tp754
a(I3
g129
tp755
a(I0
g135
tp756
a(I1
g133
tp757
a(I2
g135
tp758
a(I3
g129
tp759
a(I0
g127
tp760
a(I1
g133
tp761
a(I2
g129
tp762
a(I3
g133
tp763
a(I0
g135
tp764
a(I1
g133
tp765
a(I2
g129
tp766
a(I3
g129
tp767
a(I0
g127
tp768
a(I1
g133
tp769
a(I2
g129
tp770
a(I3
g133
tp771
a(I0
g135
tp772
a(I1
g127
tp773
a(I2
g127
tp774
a(I3
g133
tp775
a(I0
g127
tp776
a(I1
g127
tp777
a(I2
g129
tp778
a(I3
g133
tp779
a(I0
g135
tp780
a(I1
g127
tp781
a(I2
g129
tp782
a(I3
g133
tp783
a(I0
g127
tp784
a(I1
g127
tp785
a(I2
g127
tp786
a(I3
g133
tp787
a(I0
g135
tp788
a(I1
g127
tp789
a(I2
g127
tp790
a(I3
g135
tp791
a(I0
g127
tp792
a(I1
g127
tp793
a(I2
g129
tp794
a(I3
g127
tp795
a(I0
g135
tp796
a(I1
g127
tp797
a(I2
g129
tp798
a(I3
g135
tp799
a(I0
g127
tp800
a(I1
g127
tp801
a(I2
g129
tp802
a(I3
g127
tp803
a(I0
g135
tp804
a(I1
g135
tp805
a(I2
g129
tp806
a(I3
g129
tp807
a(I0
g127
tp808
a(I1
g133
tp809
a(I2
g135
tp810
a(I3
g129
tp811
a(I0
g135
tp812
a(I1
g133
tp813
a(I2
g135
tp814
a(I3
g133
tp815
a(I0
g127
tp816
a(I1
g135
tp817
a(I2
g129
tp818
a(I3
g129
tp819
a(I0
g135
tp820
a(I1
g135
tp821
a(I2
g129
tp822
a(I3
g133
tp823
a(I0
g127
tp824
a(I1
g127
tp825
a(I2
g127
tp826
a(I3
g133
tp827
a(I0
g135
tp828
a(I1
g127
tp829
a(I2
g127
tp830
a(I3
g133
tp831
a(I0
g127
tp832
a(I1
g129
tp833
a(I2
g127
tp834
a(I3
g133
tp835
a(I0
g135
tp836
a(I1
g129
tp837
a(I2
g127
tp838
a(I3
g439
tp839
a(I0
g127
tp840
a(I1
g135
tp841
a(I2
g133
tp842
a(I3
g439
tp843
a(I0
g135
tp844
a(I1
g135
tp845
a(I2
g133
tp846
a(I3
g439
tp847
a(I0
g127
tp848
a(I1
g135
tp849
a(I2
g133
tp850
a(I3
g439
tp851
a(I0
g135
tp852
a(I1
g135
tp853
a(I2
g133
tp854
a(I3
g439
tp855
a(I0
g127
tp856
a(I1
g135
tp857
a(I2
g133
tp858
a(I3
g439
tp859
a(I0
g135
tp860
a(I1
g135
tp861
a(I2
g133
tp862
a(I3
g439
tp863
a(I0
g127
tp864
a(I1
g135
tp865
a(I2
g133
tp866
a(I3
g439
tp867
a(I0
g135
tp868
a(I1
g129
tp869
a(I2
g133
tp870
a(I3
g439
tp871
a(I0
g127
tp872
a(I1
g129
tp873
a(I2
g133
tp874
a(I3
g439
tp875
a(I0
g135
tp876
a(I1
g129
tp877
a(I2
g133
tp878
a(I3
g439
tp879
a(I0
g127
tp880
a(I1
g129
tp881
a(I2
g133
tp882
a(I3
g439
tp883
a(I0
g135
tp884
a(I1
g127
tp885
a(I2
g133
tp886
a(I3
g439
tp887
a(I0
g127
tp888
a(I1
g127
tp889
a(I2
g133
tp890
a(I3
g439
tp891
a(I0
g135
tp892
a(I1
g129
tp893
a(I2
g135
tp894
a(I3
g439
tp895
a(I0
g127
tp896
a(I1
g127
tp897
a(I2
g135
tp898
a(I3
g439
tp899
a(I0
g135
tp900
a(I1
g127
tp901
a(I2
g135
tp902
a(I3
g439
tp903
a(I0
g127
tp904
a(I1
g129
tp905
a(I2
g135
tp906
a(I3
g439
tp907
a(I0
g135
tp908
a(I1
g127
tp909
a(I2
g135
tp910
a(I3
g439
tp911
a(I0
g127
tp912
a(I1
g127
tp913
a(I2
g135
tp914
a(I3
g439
tp915
a(I0
g135
tp916
a(I1
g127
tp917
a(I2
g135
tp918
a(I3
g439
tp919
a(I0
g127
tp920
a(I1
g127
tp921
a(I2
g135
tp922
a(I3
g439
tp923
a(I0
g135
tp924
a(I1
g133
tp925
a(I2
g135
tp926
a(I3
g439
tp927
a(I0
g127
tp928
a(I1
g133
tp929
a(I2
g135
tp930
a(I3
g439
tp931
a(I0
g135
tp932
a(I1
g127
tp933
a(I2
g135
tp934
a(I3
g439
tp935
a(I0
g127
tp936
a(I1
g127
tp937
a(I2
g135
tp938
a(I3
g439
tp939
a(I0
g135
tp940
a(I1
g127
tp941
a(I2
g135
tp942
a(I3
g439
tp943
a(I0
g127
tp944
a(I1
g127
tp945
a(I2
g135
tp946
a(I3
g439
tp947
a(I0
g135
tp948
a(I1
g127
tp949
a(I2
g135
tp950
a(I3
g439
tp951
a(I0
g127
tp952
a(I1
g127
tp953
asS'length'
p954
I1200
sS'agents'
p955
(lp956
(igame
Agent
p957
(dp958
S'index'
p959
I0
sba(igame
Agent
p960
(dp961
g959
I0
sba(igame
Agent
p962
(dp963
g959
I0
sba(igame
Agent
p964
(dp965
g959
I0
sbasS'redTeamName'
p966
S'Red'
p967
s.