(dp1
S'layout'
p2
(ilayout
Layout
p3
(dp4
S'capsules'
p5
(lp6
(I11
I3
tp7
a(I19
I8
tp8
a(I14
I9
tp9
a(I22
I16
tp10
asS'numGhosts'
p11
I4
sS'food'
p12
(igame
Grid
p13
(dp14
S'CELLS_PER_INT'
p15
I30
sS'width'
p16
I34
sS'data'
p17
(lp18
(lp19
I00
aI00
aI00
aI00
aI00
aI00
aI00
aI00
aI00
aI00
aI00
aI00
aI00
aI00
aI00
aI00
aI00
aI00
aa(lp20
I00
aI00
aI00
aI00
aI00
aI00
aI00
aI01
aI00
aI00
aI00
aI00
aI00
aI00
aI01
aI00
aI01
aI00
aa(lp21
I00
aI00
aI00
aI00
aI00
aI00
aI00
aI00
aI00
aI00
aI00
aI00
aI00
aI00
aI00
aI00
aI00
aI00
aa(lp22
I00
aI00
aI00
aI00
aI00
aI00
aI00
aI00
aI01
aI01
aI00
aI00
aI00
aI00
aI00
aI00
aI01
aI00
aa(lp23
I00
aI00
aI00
aI00
aI00
aI00
aI00
aI00
aI00
aI00
aI00
aI00
aI00
aI00
aI00
aI00
aI00
aI00
aa(lp24
I00
aI00
aI00
aI00
aI00
aI00
aI01
aI00
aI00
aI00
aI00
aI00
aI01
aI00
aI00
aI01
aI00
aI00
aa(lp25
I00
aI00
aI00
aI01
aI00
aI00
aI00
aI00
aI00
aI00
aI00
aI00
aI01
aI00
aI00
aI00
aI00
aI00
aa(lp26
I00
aI00
aI00
aI00
aI00
aI00
aI01
aI00
aI00
aI00
aI00
aI00
aI00
aI00
aI00
aI00
aI01
aI00
aa(lp27
I00
aI00
aI00
aI00
aI00
aI00
aI00
aI00
aI01
aI00
aI01
aI00
aI01
aI00
aI00
aI00
aI01
aI00
aa(lp28
I00
aI00
aI00
aI00
aI00
aI00
aI00
aI00
aI00
aI01
aI00
aI00
aI01
aI00
aI00
aI00
aI01
aI00
aa(lp29
I00
aI00
aI00
aI00
aI00
aI00
aI00
aI00
aI00
aI00
aI00
aI00
aI00
aI00
aI00
aI00
aI00
aI00
aa(lp30
I00
aI00
aI00
aI00
aI00
aI01
aI01
aI00
aI00
aI00
aI00
aI01
aI01
aI00
aI01
aI00
aI01
aI00
aa(lp31
I00
aI00
aI00
aI00
aI00
aI00
aI00
aI00
aI00
aI00
aI00
aI00
aI00
aI00
aI00
aI00
aI00
aI00
aa(lp32
I00
aI00
aI00
aI00
aI00
aI00
aI00
aI00
aI00
aI00
aI00
aI00
aI00
aI00
aI00
aI00
aI01
aI00
aa(lp33
I00
aI00
aI00
aI00
aI00
aI00
aI00
aI00
aI00
aI00
aI00
aI00
aI00
aI00
aI00
aI00
aI01
aI00
aa(lp34
I00
aI00
aI00
aI00
aI00
aI00
aI00
aI00
aI00
aI00
aI00
aI00
aI00
aI00
aI00
aI00
aI00
aI00
aa(lp35
I00
aI01
aI00
aI00
aI00
aI00
aI00
aI00
aI01
aI00
aI00
aI00
aI00
aI00
aI00
aI00
aI00
aI00
aa(lp36
I00
aI00
aI00
aI00
aI00
aI00
aI00
aI00
aI00
aI01
aI00
aI00
aI00
aI00
aI00
aI00
aI01
aI00
aa(lp37
I00
aI00
aI00
aI00
aI00
aI00
aI00
aI00
aI00
aI00
aI00
aI00
aI00
aI00
aI00
aI00
aI00
aI00
aa(lp38
I00
aI01
aI00
aI00
aI00
aI00
aI00
aI00
aI00
aI00
aI00
aI00
aI00
aI00
aI00
aI00
aI00
aI00
aa(lp39
I00
aI01
aI00
aI00
aI00
aI00
aI00
aI00
aI00
aI00
aI00
aI00
aI00
aI00
aI00
aI00
aI00
aI00
aa(lp40
I00
aI00
aI00
aI00
aI00
aI00
aI00
aI00
aI00
aI00
aI00
aI00
aI00
aI00
aI00
aI00
aI00
aI00
aa(lp41
I00
aI01
aI00
aI01
aI00
aI01
aI01
aI00
aI00
aI00
aI00
aI01
aI01
aI00
aI00
aI00
aI00
aI00
aa(lp42
I00
aI00
aI00
aI00
aI00
aI00
aI00
aI00
aI00
aI00
aI00
aI00
aI00
aI00
aI00
aI00
aI00
aI00
aa(lp43
I00
aI01
aI00
aI00
aI00
aI01
aI00
aI00
aI01
aI00
aI00
aI00
aI00
aI00
aI00
aI00
aI00
aI00
aa(lp44
I00
aI01
aI00
aI00
aI00
aI01
aI00
aI01
aI00
aI01
aI00
aI00
aI00
aI00
aI00
aI00
aI00
aI00
aa(lp45
I00
aI01
aI00
aI00
aI00
aI00
aI00
aI00
aI00
aI00
aI00
aI01
aI00
aI00
aI00
aI00
aI00
aI00
aa(lp46
I00
aI00
aI00
aI00
aI00
aI01
aI00
aI00
aI00
aI00
aI00
aI00
aI00
aI00
aI01
aI00
aI00
aI00
aa(lp47
I00
aI00
aI01
aI00
aI00
aI01
aI00
aI00
aI00
aI00
aI00
aI01
aI00
aI00
aI00
aI00
aI00
aI00
aa(lp48
I00
aI00
aI00
aI00
aI00
aI00
aI00
aI00
aI00
aI00
aI00
aI00
aI00
aI00
aI00
aI00
aI00
aI00
aa(lp49
I00
aI01
aI00
aI00
aI00
aI00
aI00
aI00
aI01
aI01
aI00
aI00
aI00
aI00
aI00
aI00
aI00
aI00
aa(lp50
I00
aI00
aI00
aI00
aI00
aI00
aI00
aI00
aI00
aI00
aI00
aI00
aI00
aI00
aI00
aI00
aI00
aI00
aa(lp51
I00
aI01
aI00
aI01
aI00
aI00
aI00
aI00
aI00
aI00
aI01
aI00
aI00
aI00
aI00
aI00
aI00
aI00
aa(lp52
I00
aI00
aI00
aI00
aI00
aI00
aI00
aI00
aI00
aI00
aI00
aI00
aI00
aI00
aI00
aI00
aI00
aI00
aasS'height'
p53
I18
sbsS'agentPositions'
p54
(lp55
(I00
(I1
I2
tp56
tp57
a(I00
(I32
I15
tp58
tp59
a(I00
(I1
I1
tp60
tp61
a(I00
(I32
I16
tp62
tp63
asg53
I18
sg16
I34
sS'walls'
p64
(igame
Grid
p65
(dp66
g15
I30
sg16
I34
sg17
(lp67
(lp68
I01
aI01
aI01
aI01
aI01
aI01
aI01
aI01
aI01
aI01
aI01
aI01
aI01
aI01
aI01
aI01
aI01
aI01
aa(lp69
I01
aI00
aI00
aI00
aI00
aI00
aI00
aI00
aI00
aI00
aI00
aI00
aI00
aI00
aI00
aI00
aI00
aI01
aa(lp70
I01
aI00
aI00
aI00
aI01
aI01
aI01
aI01
aI01
aI01
aI01
aI01
aI01
aI01
aI01
aI01
aI00
aI01
aa(lp71
I01
aI00
aI01
aI00
aI01
aI00
aI00
aI01
aI00
aI00
aI00
aI00
aI00
aI00
aI00
aI01
aI00
aI01
aa(lp72
I01
aI00
aI01
aI00
aI01
aI00
aI00
aI01
aI01
aI01
aI00
aI01
aI01
aI01
aI00
aI01
aI00
aI01
aa(lp73
I01
aI00
aI01
aI00
aI01
aI00
aI00
aI01
aI00
aI00
aI00
aI01
aI00
aI01
aI00
aI00
aI00
aI01
aa(lp74
I01
aI00
aI01
aI00
aI01
aI00
aI00
aI00
aI00
aI00
aI01
aI01
aI00
aI01
aI00
aI01
aI01
aI01
aa(lp75
I01
aI00
aI01
aI00
aI01
aI00
aI00
aI01
aI00
aI00
aI00
aI00
aI00
aI01
aI00
aI01
aI00
aI01
aa(lp76
I01
aI00
aI01
aI00
aI01
aI00
aI00
aI01
aI00
aI01
aI00
aI01
aI00
aI01
aI00
aI01
aI00
aI01
aa(lp77
I01
aI00
aI00
aI00
aI01
aI00
aI00
aI01
aI00
aI00
aI00
aI01
aI00
aI01
aI00
aI01
aI00
aI01
aa(lp78
I01
aI00
aI01
aI00
aI01
aI01
aI01
aI01
aI00
aI01
aI01
aI01
aI01
aI01
aI00
aI00
aI00
aI01
aa(lp79
I01
aI00
aI01
aI00
aI01
aI00
aI00
aI00
aI00
aI00
aI00
aI00
aI00
aI01
aI00
aI01
aI00
aI01
aa(lp80
I01
aI00
aI01
aI00
aI01
aI01
aI01
aI01
aI01
aI01
aI00
aI01
aI01
aI01
aI01
aI01
aI01
aI01
aa(lp81
I01
aI00
aI00
aI00
aI00
aI00
aI01
aI00
aI00
aI00
aI00
aI00
aI00
aI01
aI00
aI00
aI00
aI01
aa(lp82
I01
aI00
aI00
aI00
aI01
aI00
aI00
aI00
aI01
aI00
aI00
aI01
aI00
aI00
aI00
aI01
aI00
aI01
aa(lp83
I01
aI01
aI00
aI00
aI01
aI00
aI01
aI00
aI01
aI01
aI00
aI01
aI01
aI01
aI00
aI01
aI01
aI01
aa(lp84
I01
aI00
aI00
aI00
aI00
aI00
aI00
aI00
aI00
aI00
aI00
aI00
aI00
aI00
aI00
aI00
aI00
aI01
aa(lp85
I01
aI00
aI00
aI00
aI00
aI00
aI00
aI00
aI00
aI00
aI00
aI00
aI00
aI00
aI00
aI00
aI00
aI01
aa(lp86
I01
aI01
aI01
aI00
aI01
aI01
aI01
aI00
aI01
aI01
aI00
aI01
aI00
aI01
aI00
aI00
aI01
aI01
aa(lp87
I01
aI00
aI01
aI00
aI00
aI00
aI01
aI00
aI00
aI01
aI00
aI00
aI00
aI01
aI00
aI00
aI00
aI01
aa(lp88
I01
aI00
aI00
aI00
aI01
aI00
aI00
aI00
aI00
aI00
aI00
aI01
aI00
aI00
aI00
aI00
aI00
aI01
aa(lp89
I01
aI01
aI01
aI01
aI01
aI01
aI01
aI00
aI01
aI01
aI01
aI01
aI01
aI01
aI00
aI01
aI00
aI01
aa(lp90
I01
aI00
aI01
aI00
aI01
aI00
aI00
aI00
aI00
aI00
aI00
aI00
aI00
aI01
aI00
aI01
aI00
aI01
aa(lp91
I01
aI00
aI00
aI00
aI01
aI01
aI01
aI01
aI01
aI00
aI01
aI01
aI01
aI01
aI00
aI01
aI00
aI01
aa(lp92
I01
aI00
aI01
aI00
aI01
aI00
aI01
aI00
aI00
aI00
aI01
aI00
aI00
aI01
aI00
aI00
aI00
aI01
aa(lp93
I01
aI00
aI01
aI00
aI01
aI00
aI01
aI00
aI01
aI00
aI01
aI00
aI00
aI01
aI00
aI01
aI00
aI01
aa(lp94
I01
aI00
aI01
aI00
aI01
aI00
aI00
aI00
aI00
aI00
aI01
aI00
aI00
aI01
aI00
aI01
aI00
aI01
aa(lp95
I01
aI01
aI01
aI00
aI01
aI00
aI01
aI01
aI00
aI00
aI00
aI00
aI00
aI01
aI00
aI01
aI00
aI01
aa(lp96
I01
aI00
aI00
aI00
aI01
aI00
aI01
aI00
aI00
aI00
aI01
aI00
aI00
aI01
aI00
aI01
aI00
aI01
aa(lp97
I01
aI00
aI01
aI00
aI01
aI01
aI01
aI00
aI01
aI01
aI01
aI00
aI00
aI01
aI00
aI01
aI00
aI01
aa(lp98
I01
aI00
aI01
aI00
aI00
aI00
aI00
aI00
aI00
aI00
aI01
aI00
aI00
aI01
aI00
aI01
aI00
aI01
aa(lp99
I01
aI00
aI01
aI01
aI01
aI01
aI01
aI01
aI01
aI01
aI01
aI01
aI01
aI01
aI00
aI00
aI00
aI01
aa(lp100
I01
aI00
aI00
aI00
aI00
aI00
aI00
aI00
aI00
aI00
aI00
aI00
aI00
aI00
aI00
aI00
aI00
aI01
aa(lp101
I01
aI01
aI01
aI01
aI01
aI01
aI01
aI01
aI01
aI01
aI01
aI01
aI01
aI01
aI01
aI01
aI01
aI01
aasg53
I18
sbsS'totalFood'
p102
I60
sS'layoutText'
p103
(lp104
S'%%%%%%%%%%%%%%%%%%%%%%%%%%%%%%%%%%'
p105
aS'%. .  %... .%..% .%   o         4%'
p106
aS'% %%%.%%%% %% %%     %%% %%%%%% 2%'
p107
aS'%.%        .%              .     %'
p108
aS'% % %%%%%%%%%% %  %% %%%%%%%%%%% %'
p109
aS'% % %.. ..%.%  %     %.%       % %'
p110
aS'% % %%% %%%.% %%  % %%.%  . .  % %'
p111
aS'% %   % . %          % %%%% %%%%.%'
p112
aS'% %.%   %.% % o% .%% %   .   %.% %'
p113
aS'% %.%   .   % %%. %o % %.%   %.% %'
p114
aS'%.%%%% %%%% %          % . %   % %'
p115
aS'% %  . .  %.%% %  %% %.%%% %%% % %'
p116
aS'% %       %.%     %  %.%.. ..% % %'
p117
aS'% %%%%%%%%%%% %%  % %%%%%%%%%% % %'
p118
aS'%     .    o         %.        %.%'
p119
aS'%1 %%%%%% %%%     %% %% %%%%.%%% %'
p120
aS'%3             %. %..%. ...%  . .%'
p121
aS'%%%%%%%%%%%%%%%%%%%%%%%%%%%%%%%%%%'
p122
asbsS'blueTeamName'
p123
S'Blue'
p124
sS'actions'
p125
(lp126
(I1
S'South'
p127
tp128
a(I2
S'East'
p129
tp130
a(I3
g127
tp131
a(I0
g129
tp132
a(I1
S'West'
p133
tp134
a(I2
g129
tp135
a(I3
g127
tp136
a(I0
S'North'
p137
tp138
a(I1
g133
tp139
a(I2
g129
tp140
a(I3
g133
tp141
a(I0
g129
tp142
a(I1
g133
tp143
a(I2
g129
tp144
a(I3
g133
tp145
a(I0
g129
tp146
a(I1
g133
tp147
a(I2
g129
tp148
a(I3
g133
tp149
a(I0
g129
tp150
a(I1
g133
tp151
a(I2
g129
tp152
a(I3
g133
tp153
a(I0
g129
tp154
a(I1
g133
tp155
a(I2
g129
tp156
a(I3
g133
tp157
a(I0
g129
tp158
a(I1
g133
tp159
a(I2
g129
tp160
a(I3
g133
tp161
a(I0
g129
tp162
a(I1
g133
tp163
a(I2
g129
tp164
a(I3
g133
tp165
a(I0
g129
tp166
a(I1
g133
tp167
a(I2
g129
tp168
a(I3
g133
tp169
a(I0
g129
tp170
a(I1
g133
tp171
a(I2
g129
tp172
a(I3
g133
tp173
a(I0
g129
tp174
a(I1
g133
tp175
a(I2
g129
tp176
a(I3
g133
tp177
a(I0
g129
tp178
a(I1
g133
tp179
a(I2
g137
tp180
a(I3
g133
tp181
a(I0
g129
tp182
a(I1
g127
tp183
a(I2
g137
tp184
a(I3
g133
tp185
a(I0
g129
tp186
a(I1
g127
tp187
a(I2
g137
tp188
a(I3
g127
tp189
a(I0
g129
tp190
a(I1
g133
tp191
a(I2
g137
tp192
a(I3
g127
tp193
a(I0
g129
tp194
a(I1
g127
tp195
a(I2
g129
tp196
a(I3
g133
tp197
a(I0
g129
tp198
a(I1
g127
tp199
a(I2
g137
tp200
a(I3
g127
tp201
a(I0
g129
tp202
a(I1
g133
tp203
a(I2
g137
tp204
a(I3
g127
tp205
a(I0
g129
tp206
a(I1
g133
tp207
a(I2
g133
tp208
a(I3
g133
tp209
a(I0
g129
tp210
a(I1
g127
tp211
a(I2
g137
tp212
a(I3
g133
tp213
a(I0
g127
tp214
a(I1
g127
tp215
a(I2
S'Stop'
p216
tp217
a(I3
g127
tp218
a(I0
g127
tp219
a(I1
g133
tp220
a(I2
g216
tp221
a(I3
g127
tp222
a(I0
g137
tp223
a(I1
g129
tp224
a(I2
g216
tp225
a(I3
g127
tp226
a(I0
g137
tp227
a(I1
g127
tp228
a(I2
g216
tp229
a(I3
g127
tp230
a(I0
g133
tp231
a(I1
g127
tp232
a(I2
g216
tp233
a(I3
g137
tp234
a(I0
g133
tp235
a(I1
g127
tp236
a(I2
g216
tp237
a(I3
g127
tp238
a(I0
g133
tp239
a(I1
g127
tp240
a(I2
g216
tp241
a(I3
g137
tp242
a(I0
g133
tp243
a(I1
g127
tp244
a(I2
g216
tp245
a(I3
g137
tp246
a(I0
g216
tp247
a(I1
g216
tp248
a(I2
g216
tp249
a(I3
g137
tp250
a(I0
g216
tp251
a(I1
g216
tp252
a(I2
g216
tp253
a(I3
g137
tp254
a(I0
g216
tp255
a(I1
g216
tp256
a(I2
g216
tp257
a(I3
g133
tp258
a(I0
g216
tp259
a(I1
g216
tp260
a(I2
g216
tp261
a(I3
g133
tp262
a(I0
g216
tp263
a(I1
g216
tp264
a(I2
g216
tp265
a(I3
g133
tp266
a(I0
g216
tp267
a(I1
g216
tp268
a(I2
g216
tp269
a(I3
g127
tp270
a(I0
g216
tp271
a(I1
g216
tp272
a(I2
g216
tp273
a(I3
g137
tp274
a(I0
g216
tp275
a(I1
g216
tp276
a(I2
g216
tp277
a(I3
g133
tp278
a(I0
g216
tp279
a(I1
g216
tp280
a(I2
g216
tp281
a(I3
g133
tp282
a(I0
g216
tp283
a(I1
g216
tp284
a(I2
g216
tp285
a(I3
g133
tp286
a(I0
g216
tp287
a(I1
g216
tp288
a(I2
g216
tp289
a(I3
g137
tp290
a(I0
g216
tp291
a(I1
g216
tp292
a(I2
g216
tp293
a(I3
g137
tp294
a(I0
g216
tp295
a(I1
g216
tp296
a(I2
g216
tp297
a(I3
g127
tp298
a(I0
g216
tp299
a(I1
g216
tp300
a(I2
g216
tp301
a(I3
g127
tp302
a(I0
g216
tp303
a(I1
g216
tp304
a(I2
g216
tp305
a(I3
g127
tp306
a(I0
g216
tp307
a(I1
g216
tp308
a(I2
g216
tp309
a(I3
g127
tp310
a(I0
g216
tp311
a(I1
g216
tp312
a(I2
g216
tp313
a(I3
g127
tp314
a(I0
g216
tp315
a(I1
g216
tp316
a(I2
g216
tp317
a(I3
g127
tp318
a(I0
g216
tp319
a(I1
g216
tp320
a(I2
g216
tp321
a(I3
g127
tp322
a(I0
g216
tp323
a(I1
g216
tp324
a(I2
g216
tp325
a(I3
g137
tp326
a(I0
g216
tp327
a(I1
g216
tp328
a(I2
g216
tp329
a(I3
g137
tp330
a(I0
g216
tp331
a(I1
g216
tp332
a(I2
g216
tp333
a(I3
g137
tp334
a(I0
g216
tp335
a(I1
g216
tp336
a(I2
g216
tp337
a(I3
g133
tp338
a(I0
g216
tp339
a(I1
g216
tp340
a(I2
g216
tp341
a(I3
g133
tp342
a(I0
g216
tp343
a(I1
g216
tp344
a(I2
g216
tp345
a(I3
g137
tp346
a(I0
g216
tp347
a(I1
g216
tp348
a(I2
g216
tp349
a(I3
g137
tp350
a(I0
g216
tp351
a(I1
g216
tp352
a(I2
g216
tp353
a(I3
g127
tp354
a(I0
g216
tp355
a(I1
g216
tp356
a(I2
g216
tp357
a(I3
g127
tp358
a(I0
g216
tp359
a(I1
g216
tp360
a(I2
g216
tp361
a(I3
g129
tp362
a(I0
g216
tp363
a(I1
g216
tp364
a(I2
g216
tp365
a(I3
g129
tp366
a(I0
g216
tp367
a(I1
g216
tp368
a(I2
g216
tp369
a(I3
g137
tp370
a(I0
g216
tp371
a(I1
g216
tp372
a(I2
g216
tp373
a(I3
g137
tp374
a(I0
g216
tp375
a(I1
g216
tp376
a(I2
g216
tp377
a(I3
g129
tp378
a(I0
g216
tp379
a(I1
g216
tp380
a(I2
g216
tp381
a(I3
g129
tp382
a(I0
g216
tp383
a(I1
g216
tp384
a(I2
g216
tp385
a(I3
g127
tp386
a(I0
g216
tp387
a(I1
g216
tp388
a(I2
g216
tp389
a(I3
g127
tp390
a(I0
g216
tp391
a(I1
g216
tp392
a(I2
g216
tp393
a(I3
g127
tp394
a(I0
g216
tp395
a(I1
g216
tp396
a(I2
g216
tp397
a(I3
g129
tp398
a(I0
g216
tp399
a(I1
g216
tp400
a(I2
g216
tp401
a(I3
g127
tp402
a(I0
g216
tp403
a(I1
g216
tp404
a(I2
g216
tp405
a(I3
g127
tp406
a(I0
g216
tp407
a(I1
g216
tp408
a(I2
g216
tp409
a(I3
g133
tp410
a(I0
g216
tp411
a(I1
g216
tp412
a(I2
g216
tp413
a(I3
g127
tp414
a(I0
g216
tp415
a(I1
g216
tp416
a(I2
g216
tp417
a(I3
g127
tp418
a(I0
g216
tp419
a(I1
g216
tp420
a(I2
g216
tp421
a(I3
g133
tp422
a(I0
g216
tp423
a(I1
g216
tp424
a(I2
g216
tp425
a(I3
g133
tp426
a(I0
g216
tp427
a(I1
g216
tp428
a(I2
g216
tp429
a(I3
g133
tp430
a(I0
g216
tp431
a(I1
g216
tp432
a(I2
g216
tp433
a(I3
g133
tp434
a(I0
g216
tp435
a(I1
g216
tp436
a(I2
g216
tp437
a(I3
g133
tp438
a(I0
g216
tp439
a(I1
g216
tp440
a(I2
g216
tp441
a(I3
g133
tp442
a(I0
g216
tp443
a(I1
g216
tp444
a(I2
g216
tp445
a(I3
g133
tp446
a(I0
g216
tp447
a(I1
g216
tp448
a(I2
g216
tp449
a(I3
g133
tp450
a(I0
g216
tp451
a(I1
g216
tp452
a(I2
g216
tp453
a(I3
g133
tp454
a(I0
g216
tp455
a(I1
g216
tp456
a(I2
g216
tp457
a(I3
g133
tp458
a(I0
g216
tp459
a(I1
g216
tp460
a(I2
g216
tp461
a(I3
g133
tp462
a(I0
g216
tp463
a(I1
g216
tp464
a(I2
g216
tp465
a(I3
g133
tp466
a(I0
g216
tp467
a(I1
g216
tp468
a(I2
g216
tp469
a(I3
g137
tp470
a(I0
g216
tp471
a(I1
g216
tp472
a(I2
g216
tp473
a(I3
g137
tp474
a(I0
g216
tp475
a(I1
g216
tp476
a(I2
g216
tp477
a(I3
g137
tp478
a(I0
g216
tp479
a(I1
g216
tp480
a(I2
g216
tp481
a(I3
g137
tp482
a(I0
g216
tp483
a(I1
g216
tp484
a(I2
g216
tp485
a(I3
g137
tp486
a(I0
g216
tp487
a(I1
g216
tp488
a(I2
g216
tp489
a(I3
g137
tp490
a(I0
g216
tp491
a(I1
g216
tp492
a(I2
g216
tp493
a(I3
g127
tp494
a(I0
g216
tp495
a(I1
g216
tp496
a(I2
g216
tp497
a(I3
g127
tp498
a(I0
g216
tp499
a(I1
g216
tp500
a(I2
g216
tp501
a(I3
g127
tp502
a(I0
g216
tp503
a(I1
g216
tp504
a(I2
g216
tp505
a(I3
g127
tp506
a(I0
g216
tp507
a(I1
g216
tp508
a(I2
g216
tp509
a(I3
g127
tp510
a(I0
g216
tp511
a(I1
g216
tp512
a(I2
g216
tp513
a(I3
g127
tp514
a(I0
g216
tp515
a(I1
g216
tp516
a(I2
g216
tp517
a(I3
g129
tp518
a(I0
g216
tp519
a(I1
g216
tp520
a(I2
g216
tp521
a(I3
g129
tp522
a(I0
g216
tp523
a(I1
g216
tp524
a(I2
g216
tp525
a(I3
g129
tp526
a(I0
g216
tp527
a(I1
g216
tp528
a(I2
g216
tp529
a(I3
g129
tp530
a(I0
g216
tp531
a(I1
g216
tp532
a(I2
g216
tp533
a(I3
g129
tp534
a(I0
g216
tp535
a(I1
g216
tp536
a(I2
g216
tp537
a(I3
g129
tp538
a(I0
g216
tp539
a(I1
g216
tp540
a(I2
g216
tp541
a(I3
g129
tp542
a(I0
g216
tp543
a(I1
g216
tp544
a(I2
g216
tp545
a(I3
g129
tp546
a(I0
g216
tp547
a(I1
g216
tp548
a(I2
g216
tp549
a(I3
g129
tp550
a(I0
g216
tp551
a(I1
g216
tp552
a(I2
g216
tp553
a(I3
g129
tp554
a(I0
g216
tp555
a(I1
g216
tp556
a(I2
g216
tp557
a(I3
g129
tp558
a(I0
g216
tp559
a(I1
g216
tp560
a(I2
g216
tp561
a(I3
g129
tp562
a(I0
g216
tp563
a(I1
g216
tp564
a(I2
g216
tp565
a(I3
g129
tp566
a(I0
g216
tp567
a(I1
g216
tp568
a(I2
g216
tp569
a(I3
g129
tp570
a(I0
g216
tp571
a(I1
g216
tp572
a(I2
g216
tp573
a(I3
g129
tp574
a(I0
g129
tp575
a(I1
g216
tp576
a(I2
g129
tp577
a(I3
g129
tp578
a(I0
g137
tp579
a(I1
g137
tp580
a(I2
g129
tp581
a(I3
g127
tp582
a(I0
g129
tp583
a(I1
g137
tp584
a(I2
g129
tp585
a(I3
g127
tp586
a(I0
g129
tp587
a(I1
g137
tp588
a(I2
g129
tp589
a(I3
g133
tp590
a(I0
g129
tp591
a(I1
g137
tp592
a(I2
g129
tp593
a(I3
g137
tp594
a(I0
g129
tp595
a(I1
g127
tp596
a(I2
g129
tp597
a(I3
g137
tp598
a(I0
g129
tp599
a(I1
g127
tp600
a(I2
g129
tp601
a(I3
g137
tp602
a(I0
g129
tp603
a(I1
g127
tp604
a(I2
g129
tp605
a(I3
g137
tp606
a(I0
g129
tp607
a(I1
g127
tp608
a(I2
g129
tp609
a(I3
g137
tp610
a(I0
g129
tp611
a(I1
g127
tp612
a(I2
g129
tp613
a(I3
g137
tp614
a(I0
g129
tp615
a(I1
g137
tp616
a(I2
g129
tp617
a(I3
g137
tp618
a(I0
g129
tp619
a(I1
g216
tp620
a(I2
g216
tp621
a(I3
g137
tp622
a(I0
g129
tp623
a(I1
g216
tp624
a(I2
g216
tp625
a(I3
g137
tp626
a(I0
g129
tp627
a(I1
g216
tp628
a(I2
g216
tp629
a(I3
g137
tp630
a(I0
g129
tp631
a(I1
g216
tp632
a(I2
g216
tp633
a(I3
g137
tp634
a(I0
g129
tp635
a(I1
g216
tp636
a(I2
g216
tp637
a(I3
g137
tp638
a(I0
g137
tp639
a(I1
g137
tp640
a(I2
g216
tp641
a(I3
g137
tp642
a(I0
g137
tp643
a(I1
g137
tp644
a(I2
g216
tp645
a(I3
g133
tp646
a(I0
g137
tp647
a(I1
g137
tp648
a(I2
g216
tp649
a(I3
g133
tp650
a(I0
g137
tp651
a(I1
g137
tp652
a(I2
g216
tp653
a(I3
g133
tp654
a(I0
g137
tp655
a(I1
g137
tp656
a(I2
g216
tp657
a(I3
g137
tp658
a(I0
g137
tp659
a(I1
g137
tp660
a(I2
g216
tp661
a(I3
g137
tp662
a(I0
Ntp663
asS'length'
p664
I1200
sS'agents'
p665
(lp666
(igame
Agent
p667
(dp668
S'index'
p669
I0
sba(igame
Agent
p670
(dp671
g669
I0
sba(igame
Agent
p672
(dp673
g669
I0
sba(igame
Agent
p674
(dp675
g669
I0
sbasS'redTeamName'
p676
S'Red'
p677
s.