(dp1
S'layout'
p2
(ilayout
Layout
p3
(dp4
S'capsules'
p5
(lp6
sS'numGhosts'
p7
I4
sS'food'
p8
(igame
Grid
p9
(dp10
S'CELLS_PER_INT'
p11
I30
sS'width'
p12
I34
sS'data'
p13
(lp14
(lp15
I00
aI00
aI00
aI00
aI00
aI00
aI00
aI00
aI00
aI00
aI00
aI00
aI00
aI00
aI00
aI00
aI00
aI00
aa(lp16
I00
aI00
aI00
aI00
aI00
aI00
aI00
aI00
aI01
aI00
aI01
aI00
aI00
aI00
aI01
aI00
aI01
aI00
aa(lp17
I00
aI00
aI00
aI00
aI00
aI00
aI00
aI00
aI00
aI00
aI00
aI00
aI00
aI00
aI00
aI01
aI00
aI00
aa(lp18
I00
aI00
aI00
aI00
aI00
aI00
aI00
aI00
aI01
aI00
aI00
aI00
aI00
aI00
aI01
aI00
aI00
aI00
aa(lp19
I00
aI00
aI00
aI00
aI00
aI00
aI01
aI00
aI00
aI00
aI00
aI01
aI00
aI00
aI01
aI00
aI00
aI00
aa(lp20
I00
aI00
aI00
aI00
aI00
aI00
aI00
aI00
aI00
aI00
aI00
aI00
aI00
aI00
aI00
aI00
aI01
aI00
aa(lp21
I00
aI00
aI01
aI00
aI00
aI00
aI00
aI00
aI00
aI00
aI00
aI00
aI01
aI00
aI01
aI00
aI00
aI00
aa(lp22
I00
aI00
aI00
aI00
aI00
aI00
aI00
aI00
aI00
aI00
aI00
aI00
aI00
aI00
aI00
aI00
aI00
aI00
aa(lp23
I00
aI00
aI01
aI00
aI00
aI00
aI00
aI00
aI00
aI01
aI00
aI00
aI00
aI00
aI00
aI00
aI00
aI00
aa(lp24
I00
aI00
aI00
aI00
aI00
aI00
aI00
aI00
aI00
aI00
aI00
aI00
aI00
aI00
aI00
aI00
aI00
aI00
aa(lp25
I00
aI00
aI00
aI00
aI00
aI00
aI00
aI00
aI00
aI00
aI00
aI00
aI00
aI00
aI00
aI00
aI01
aI00
aa(lp26
I00
aI00
aI00
aI00
aI00
aI00
aI00
aI00
aI00
aI00
aI00
aI00
aI00
aI00
aI00
aI00
aI00
aI00
aa(lp27
I00
aI00
aI01
aI00
aI00
aI00
aI00
aI00
aI00
aI00
aI00
aI00
aI01
aI00
aI00
aI00
aI00
aI00
aa(lp28
I00
aI00
aI01
aI00
aI00
aI01
aI00
aI00
aI00
aI00
aI00
aI00
aI00
aI00
aI00
aI00
aI01
aI00
aa(lp29
I00
aI00
aI00
aI00
aI00
aI00
aI00
aI00
aI00
aI00
aI00
aI00
aI00
aI01
aI01
aI00
aI01
aI00
aa(lp30
I00
aI00
aI00
aI00
aI00
aI00
aI00
aI00
aI00
aI00
aI00
aI00
aI00
aI00
aI00
aI00
aI00
aI00
aa(lp31
I00
aI01
aI01
aI01
aI00
aI00
aI00
aI00
aI01
aI00
aI00
aI00
aI00
aI00
aI00
aI00
aI01
aI00
aa(lp32
I00
aI01
aI00
aI00
aI00
aI00
aI00
aI00
aI00
aI01
aI00
aI00
aI00
aI00
aI01
aI01
aI01
aI00
aa(lp33
I00
aI00
aI00
aI00
aI00
aI00
aI00
aI00
aI00
aI00
aI00
aI00
aI00
aI00
aI00
aI00
aI00
aI00
aa(lp34
I00
aI01
aI00
aI01
aI01
aI00
aI00
aI00
aI00
aI00
aI00
aI00
aI00
aI00
aI00
aI00
aI00
aI00
aa(lp35
I00
aI01
aI00
aI00
aI00
aI00
aI00
aI00
aI00
aI00
aI00
aI00
aI01
aI00
aI00
aI01
aI00
aI00
aa(lp36
I00
aI00
aI00
aI00
aI00
aI01
aI00
aI00
aI00
aI00
aI00
aI00
aI00
aI00
aI00
aI01
aI00
aI00
aa(lp37
I00
aI00
aI00
aI00
aI00
aI00
aI00
aI00
aI00
aI00
aI00
aI00
aI00
aI00
aI00
aI00
aI00
aI00
aa(lp38
I00
aI01
aI00
aI00
aI00
aI00
aI00
aI00
aI00
aI00
aI00
aI00
aI00
aI00
aI00
aI00
aI00
aI00
aa(lp39
I00
aI00
aI00
aI00
aI00
aI00
aI00
aI00
aI00
aI00
aI00
aI00
aI00
aI00
aI00
aI00
aI00
aI00
aa(lp40
I00
aI00
aI00
aI00
aI00
aI00
aI00
aI00
aI01
aI00
aI00
aI00
aI00
aI00
aI00
aI01
aI00
aI00
aa(lp41
I00
aI00
aI00
aI00
aI00
aI00
aI00
aI00
aI00
aI00
aI00
aI00
aI00
aI00
aI00
aI00
aI00
aI00
aa(lp42
I00
aI00
aI00
aI01
aI00
aI01
aI00
aI00
aI00
aI00
aI00
aI00
aI00
aI00
aI00
aI01
aI00
aI00
aa(lp43
I00
aI01
aI00
aI00
aI00
aI00
aI00
aI00
aI00
aI00
aI00
aI00
aI00
aI00
aI00
aI00
aI00
aI00
aa(lp44
I00
aI00
aI00
aI01
aI00
aI00
aI01
aI00
aI00
aI00
aI00
aI01
aI00
aI00
aI00
aI00
aI00
aI00
aa(lp45
I00
aI00
aI00
aI01
aI00
aI00
aI00
aI00
aI00
aI01
aI00
aI00
aI00
aI00
aI00
aI00
aI00
aI00
aa(lp46
I00
aI00
aI01
aI00
aI00
aI00
aI00
aI00
aI00
aI00
aI00
aI00
aI00
aI00
aI00
aI00
aI00
aI00
aa(lp47
I00
aI01
aI00
aI01
aI00
aI00
aI00
aI01
aI00
aI01
aI00
aI00
aI00
aI00
aI00
aI00
aI00
aI00
aa(lp48
I00
aI00
aI00
aI00
aI00
aI00
aI00
aI00
aI00
aI00
aI00
aI00
aI00
aI00
aI00
aI00
aI00
aI00
aasS'height'
p49
I18
sbsS'agentPositions'
p50
(lp51
(I00
(I1
I2
tp52
tp53
a(I00
(I32
I15
tp54
tp55
a(I00
(I1
I1
tp56
tp57
a(I00
(I32
I16
tp58
tp59
asg49
I18
sg12
I34
sS'walls'
p60
(igame
Grid
p61
(dp62
g11
I30
sg12
I34
sg13
(lp63
(lp64
I01
aI01
aI01
aI01
aI01
aI01
aI01
aI01
aI01
aI01
aI01
aI01
aI01
aI01
aI01
aI01
aI01
aI01
aa(lp65
I01
aI00
aI00
aI00
aI01
aI00
aI00
aI01
aI00
aI00
aI00
aI00
aI00
aI01
aI00
aI01
aI00
aI01
aa(lp66
I01
aI00
aI00
aI00
aI00
aI00
aI00
aI01
aI01
aI00
aI01
aI01
aI00
aI01
aI00
aI00
aI00
aI01
aa(lp67
I01
aI01
aI01
aI00
aI01
aI01
aI01
aI01
aI00
aI00
aI01
aI00
aI00
aI01
aI00
aI01
aI00
aI01
aa(lp68
I01
aI00
aI00
aI00
aI00
aI01
aI00
aI01
aI00
aI00
aI01
aI00
aI00
aI01
aI00
aI01
aI00
aI01
aa(lp69
I01
aI00
aI01
aI01
aI00
aI00
aI00
aI01
aI01
aI01
aI01
aI01
aI00
aI01
aI01
aI01
aI00
aI01
aa(lp70
I01
aI00
aI00
aI01
aI00
aI01
aI00
aI00
aI00
aI00
aI00
aI00
aI00
aI01
aI00
aI01
aI00
aI01
aa(lp71
I01
aI00
aI01
aI01
aI00
aI01
aI00
aI01
aI00
aI01
aI01
aI00
aI01
aI01
aI00
aI00
aI00
aI01
aa(lp72
I01
aI00
aI00
aI01
aI00
aI01
aI00
aI01
aI00
aI00
aI01
aI00
aI00
aI00
aI00
aI00
aI00
aI01
aa(lp73
I01
aI00
aI00
aI00
aI00
aI01
aI00
aI00
aI00
aI01
aI01
aI01
aI01
aI01
aI01
aI00
aI01
aI01
aa(lp74
I01
aI00
aI00
aI01
aI00
aI01
aI00
aI01
aI00
aI00
aI00
aI00
aI01
aI00
aI00
aI00
aI00
aI01
aa(lp75
I01
aI00
aI00
aI01
aI00
aI00
aI00
aI01
aI00
aI00
aI00
aI00
aI01
aI00
aI01
aI01
aI01
aI01
aa(lp76
I01
aI00
aI00
aI01
aI01
aI00
aI00
aI00
aI00
aI00
aI01
aI00
aI00
aI00
aI00
aI00
aI00
aI01
aa(lp77
I01
aI00
aI00
aI01
aI00
aI00
aI00
aI01
aI00
aI00
aI00
aI00
aI01
aI00
aI01
aI01
aI00
aI01
aa(lp78
I01
aI00
aI00
aI00
aI00
aI00
aI00
aI01
aI00
aI00
aI00
aI00
aI01
aI00
aI00
aI01
aI00
aI01
aa(lp79
I01
aI00
aI00
aI00
aI00
aI00
aI01
aI01
aI01
aI00
aI01
aI01
aI01
aI01
aI01
aI01
aI01
aI01
aa(lp80
I01
aI00
aI00
aI00
aI00
aI00
aI00
aI00
aI00
aI00
aI00
aI00
aI00
aI00
aI00
aI00
aI00
aI01
aa(lp81
I01
aI00
aI00
aI00
aI00
aI00
aI00
aI00
aI00
aI00
aI00
aI00
aI00
aI00
aI00
aI00
aI00
aI01
aa(lp82
I01
aI01
aI01
aI01
aI01
aI01
aI01
aI01
aI00
aI01
aI01
aI01
aI00
aI00
aI00
aI00
aI00
aI01
aa(lp83
I01
aI00
aI01
aI00
aI00
aI01
aI00
aI00
aI00
aI00
aI01
aI00
aI00
aI00
aI00
aI00
aI00
aI01
aa(lp84
I01
aI00
aI01
aI01
aI00
aI01
aI00
aI00
aI00
aI00
aI01
aI00
aI00
aI00
aI01
aI00
aI00
aI01
aa(lp85
I01
aI00
aI00
aI00
aI00
aI00
aI00
aI01
aI00
aI00
aI00
aI00
aI00
aI01
aI01
aI00
aI00
aI01
aa(lp86
I01
aI01
aI01
aI01
aI00
aI01
aI00
aI00
aI00
aI00
aI01
aI00
aI00
aI00
aI01
aI00
aI00
aI01
aa(lp87
I01
aI00
aI00
aI00
aI00
aI01
aI00
aI00
aI00
aI00
aI01
aI00
aI01
aI00
aI01
aI00
aI00
aI01
aa(lp88
I01
aI01
aI00
aI01
aI01
aI01
aI01
aI01
aI01
aI00
aI00
aI00
aI01
aI00
aI00
aI00
aI00
aI01
aa(lp89
I01
aI00
aI00
aI00
aI00
aI00
aI00
aI01
aI00
aI00
aI01
aI00
aI01
aI00
aI01
aI00
aI00
aI01
aa(lp90
I01
aI00
aI00
aI00
aI01
aI01
aI00
aI01
aI01
aI00
aI01
aI00
aI01
aI00
aI01
aI01
aI00
aI01
aa(lp91
I01
aI00
aI01
aI00
aI01
aI00
aI00
aI00
aI00
aI00
aI00
aI00
aI01
aI00
aI01
aI00
aI00
aI01
aa(lp92
I01
aI00
aI01
aI01
aI01
aI00
aI01
aI01
aI01
aI01
aI01
aI00
aI00
aI00
aI01
aI01
aI00
aI01
aa(lp93
I01
aI00
aI01
aI00
aI01
aI00
aI00
aI01
aI00
aI00
aI01
aI00
aI01
aI00
aI00
aI00
aI00
aI01
aa(lp94
I01
aI00
aI01
aI00
aI01
aI00
aI00
aI01
aI00
aI00
aI01
aI01
aI01
aI01
aI00
aI01
aI01
aI01
aa(lp95
I01
aI00
aI00
aI00
aI01
aI00
aI01
aI01
aI00
aI01
aI01
aI00
aI00
aI00
aI00
aI00
aI00
aI01
aa(lp96
I01
aI00
aI01
aI00
aI01
aI00
aI00
aI00
aI00
aI00
aI01
aI00
aI00
aI01
aI00
aI00
aI00
aI01
aa(lp97
I01
aI01
aI01
aI01
aI01
aI01
aI01
aI01
aI01
aI01
aI01
aI01
aI01
aI01
aI01
aI01
aI01
aI01
aasg49
I18
sbsS'totalFood'
p98
I60
sS'layoutText'
p99
(lp100
S'%%%%%%%%%%%%%%%%%%%%%%%%%%%%%%%%%%'
p101
aS'%.   .   %.% ..%..            % 4%'
p102
aS'%%.%%%%    % %%% .  ..   .%.% % 2%'
p103
aS'%. ..%.  % % %.% .  %%%% %%%%    %'
p104
aS'%%%%%%%% %    .%     %        % %%'
p105
aS'%     .% %%%.%%%    .  %%%%% %%  %'
p106
aS'% % .%   %     %  %          .%  %'
p107
aS'%.%%%% %%%  %  %  %%% %% %% %%%%%%'
p108
aS'%    % %.%       .%         % .%.%'
p109
aS'%.%. %         %.       %.% %    %'
p110
aS'%%%%%% %% %% %%%  %  %  %%% %%%%.%'
p111
aS'%  %.          %  %     %   %. % %'
p112
aS'%  %% %%%%%  .    %%%.%%% %.     %'
p113
aS'%% %        %     %.    % %%%%%%%%'
p114
aS'%    %%%% %%%%  . %.% % %  .%.. .%'
p115
aS'%1 % %.%.   ..  . %%% %    %%%%.%%'
p116
aS'%3 %            ..%.. %.%   .   .%'
p117
aS'%%%%%%%%%%%%%%%%%%%%%%%%%%%%%%%%%%'
p118
asbsS'blueTeamName'
p119
S'Blue'
p120
sS'actions'
p121
(lp122
(I0
S'East'
p123
tp124
a(I1
S'South'
p125
tp126
a(I2
g123
tp127
a(I3
g125
tp128
a(I0
S'North'
p129
tp130
a(I1
S'West'
p131
tp132
a(I2
g129
tp133
a(I3
g125
tp134
a(I0
g123
tp135
a(I1
g131
tp136
a(I2
g129
tp137
a(I3
g131
tp138
a(I0
g123
tp139
a(I1
g131
tp140
a(I2
g123
tp141
a(I3
g131
tp142
a(I0
g125
tp143
a(I1
g125
tp144
a(I2
g123
tp145
a(I3
g131
tp146
a(I0
g125
tp147
a(I1
g131
tp148
a(I2
g129
tp149
a(I3
g129
tp150
a(I0
g123
tp151
a(I1
g125
tp152
a(I2
g123
tp153
a(I3
g129
tp154
a(I0
g123
tp155
a(I1
g125
tp156
a(I2
g123
tp157
a(I3
g131
tp158
a(I0
g123
tp159
a(I1
g131
tp160
a(I2
g123
tp161
a(I3
g131
tp162
a(I0
g123
tp163
a(I1
g125
tp164
a(I2
g123
tp165
a(I3
g131
tp166
a(I0
g123
tp167
a(I1
g125
tp168
a(I2
g123
tp169
a(I3
g131
tp170
a(I0
g123
tp171
a(I1
g131
tp172
a(I2
g123
tp173
a(I3
g131
tp174
a(I0
g123
tp175
a(I1
g131
tp176
a(I2
g123
tp177
a(I3
g131
tp178
a(I0
g123
tp179
a(I1
g131
tp180
a(I2
g129
tp181
a(I3
g131
tp182
a(I0
g123
tp183
a(I1
g131
tp184
a(I2
g123
tp185
a(I3
g131
tp186
a(I0
g123
tp187
a(I1
g125
tp188
a(I2
g129
tp189
a(I3
g131
tp190
a(I0
g123
tp191
a(I1
g131
tp192
a(I2
g129
tp193
a(I3
g131
tp194
a(I0
g123
tp195
a(I1
g131
tp196
a(I2
g129
tp197
a(I3
g131
tp198
a(I0
g123
tp199
a(I1
g131
tp200
a(I2
g123
tp201
a(I3
g131
tp202
a(I0
g131
tp203
a(I1
g131
tp204
a(I2
g129
tp205
a(I3
g131
tp206
a(I0
g129
tp207
a(I1
g131
tp208
a(I2
g129
tp209
a(I3
g125
tp210
a(I0
g129
tp211
a(I1
g131
tp212
a(I2
g129
tp213
a(I3
g125
tp214
a(I0
g129
tp215
a(I1
g131
tp216
a(I2
g125
tp217
a(I3
g125
tp218
a(I0
g129
tp219
a(I1
g125
tp220
a(I2
g125
tp221
a(I3
g125
tp222
a(I0
g129
tp223
a(I1
g123
tp224
a(I2
S'Stop'
p225
tp226
a(I3
g123
tp227
a(I0
g225
tp228
a(I1
g125
tp229
a(I2
g225
tp230
a(I3
g125
tp231
a(I0
g225
tp232
a(I1
g125
tp233
a(I2
g225
tp234
a(I3
g125
tp235
a(I0
g225
tp236
a(I1
g125
tp237
a(I2
g225
tp238
a(I3
g125
tp239
a(I0
g225
tp240
a(I1
g125
tp241
a(I2
g225
tp242
a(I3
g125
tp243
a(I0
g225
tp244
a(I1
g131
tp245
a(I2
g225
tp246
a(I3
g125
tp247
a(I0
g225
tp248
a(I1
g125
tp249
a(I2
g225
tp250
a(I3
g125
tp251
a(I0
g225
tp252
a(I1
g125
tp253
a(I2
g225
tp254
a(I3
g125
tp255
a(I0
g225
tp256
a(I1
g129
tp257
a(I2
g225
tp258
a(I3
g125
tp259
a(I0
g225
tp260
a(I1
g131
tp261
a(I2
g225
tp262
a(I3
g125
tp263
a(I0
g225
tp264
a(I1
g131
tp265
a(I2
g225
tp266
a(I3
g125
tp267
a(I0
g225
tp268
a(I1
g131
tp269
a(I2
g225
tp270
a(I3
g125
tp271
a(I0
g129
tp272
a(I1
g131
tp273
a(I2
g129
tp274
a(I3
g131
tp275
a(I0
g129
tp276
a(I1
g131
tp277
a(I2
g129
tp278
a(I3
g131
tp279
a(I0
g129
tp280
a(I1
g131
tp281
a(I2
g131
tp282
a(I3
g131
tp283
a(I0
g131
tp284
a(I1
g131
tp285
a(I2
g129
tp286
a(I3
g131
tp287
a(I0
g131
tp288
a(I1
g131
tp289
a(I2
g129
tp290
a(I3
g131
tp291
a(I0
g131
tp292
a(I1
g123
tp293
a(I2
g129
tp294
a(I3
g131
tp295
a(I0
g131
tp296
a(I1
g129
tp297
a(I2
g129
tp298
a(I3
g131
tp299
a(I0
g125
tp300
a(I1
g129
tp301
a(I2
g125
tp302
a(I3
g131
tp303
a(I0
g125
tp304
a(I1
g123
tp305
a(I2
g125
tp306
a(I3
g131
tp307
a(I0
g125
tp308
a(I1
g131
tp309
a(I2
g125
tp310
a(I3
g131
tp311
a(I0
g125
tp312
a(I1
g125
tp313
a(I2
g125
tp314
a(I3
g131
tp315
a(I0
g131
tp316
a(I1
g125
tp317
a(I2
g123
tp318
a(I3
g129
tp319
a(I0
g125
tp320
a(I1
g123
tp321
a(I2
g125
tp322
a(I3
g125
tp323
a(I0
g131
tp324
a(I1
g123
tp325
a(I2
g125
tp326
a(I3
g131
tp327
a(I0
g131
tp328
a(I1
g123
tp329
a(I2
g125
tp330
a(I3
g131
tp331
a(I0
g125
tp332
a(I1
g123
tp333
a(I2
g131
tp334
a(I3
g129
tp335
a(I0
g125
tp336
a(I1
g123
tp337
a(I2
g125
tp338
a(I3
g129
tp339
a(I0
g123
tp340
a(I1
g129
tp341
a(I2
g125
tp342
a(I3
g129
tp343
a(I0
g123
tp344
a(I1
g129
tp345
a(I2
g125
tp346
a(I3
g123
tp347
a(I0
g123
tp348
a(I1
g123
tp349
a(I2
g123
tp350
a(I3
g129
tp351
a(I0
g123
tp352
a(I1
g123
tp353
a(I2
g125
tp354
a(I3
g129
tp355
a(I0
g123
tp356
a(I1
g123
tp357
a(I2
g225
tp358
a(I3
g131
tp359
a(I0
g225
tp360
a(I1
g125
tp361
a(I2
g225
tp362
a(I3
g123
tp363
a(I0
g225
tp364
a(I1
g125
tp365
a(I2
g225
tp366
a(I3
g123
tp367
a(I0
g225
tp368
a(I1
g129
tp369
a(I2
g225
tp370
a(I3
g129
tp371
a(I0
g225
tp372
a(I1
g125
tp373
a(I2
g225
tp374
a(I3
g129
tp375
a(I0
g225
tp376
a(I1
g129
tp377
a(I2
g225
tp378
a(I3
g123
tp379
a(I0
g225
tp380
a(I1
g125
tp381
a(I2
g225
tp382
a(I3
g123
tp383
a(I0
g225
tp384
a(I1
g129
tp385
a(I2
g225
tp386
a(I3
g129
tp387
a(I0
g225
tp388
a(I1
g125
tp389
a(I2
g225
tp390
a(I3
g125
tp391
a(I0
g225
tp392
a(I1
g129
tp393
a(I2
g225
tp394
a(I3
g131
tp395
a(I0
g225
tp396
a(I1
g125
tp397
a(I2
g225
tp398
a(I3
g131
tp399
a(I0
g225
tp400
a(I1
g129
tp401
a(I2
g225
tp402
a(I3
g129
tp403
a(I0
g225
tp404
a(I1
g125
tp405
a(I2
g225
tp406
a(I3
g129
tp407
a(I0
g225
tp408
a(I1
g129
tp409
a(I2
g225
tp410
a(I3
g129
tp411
a(I0
g225
tp412
a(I1
g125
tp413
a(I2
g225
tp414
a(I3
g129
tp415
a(I0
g225
tp416
a(I1
g129
tp417
a(I2
g225
tp418
a(I3
g131
tp419
a(I0
g225
tp420
a(I1
g125
tp421
a(I2
g225
tp422
a(I3
g131
tp423
a(I0
g225
tp424
a(I1
g129
tp425
a(I2
g225
tp426
a(I3
g125
tp427
a(I0
g225
tp428
a(I1
g125
tp429
a(I2
g225
tp430
a(I3
g129
tp431
a(I0
g225
tp432
a(I1
g129
tp433
a(I2
g225
tp434
a(I3
g131
tp435
a(I0
g225
tp436
a(I1
g125
tp437
a(I2
g225
tp438
a(I3
g131
tp439
a(I0
g225
tp440
a(I1
g129
tp441
a(I2
g225
tp442
a(I3
g131
tp443
a(I0
g225
tp444
a(I1
g125
tp445
a(I2
g225
tp446
a(I3
g125
tp447
a(I0
g225
tp448
a(I1
g129
tp449
a(I2
g225
tp450
a(I3
g125
tp451
a(I0
g225
tp452
a(I1
g125
tp453
a(I2
g225
tp454
a(I3
g125
tp455
a(I0
g225
tp456
a(I1
g129
tp457
a(I2
g225
tp458
a(I3
g125
tp459
a(I0
g225
tp460
a(I1
g125
tp461
a(I2
g225
tp462
a(I3
g129
tp463
a(I0
g225
tp464
a(I1
g129
tp465
a(I2
g225
tp466
a(I3
g123
tp467
a(I0
g225
tp468
a(I1
g125
tp469
a(I2
g225
tp470
a(I3
g123
tp471
a(I0
g225
tp472
a(I1
g129
tp473
a(I2
g225
tp474
a(I3
g125
tp475
a(I0
g225
tp476
a(I1
g125
tp477
a(I2
g225
tp478
a(I3
g129
tp479
a(I0
g225
tp480
a(I1
g129
tp481
a(I2
g225
tp482
a(I3
g131
tp483
a(I0
g225
tp484
a(I1
g125
tp485
a(I2
g225
tp486
a(I3
g131
tp487
a(I0
g225
tp488
a(I1
g129
tp489
a(I2
g225
tp490
a(I3
g129
tp491
a(I0
g225
tp492
a(I1
g125
tp493
a(I2
g225
tp494
a(I3
g129
tp495
a(I0
g225
tp496
a(I1
g129
tp497
a(I2
g225
tp498
a(I3
g129
tp499
a(I0
g225
tp500
a(I1
g125
tp501
a(I2
g225
tp502
a(I3
g123
tp503
a(I0
g225
tp504
a(I1
g129
tp505
a(I2
g225
tp506
a(I3
g123
tp507
a(I0
g225
tp508
a(I1
g125
tp509
a(I2
g225
tp510
a(I3
g123
tp511
a(I0
g225
tp512
a(I1
g129
tp513
a(I2
g225
tp514
a(I3
g123
tp515
a(I0
g225
tp516
a(I1
g125
tp517
a(I2
g225
tp518
a(I3
g123
tp519
a(I0
g225
tp520
a(I1
g129
tp521
a(I2
g225
tp522
a(I3
g125
tp523
a(I0
g225
tp524
a(I1
g125
tp525
a(I2
g225
tp526
a(I3
g123
tp527
a(I0
g225
tp528
a(I1
g129
tp529
a(I2
g225
tp530
a(I3
g123
tp531
a(I0
g225
tp532
a(I1
g125
tp533
a(I2
g225
tp534
a(I3
g129
tp535
a(I0
g225
tp536
a(I1
g129
tp537
a(I2
g225
tp538
a(I3
g129
tp539
a(I0
g225
tp540
a(I1
g125
tp541
a(I2
g225
tp542
a(I3
g129
tp543
a(I0
g225
tp544
a(I1
g129
tp545
a(I2
g225
tp546
a(I3
g131
tp547
a(I0
g225
tp548
a(I1
g125
tp549
a(I2
g225
tp550
a(I3
g131
tp551
a(I0
g225
tp552
a(I1
g129
tp553
a(I2
g225
tp554
a(I3
g123
tp555
a(I0
g225
tp556
a(I1
g125
tp557
a(I2
g225
tp558
a(I3
g129
tp559
a(I0
g225
tp560
a(I1
g129
tp561
a(I2
g225
tp562
a(I3
g129
tp563
a(I0
g225
tp564
a(I1
g125
tp565
a(I2
g225
tp566
a(I3
g131
tp567
a(I0
g225
tp568
a(I1
g129
tp569
a(I2
g225
tp570
a(I3
g131
tp571
a(I0
g225
tp572
a(I1
g125
tp573
a(I2
g225
tp574
a(I3
g131
tp575
a(I0
g225
tp576
a(I1
g129
tp577
a(I2
g225
tp578
a(I3
g131
tp579
a(I0
g225
tp580
a(I1
g125
tp581
a(I2
g225
tp582
a(I3
g131
tp583
a(I0
g225
tp584
a(I1
g129
tp585
a(I2
g225
tp586
a(I3
g125
tp587
a(I0
g225
tp588
a(I1
g125
tp589
a(I2
g225
tp590
a(I3
g129
tp591
a(I0
g225
tp592
a(I1
g129
tp593
a(I2
g225
tp594
a(I3
g131
tp595
a(I0
g225
tp596
a(I1
g125
tp597
a(I2
g225
tp598
a(I3
g123
tp599
a(I0
g225
tp600
a(I1
g129
tp601
a(I2
g225
tp602
a(I3
g125
tp603
a(I0
g225
tp604
a(I1
g125
tp605
a(I2
g225
tp606
a(I3
g125
tp607
a(I0
g225
tp608
a(I1
g129
tp609
a(I2
g225
tp610
a(I3
g123
tp611
a(I0
g225
tp612
a(I1
g125
tp613
a(I2
g225
tp614
a(I3
g123
tp615
a(I0
g225
tp616
a(I1
g129
tp617
a(I2
g225
tp618
a(I3
g131
tp619
a(I0
g225
tp620
a(I1
g125
tp621
a(I2
g225
tp622
a(I3
g131
tp623
a(I0
g225
tp624
a(I1
g129
tp625
a(I2
g225
tp626
a(I3
g131
tp627
a(I0
g225
tp628
a(I1
g125
tp629
a(I2
g225
tp630
a(I3
g123
tp631
a(I0
g225
tp632
a(I1
g129
tp633
a(I2
g225
tp634
a(I3
g129
tp635
a(I0
g225
tp636
a(I1
g125
tp637
a(I2
g225
tp638
a(I3
g129
tp639
a(I0
g225
tp640
a(I1
g129
tp641
a(I2
g225
tp642
a(I3
g123
tp643
a(I0
g225
tp644
a(I1
g125
tp645
a(I2
g225
tp646
a(I3
g123
tp647
a(I0
g225
tp648
a(I1
g129
tp649
a(I2
g225
tp650
a(I3
g123
tp651
a(I0
g225
tp652
a(I1
g125
tp653
a(I2
g225
tp654
a(I3
g123
tp655
a(I0
g225
tp656
a(I1
g129
tp657
a(I2
g225
tp658
a(I3
g123
tp659
a(I0
g225
tp660
a(I1
g125
tp661
a(I2
g225
tp662
a(I3
g125
tp663
a(I0
g225
tp664
a(I1
g129
tp665
a(I2
g225
tp666
a(I3
g123
tp667
a(I0
g225
tp668
a(I1
g125
tp669
a(I2
g225
tp670
a(I3
g123
tp671
a(I0
g225
tp672
a(I1
g129
tp673
a(I2
g225
tp674
a(I3
g123
tp675
a(I0
g225
tp676
a(I1
g125
tp677
a(I2
g225
tp678
a(I3
g129
tp679
a(I0
g225
tp680
a(I1
g129
tp681
a(I2
g225
tp682
a(I3
g125
tp683
a(I0
g225
tp684
a(I1
g125
tp685
a(I2
g225
tp686
a(I3
g125
tp687
a(I0
g225
tp688
a(I1
g129
tp689
a(I2
g225
tp690
a(I3
g125
tp691
a(I0
g225
tp692
a(I1
g125
tp693
a(I2
g225
tp694
a(I3
g123
tp695
a(I0
g225
tp696
a(I1
g129
tp697
a(I2
g225
tp698
a(I3
g123
tp699
a(I0
g225
tp700
a(I1
g125
tp701
a(I2
g225
tp702
a(I3
g125
tp703
a(I0
g225
tp704
a(I1
g129
tp705
a(I2
g225
tp706
a(I3
g129
tp707
a(I0
g225
tp708
a(I1
g125
tp709
a(I2
g225
tp710
a(I3
g123
tp711
a(I0
g225
tp712
a(I1
g129
tp713
a(I2
g225
tp714
a(I3
g123
tp715
a(I0
g225
tp716
a(I1
g125
tp717
a(I2
g225
tp718
a(I3
g129
tp719
a(I0
g225
tp720
a(I1
g129
tp721
a(I2
g225
tp722
a(I3
g125
tp723
a(I0
g225
tp724
a(I1
g125
tp725
a(I2
g225
tp726
a(I3
g131
tp727
a(I0
g225
tp728
a(I1
g129
tp729
a(I2
g225
tp730
a(I3
g131
tp731
a(I0
g225
tp732
a(I1
g125
tp733
a(I2
g225
tp734
a(I3
g129
tp735
a(I0
g225
tp736
a(I1
g129
tp737
a(I2
g225
tp738
a(I3
g129
tp739
a(I0
g225
tp740
a(I1
g125
tp741
a(I2
g225
tp742
a(I3
g129
tp743
a(I0
g225
tp744
a(I1
g129
tp745
a(I2
g225
tp746
a(I3
g123
tp747
a(I0
g225
tp748
a(I1
g125
tp749
a(I2
g225
tp750
a(I3
g131
tp751
a(I0
g225
tp752
a(I1
g129
tp753
a(I2
g225
tp754
a(I3
g125
tp755
a(I0
g225
tp756
a(I1
g125
tp757
a(I2
g225
tp758
a(I3
g125
tp759
a(I0
g225
tp760
a(I1
g129
tp761
a(I2
g225
tp762
a(I3
g125
tp763
a(I0
g225
tp764
a(I1
g125
tp765
a(I2
g225
tp766
a(I3
g125
tp767
a(I0
g225
tp768
a(I1
g129
tp769
a(I2
g225
tp770
a(I3
g125
tp771
a(I0
g225
tp772
a(I1
g125
tp773
a(I2
g225
tp774
a(I3
g123
tp775
a(I0
g225
tp776
a(I1
g129
tp777
a(I2
g225
tp778
a(I3
g125
tp779
a(I0
g225
tp780
a(I1
g125
tp781
a(I2
g225
tp782
a(I3
g125
tp783
a(I0
g225
tp784
a(I1
g225
tp785
a(I2
g225
tp786
a(I3
g123
tp787
a(I0
g225
tp788
a(I1
g129
tp789
a(I2
g225
tp790
a(I3
g123
tp791
a(I0
g225
tp792
a(I1
g125
tp793
a(I2
g225
tp794
a(I3
g123
tp795
a(I0
g225
tp796
a(I1
g129
tp797
a(I2
g225
tp798
a(I3
g123
tp799
asS'length'
p800
I1200
sS'agents'
p801
(lp802
(igame
Agent
p803
(dp804
S'index'
p805
I0
sba(igame
Agent
p806
(dp807
g805
I0
sba(igame
Agent
p808
(dp809
g805
I0
sba(igame
Agent
p810
(dp811
g805
I0
sbasS'redTeamName'
p812
S'Red'
p813
s.