(dp1
S'layout'
p2
(ilayout
Layout
p3
(dp4
S'capsules'
p5
(lp6
(I11
I3
tp7
a(I19
I8
tp8
a(I14
I9
tp9
a(I22
I16
tp10
asS'numGhosts'
p11
I4
sS'food'
p12
(igame
Grid
p13
(dp14
S'CELLS_PER_INT'
p15
I30
sS'width'
p16
I34
sS'data'
p17
(lp18
(lp19
I00
aI00
aI00
aI00
aI00
aI00
aI00
aI00
aI00
aI00
aI00
aI00
aI00
aI00
aI00
aI00
aI00
aI00
aa(lp20
I00
aI00
aI00
aI00
aI00
aI00
aI00
aI01
aI00
aI00
aI00
aI00
aI00
aI00
aI01
aI00
aI01
aI00
aa(lp21
I00
aI00
aI00
aI00
aI00
aI00
aI00
aI00
aI00
aI00
aI00
aI00
aI00
aI00
aI00
aI00
aI00
aI00
aa(lp22
I00
aI00
aI00
aI00
aI00
aI00
aI00
aI00
aI01
aI01
aI00
aI00
aI00
aI00
aI00
aI00
aI01
aI00
aa(lp23
I00
aI00
aI00
aI00
aI00
aI00
aI00
aI00
aI00
aI00
aI00
aI00
aI00
aI00
aI00
aI00
aI00
aI00
aa(lp24
I00
aI00
aI00
aI00
aI00
aI00
aI01
aI00
aI00
aI00
aI00
aI00
aI01
aI00
aI00
aI01
aI00
aI00
aa(lp25
I00
aI00
aI00
aI01
aI00
aI00
aI00
aI00
aI00
aI00
aI00
aI00
aI01
aI00
aI00
aI00
aI00
aI00
aa(lp26
I00
aI00
aI00
aI00
aI00
aI00
aI01
aI00
aI00
aI00
aI00
aI00
aI00
aI00
aI00
aI00
aI01
aI00
aa(lp27
I00
aI00
aI00
aI00
aI00
aI00
aI00
aI00
aI01
aI00
aI01
aI00
aI01
aI00
aI00
aI00
aI01
aI00
aa(lp28
I00
aI00
aI00
aI00
aI00
aI00
aI00
aI00
aI00
aI01
aI00
aI00
aI01
aI00
aI00
aI00
aI01
aI00
aa(lp29
I00
aI00
aI00
aI00
aI00
aI00
aI00
aI00
aI00
aI00
aI00
aI00
aI00
aI00
aI00
aI00
aI00
aI00
aa(lp30
I00
aI00
aI00
aI00
aI00
aI01
aI01
aI00
aI00
aI00
aI00
aI01
aI01
aI00
aI01
aI00
aI01
aI00
aa(lp31
I00
aI00
aI00
aI00
aI00
aI00
aI00
aI00
aI00
aI00
aI00
aI00
aI00
aI00
aI00
aI00
aI00
aI00
aa(lp32
I00
aI00
aI00
aI00
aI00
aI00
aI00
aI00
aI00
aI00
aI00
aI00
aI00
aI00
aI00
aI00
aI01
aI00
aa(lp33
I00
aI00
aI00
aI00
aI00
aI00
aI00
aI00
aI00
aI00
aI00
aI00
aI00
aI00
aI00
aI00
aI01
aI00
aa(lp34
I00
aI00
aI00
aI00
aI00
aI00
aI00
aI00
aI00
aI00
aI00
aI00
aI00
aI00
aI00
aI00
aI00
aI00
aa(lp35
I00
aI01
aI00
aI00
aI00
aI00
aI00
aI00
aI01
aI00
aI00
aI00
aI00
aI00
aI00
aI00
aI00
aI00
aa(lp36
I00
aI00
aI00
aI00
aI00
aI00
aI00
aI00
aI00
aI01
aI00
aI00
aI00
aI00
aI00
aI00
aI01
aI00
aa(lp37
I00
aI00
aI00
aI00
aI00
aI00
aI00
aI00
aI00
aI00
aI00
aI00
aI00
aI00
aI00
aI00
aI00
aI00
aa(lp38
I00
aI01
aI00
aI00
aI00
aI00
aI00
aI00
aI00
aI00
aI00
aI00
aI00
aI00
aI00
aI00
aI00
aI00
aa(lp39
I00
aI01
aI00
aI00
aI00
aI00
aI00
aI00
aI00
aI00
aI00
aI00
aI00
aI00
aI00
aI00
aI00
aI00
aa(lp40
I00
aI00
aI00
aI00
aI00
aI00
aI00
aI00
aI00
aI00
aI00
aI00
aI00
aI00
aI00
aI00
aI00
aI00
aa(lp41
I00
aI01
aI00
aI01
aI00
aI01
aI01
aI00
aI00
aI00
aI00
aI01
aI01
aI00
aI00
aI00
aI00
aI00
aa(lp42
I00
aI00
aI00
aI00
aI00
aI00
aI00
aI00
aI00
aI00
aI00
aI00
aI00
aI00
aI00
aI00
aI00
aI00
aa(lp43
I00
aI01
aI00
aI00
aI00
aI01
aI00
aI00
aI01
aI00
aI00
aI00
aI00
aI00
aI00
aI00
aI00
aI00
aa(lp44
I00
aI01
aI00
aI00
aI00
aI01
aI00
aI01
aI00
aI01
aI00
aI00
aI00
aI00
aI00
aI00
aI00
aI00
aa(lp45
I00
aI01
aI00
aI00
aI00
aI00
aI00
aI00
aI00
aI00
aI00
aI01
aI00
aI00
aI00
aI00
aI00
aI00
aa(lp46
I00
aI00
aI00
aI00
aI00
aI01
aI00
aI00
aI00
aI00
aI00
aI00
aI00
aI00
aI01
aI00
aI00
aI00
aa(lp47
I00
aI00
aI01
aI00
aI00
aI01
aI00
aI00
aI00
aI00
aI00
aI01
aI00
aI00
aI00
aI00
aI00
aI00
aa(lp48
I00
aI00
aI00
aI00
aI00
aI00
aI00
aI00
aI00
aI00
aI00
aI00
aI00
aI00
aI00
aI00
aI00
aI00
aa(lp49
I00
aI01
aI00
aI00
aI00
aI00
aI00
aI00
aI01
aI01
aI00
aI00
aI00
aI00
aI00
aI00
aI00
aI00
aa(lp50
I00
aI00
aI00
aI00
aI00
aI00
aI00
aI00
aI00
aI00
aI00
aI00
aI00
aI00
aI00
aI00
aI00
aI00
aa(lp51
I00
aI01
aI00
aI01
aI00
aI00
aI00
aI00
aI00
aI00
aI01
aI00
aI00
aI00
aI00
aI00
aI00
aI00
aa(lp52
I00
aI00
aI00
aI00
aI00
aI00
aI00
aI00
aI00
aI00
aI00
aI00
aI00
aI00
aI00
aI00
aI00
aI00
aasS'height'
p53
I18
sbsS'agentPositions'
p54
(lp55
(I00
(I1
I2
tp56
tp57
a(I00
(I32
I15
tp58
tp59
a(I00
(I1
I1
tp60
tp61
a(I00
(I32
I16
tp62
tp63
asg53
I18
sg16
I34
sS'walls'
p64
(igame
Grid
p65
(dp66
g15
I30
sg16
I34
sg17
(lp67
(lp68
I01
aI01
aI01
aI01
aI01
aI01
aI01
aI01
aI01
aI01
aI01
aI01
aI01
aI01
aI01
aI01
aI01
aI01
aa(lp69
I01
aI00
aI00
aI00
aI00
aI00
aI00
aI00
aI00
aI00
aI00
aI00
aI00
aI00
aI00
aI00
aI00
aI01
aa(lp70
I01
aI00
aI00
aI00
aI01
aI01
aI01
aI01
aI01
aI01
aI01
aI01
aI01
aI01
aI01
aI01
aI00
aI01
aa(lp71
I01
aI00
aI01
aI00
aI01
aI00
aI00
aI01
aI00
aI00
aI00
aI00
aI00
aI00
aI00
aI01
aI00
aI01
aa(lp72
I01
aI00
aI01
aI00
aI01
aI00
aI00
aI01
aI01
aI01
aI00
aI01
aI01
aI01
aI00
aI01
aI00
aI01
aa(lp73
I01
aI00
aI01
aI00
aI01
aI00
aI00
aI01
aI00
aI00
aI00
aI01
aI00
aI01
aI00
aI00
aI00
aI01
aa(lp74
I01
aI00
aI01
aI00
aI01
aI00
aI00
aI00
aI00
aI00
aI01
aI01
aI00
aI01
aI00
aI01
aI01
aI01
aa(lp75
I01
aI00
aI01
aI00
aI01
aI00
aI00
aI01
aI00
aI00
aI00
aI00
aI00
aI01
aI00
aI01
aI00
aI01
aa(lp76
I01
aI00
aI01
aI00
aI01
aI00
aI00
aI01
aI00
aI01
aI00
aI01
aI00
aI01
aI00
aI01
aI00
aI01
aa(lp77
I01
aI00
aI00
aI00
aI01
aI00
aI00
aI01
aI00
aI00
aI00
aI01
aI00
aI01
aI00
aI01
aI00
aI01
aa(lp78
I01
aI00
aI01
aI00
aI01
aI01
aI01
aI01
aI00
aI01
aI01
aI01
aI01
aI01
aI00
aI00
aI00
aI01
aa(lp79
I01
aI00
aI01
aI00
aI01
aI00
aI00
aI00
aI00
aI00
aI00
aI00
aI00
aI01
aI00
aI01
aI00
aI01
aa(lp80
I01
aI00
aI01
aI00
aI01
aI01
aI01
aI01
aI01
aI01
aI00
aI01
aI01
aI01
aI01
aI01
aI01
aI01
aa(lp81
I01
aI00
aI00
aI00
aI00
aI00
aI01
aI00
aI00
aI00
aI00
aI00
aI00
aI01
aI00
aI00
aI00
aI01
aa(lp82
I01
aI00
aI00
aI00
aI01
aI00
aI00
aI00
aI01
aI00
aI00
aI01
aI00
aI00
aI00
aI01
aI00
aI01
aa(lp83
I01
aI01
aI00
aI00
aI01
aI00
aI01
aI00
aI01
aI01
aI00
aI01
aI01
aI01
aI00
aI01
aI01
aI01
aa(lp84
I01
aI00
aI00
aI00
aI00
aI00
aI00
aI00
aI00
aI00
aI00
aI00
aI00
aI00
aI00
aI00
aI00
aI01
aa(lp85
I01
aI00
aI00
aI00
aI00
aI00
aI00
aI00
aI00
aI00
aI00
aI00
aI00
aI00
aI00
aI00
aI00
aI01
aa(lp86
I01
aI01
aI01
aI00
aI01
aI01
aI01
aI00
aI01
aI01
aI00
aI01
aI00
aI01
aI00
aI00
aI01
aI01
aa(lp87
I01
aI00
aI01
aI00
aI00
aI00
aI01
aI00
aI00
aI01
aI00
aI00
aI00
aI01
aI00
aI00
aI00
aI01
aa(lp88
I01
aI00
aI00
aI00
aI01
aI00
aI00
aI00
aI00
aI00
aI00
aI01
aI00
aI00
aI00
aI00
aI00
aI01
aa(lp89
I01
aI01
aI01
aI01
aI01
aI01
aI01
aI00
aI01
aI01
aI01
aI01
aI01
aI01
aI00
aI01
aI00
aI01
aa(lp90
I01
aI00
aI01
aI00
aI01
aI00
aI00
aI00
aI00
aI00
aI00
aI00
aI00
aI01
aI00
aI01
aI00
aI01
aa(lp91
I01
aI00
aI00
aI00
aI01
aI01
aI01
aI01
aI01
aI00
aI01
aI01
aI01
aI01
aI00
aI01
aI00
aI01
aa(lp92
I01
aI00
aI01
aI00
aI01
aI00
aI01
aI00
aI00
aI00
aI01
aI00
aI00
aI01
aI00
aI00
aI00
aI01
aa(lp93
I01
aI00
aI01
aI00
aI01
aI00
aI01
aI00
aI01
aI00
aI01
aI00
aI00
aI01
aI00
aI01
aI00
aI01
aa(lp94
I01
aI00
aI01
aI00
aI01
aI00
aI00
aI00
aI00
aI00
aI01
aI00
aI00
aI01
aI00
aI01
aI00
aI01
aa(lp95
I01
aI01
aI01
aI00
aI01
aI00
aI01
aI01
aI00
aI00
aI00
aI00
aI00
aI01
aI00
aI01
aI00
aI01
aa(lp96
I01
aI00
aI00
aI00
aI01
aI00
aI01
aI00
aI00
aI00
aI01
aI00
aI00
aI01
aI00
aI01
aI00
aI01
aa(lp97
I01
aI00
aI01
aI00
aI01
aI01
aI01
aI00
aI01
aI01
aI01
aI00
aI00
aI01
aI00
aI01
aI00
aI01
aa(lp98
I01
aI00
aI01
aI00
aI00
aI00
aI00
aI00
aI00
aI00
aI01
aI00
aI00
aI01
aI00
aI01
aI00
aI01
aa(lp99
I01
aI00
aI01
aI01
aI01
aI01
aI01
aI01
aI01
aI01
aI01
aI01
aI01
aI01
aI00
aI00
aI00
aI01
aa(lp100
I01
aI00
aI00
aI00
aI00
aI00
aI00
aI00
aI00
aI00
aI00
aI00
aI00
aI00
aI00
aI00
aI00
aI01
aa(lp101
I01
aI01
aI01
aI01
aI01
aI01
aI01
aI01
aI01
aI01
aI01
aI01
aI01
aI01
aI01
aI01
aI01
aI01
aasg53
I18
sbsS'totalFood'
p102
I60
sS'layoutText'
p103
(lp104
S'%%%%%%%%%%%%%%%%%%%%%%%%%%%%%%%%%%'
p105
aS'%. .  %... .%..% .%   o         4%'
p106
aS'% %%%.%%%% %% %%     %%% %%%%%% 2%'
p107
aS'%.%        .%              .     %'
p108
aS'% % %%%%%%%%%% %  %% %%%%%%%%%%% %'
p109
aS'% % %.. ..%.%  %     %.%       % %'
p110
aS'% % %%% %%%.% %%  % %%.%  . .  % %'
p111
aS'% %   % . %          % %%%% %%%%.%'
p112
aS'% %.%   %.% % o% .%% %   .   %.% %'
p113
aS'% %.%   .   % %%. %o % %.%   %.% %'
p114
aS'%.%%%% %%%% %          % . %   % %'
p115
aS'% %  . .  %.%% %  %% %.%%% %%% % %'
p116
aS'% %       %.%     %  %.%.. ..% % %'
p117
aS'% %%%%%%%%%%% %%  % %%%%%%%%%% % %'
p118
aS'%     .    o         %.        %.%'
p119
aS'%1 %%%%%% %%%     %% %% %%%%.%%% %'
p120
aS'%3             %. %..%. ...%  . .%'
p121
aS'%%%%%%%%%%%%%%%%%%%%%%%%%%%%%%%%%%'
p122
asbsS'blueTeamName'
p123
S'Blue'
p124
sS'actions'
p125
(lp126
(I0
S'East'
p127
tp128
a(I1
S'West'
p129
tp130
a(I2
g127
tp131
a(I3
S'South'
p132
tp133
a(I0
S'North'
p134
tp135
a(I1
g132
tp136
a(I2
g127
tp137
a(I3
g132
tp138
a(I0
g127
tp139
a(I1
g129
tp140
a(I2
g127
tp141
a(I3
g129
tp142
a(I0
g127
tp143
a(I1
g129
tp144
a(I2
g127
tp145
a(I3
g129
tp146
a(I0
g127
tp147
a(I1
g129
tp148
a(I2
g127
tp149
a(I3
g129
tp150
a(I0
g127
tp151
a(I1
g129
tp152
a(I2
g127
tp153
a(I3
g129
tp154
a(I0
g127
tp155
a(I1
g129
tp156
a(I2
g127
tp157
a(I3
g129
tp158
a(I0
g127
tp159
a(I1
g129
tp160
a(I2
g127
tp161
a(I3
g129
tp162
a(I0
g127
tp163
a(I1
g129
tp164
a(I2
g127
tp165
a(I3
g129
tp166
a(I0
g127
tp167
a(I1
g129
tp168
a(I2
g127
tp169
a(I3
g129
tp170
a(I0
g127
tp171
a(I1
g129
tp172
a(I2
g127
tp173
a(I3
g129
tp174
a(I0
g127
tp175
a(I1
g129
tp176
a(I2
g127
tp177
a(I3
g129
tp178
a(I0
g127
tp179
a(I1
g129
tp180
a(I2
g134
tp181
a(I3
g129
tp182
a(I0
g127
tp183
a(I1
g129
tp184
a(I2
g134
tp185
a(I3
g129
tp186
a(I0
g127
tp187
a(I1
g129
tp188
a(I2
g134
tp189
a(I3
g129
tp190
a(I0
g127
tp191
a(I1
g129
tp192
a(I2
g134
tp193
a(I3
g129
tp194
a(I0
g127
tp195
a(I1
g129
tp196
a(I2
g127
tp197
a(I3
g129
tp198
a(I0
g127
tp199
a(I1
g129
tp200
a(I2
g134
tp201
a(I3
g129
tp202
a(I0
g127
tp203
a(I1
g129
tp204
a(I2
g134
tp205
a(I3
g129
tp206
a(I0
g127
tp207
a(I1
g129
tp208
a(I2
g129
tp209
a(I3
g129
tp210
a(I0
g132
tp211
a(I1
g134
tp212
a(I2
g134
tp213
a(I3
g129
tp214
a(I0
g132
tp215
a(I1
g134
tp216
a(I2
g134
tp217
a(I3
g127
tp218
a(I0
g134
tp219
a(I1
g127
tp220
a(I2
S'Stop'
p221
tp222
a(I3
g127
tp223
a(I0
g134
tp224
a(I1
g129
tp225
a(I2
g134
tp226
a(I3
g127
tp227
a(I0
g129
tp228
a(I1
g132
tp229
a(I2
g134
tp230
a(I3
g132
tp231
a(I0
g129
tp232
a(I1
g221
tp233
a(I2
g132
tp234
a(I3
g132
tp235
a(I0
g129
tp236
a(I1
g132
tp237
a(I2
g127
tp238
a(I3
g132
tp239
a(I0
g129
tp240
a(I1
g127
tp241
a(I2
g127
tp242
a(I3
g127
tp243
a(I0
g221
tp244
a(I1
g132
tp245
a(I2
g221
tp246
a(I3
g132
tp247
a(I0
g221
tp248
a(I1
g221
tp249
a(I2
g221
tp250
a(I3
g132
tp251
a(I0
g221
tp252
a(I1
g221
tp253
a(I2
g221
tp254
a(I3
g132
tp255
a(I0
g221
tp256
a(I1
g221
tp257
a(I2
g221
tp258
a(I3
g129
tp259
a(I0
g134
tp260
a(I1
g132
tp261
a(I2
g127
tp262
a(I3
g132
tp263
a(I0
g134
tp264
a(I1
g129
tp265
a(I2
g132
tp266
a(I3
g129
tp267
a(I0
g134
tp268
a(I1
g132
tp269
a(I2
g132
tp270
a(I3
g129
tp271
a(I0
g134
tp272
a(I1
g132
tp273
a(I2
g132
tp274
a(I3
g129
tp275
a(I0
g129
tp276
a(I1
g132
tp277
a(I2
g129
tp278
a(I3
g134
tp279
a(I0
g129
tp280
a(I1
g127
tp281
a(I2
g129
tp282
a(I3
g134
tp283
a(I0
g129
tp284
a(I1
g129
tp285
a(I2
g129
tp286
a(I3
g134
tp287
a(I0
g134
tp288
a(I1
g134
tp289
a(I2
g134
tp290
a(I3
g129
tp291
a(I0
g134
tp292
a(I1
g129
tp293
a(I2
g134
tp294
a(I3
g129
tp295
a(I0
g134
tp296
a(I1
g129
tp297
a(I2
g134
tp298
a(I3
g134
tp299
a(I0
g129
tp300
a(I1
g134
tp301
a(I2
g129
tp302
a(I3
g134
tp303
a(I0
g129
tp304
a(I1
g132
tp305
a(I2
g127
tp306
a(I3
g132
tp307
a(I0
g134
tp308
a(I1
g132
tp309
a(I2
g129
tp310
a(I3
g132
tp311
a(I0
g127
tp312
a(I1
g132
tp313
a(I2
g127
tp314
a(I3
g132
tp315
a(I0
g127
tp316
a(I1
g132
tp317
a(I2
g129
tp318
a(I3
g132
tp319
a(I0
g127
tp320
a(I1
g132
tp321
a(I2
g129
tp322
a(I3
g129
tp323
a(I0
g127
tp324
a(I1
g132
tp325
a(I2
g132
tp326
a(I3
g129
tp327
a(I0
g127
tp328
a(I1
g134
tp329
a(I2
g132
tp330
a(I3
g129
tp331
a(I0
g127
tp332
a(I1
g134
tp333
a(I2
g129
tp334
a(I3
g127
tp335
a(I0
g127
tp336
a(I1
g134
tp337
a(I2
g221
tp338
a(I3
g127
tp339
a(I0
g127
tp340
a(I1
g134
tp341
a(I2
g127
tp342
a(I3
g127
tp343
a(I0
g127
tp344
a(I1
g134
tp345
a(I2
g127
tp346
a(I3
g134
tp347
a(I0
g127
tp348
a(I1
g127
tp349
a(I2
g127
tp350
a(I3
g134
tp351
a(I0
g127
tp352
a(I1
g127
tp353
a(I2
g127
tp354
a(I3
g127
tp355
a(I0
g127
tp356
a(I1
g127
tp357
a(I2
g127
tp358
a(I3
g127
tp359
a(I0
g134
tp360
a(I1
g127
tp361
a(I2
g127
tp362
a(I3
g134
tp363
a(I0
g134
tp364
a(I1
g127
tp365
a(I2
g127
tp366
a(I3
g134
tp367
a(I0
g127
tp368
a(I1
g127
tp369
a(I2
g127
tp370
a(I3
g127
tp371
a(I0
g127
tp372
a(I1
g132
tp373
a(I2
g127
tp374
a(I3
g134
tp375
a(I0
g127
tp376
a(I1
g134
tp377
a(I2
g127
tp378
a(I3
g134
tp379
a(I0
g127
tp380
a(I1
g132
tp381
a(I2
g221
tp382
a(I3
g127
tp383
a(I0
g134
tp384
a(I1
g132
tp385
a(I2
g221
tp386
a(I3
g127
tp387
a(I0
g134
tp388
a(I1
g132
tp389
a(I2
g127
tp390
a(I3
g127
tp391
a(I0
g127
tp392
a(I1
g132
tp393
a(I2
g127
tp394
a(I3
g221
tp395
a(I0
g134
tp396
a(I1
g132
tp397
a(I2
g134
tp398
a(I3
g127
tp399
a(I0
g127
tp400
a(I1
g132
tp401
a(I2
g134
tp402
a(I3
g221
tp403
a(I0
g127
tp404
a(I1
g132
tp405
a(I2
g221
tp406
a(I3
g127
tp407
a(I0
g127
tp408
a(I1
g132
tp409
a(I2
g221
tp410
a(I3
g129
tp411
a(I0
g127
tp412
a(I1
g132
tp413
a(I2
g134
tp414
a(I3
g129
tp415
a(I0
g127
tp416
a(I1
g221
tp417
a(I2
g134
tp418
a(I3
g132
tp419
a(I0
g127
tp420
a(I1
g221
tp421
a(I2
g127
tp422
a(I3
g221
tp423
a(I0
g127
tp424
a(I1
g221
tp425
a(I2
g134
tp426
a(I3
g132
tp427
a(I0
g127
tp428
a(I1
g221
tp429
a(I2
g134
tp430
a(I3
g134
tp431
a(I0
g127
tp432
a(I1
g221
tp433
a(I2
g129
tp434
a(I3
g221
tp435
a(I0
g127
tp436
a(I1
g221
tp437
a(I2
g134
tp438
a(I3
g132
tp439
a(I0
g127
tp440
a(I1
g221
tp441
a(I2
g134
tp442
a(I3
g132
tp443
a(I0
g127
tp444
a(I1
g221
tp445
a(I2
g221
tp446
a(I3
g132
tp447
a(I0
g127
tp448
a(I1
g221
tp449
a(I2
g221
tp450
a(I3
g132
tp451
a(I0
g127
tp452
a(I1
g221
tp453
a(I2
g221
tp454
a(I3
g134
tp455
a(I0
g127
tp456
a(I1
g134
tp457
a(I2
g221
tp458
a(I3
g132
tp459
a(I0
g134
tp460
a(I1
g134
tp461
a(I2
g221
tp462
a(I3
g132
tp463
a(I0
g134
tp464
a(I1
g134
tp465
a(I2
g221
tp466
a(I3
g132
tp467
a(I0
g134
tp468
a(I1
g134
tp469
a(I2
g221
tp470
a(I3
g132
tp471
a(I0
g127
tp472
a(I1
g132
tp473
a(I2
g134
tp474
a(I3
g221
tp475
a(I0
g134
tp476
a(I1
g132
tp477
a(I2
g134
tp478
a(I3
g132
tp479
a(I0
g127
tp480
a(I1
g132
tp481
a(I2
g134
tp482
a(I3
g132
tp483
a(I0
g127
tp484
a(I1
g132
tp485
a(I2
g127
tp486
a(I3
g132
tp487
a(I0
g127
tp488
a(I1
g221
tp489
a(I2
g134
tp490
a(I3
g127
tp491
a(I0
g127
tp492
a(I1
g221
tp493
a(I2
g134
tp494
a(I3
g127
tp495
a(I0
g127
tp496
a(I1
g221
tp497
a(I2
g129
tp498
a(I3
g127
tp499
a(I0
g127
tp500
a(I1
g221
tp501
a(I2
g134
tp502
a(I3
g132
tp503
a(I0
g127
tp504
a(I1
g221
tp505
a(I2
g132
tp506
a(I3
g132
tp507
a(I0
g127
tp508
a(I1
g221
tp509
a(I2
g127
tp510
a(I3
g221
tp511
a(I0
g127
tp512
a(I1
g221
tp513
a(I2
g132
tp514
a(I3
g134
tp515
a(I0
g127
tp516
a(I1
g221
tp517
a(I2
g132
tp518
a(I3
g134
tp519
a(I0
g127
tp520
a(I1
g221
tp521
a(I2
g129
tp522
a(I3
g129
tp523
a(I0
g127
tp524
a(I1
g221
tp525
a(I2
g221
tp526
a(I3
g127
tp527
a(I0
g127
tp528
a(I1
g221
tp529
a(I2
g221
tp530
a(I3
g132
tp531
a(I0
g127
tp532
a(I1
g221
tp533
a(I2
g221
tp534
a(I3
g134
tp535
a(I0
g127
tp536
a(I1
g134
tp537
a(I2
g221
tp538
a(I3
g129
tp539
a(I0
g134
tp540
a(I1
g134
tp541
a(I2
g221
tp542
a(I3
g129
tp543
a(I0
g134
tp544
a(I1
g134
tp545
a(I2
g221
tp546
a(I3
g129
tp547
a(I0
g134
tp548
a(I1
g134
tp549
a(I2
g221
tp550
a(I3
g134
tp551
a(I0
g134
tp552
a(I1
g134
tp553
a(I2
g221
tp554
a(I3
g134
tp555
a(I0
g134
tp556
a(I1
g134
tp557
a(I2
g221
tp558
a(I3
g134
tp559
a(I0
g134
tp560
a(I1
g134
tp561
a(I2
g221
tp562
a(I3
g134
tp563
a(I0
g129
tp564
a(I1
g134
tp565
a(I2
g221
tp566
a(I3
g134
tp567
a(I0
g221
tp568
a(I1
g221
tp569
a(I2
g221
tp570
a(I3
g134
tp571
a(I0
g221
tp572
a(I1
g221
tp573
a(I2
g221
tp574
a(I3
g221
tp575
a(I0
g221
tp576
a(I1
g221
tp577
a(I2
g221
tp578
a(I3
g221
tp579
a(I0
g221
tp580
a(I1
g221
tp581
a(I2
g221
tp582
a(I3
g221
tp583
a(I0
g221
tp584
a(I1
g221
tp585
a(I2
g221
tp586
a(I3
g221
tp587
a(I0
g221
tp588
a(I1
g221
tp589
a(I2
g221
tp590
a(I3
g221
tp591
a(I0
g221
tp592
a(I1
g132
tp593
a(I2
g221
tp594
a(I3
g132
tp595
a(I0
g221
tp596
a(I1
g132
tp597
a(I2
g221
tp598
a(I3
g132
tp599
a(I0
g221
tp600
a(I1
g132
tp601
a(I2
g221
tp602
a(I3
g132
tp603
a(I0
g221
tp604
a(I1
g132
tp605
a(I2
g221
tp606
a(I3
g132
tp607
a(I0
g221
tp608
a(I1
g132
tp609
a(I2
g221
tp610
a(I3
g132
tp611
a(I0
g134
tp612
a(I1
g132
tp613
a(I2
g132
tp614
a(I3
g132
tp615
a(I0
g129
tp616
a(I1
g132
tp617
a(I2
g132
tp618
a(I3
g127
tp619
a(I0
g129
tp620
a(I1
g132
tp621
a(I2
g132
tp622
a(I3
g127
tp623
a(I0
g129
tp624
a(I1
g221
tp625
a(I2
g132
tp626
a(I3
g127
tp627
a(I0
g132
tp628
a(I1
g221
tp629
a(I2
g132
tp630
a(I3
g132
tp631
a(I0
g132
tp632
a(I1
g221
tp633
a(I2
g127
tp634
a(I3
g132
tp635
a(I0
g132
tp636
a(I1
g221
tp637
a(I2
g132
tp638
a(I3
g129
tp639
a(I0
g127
tp640
a(I1
g221
tp641
a(I2
g132
tp642
a(I3
g221
tp643
a(I0
g132
tp644
a(I1
g221
tp645
a(I2
g129
tp646
a(I3
g221
tp647
a(I0
g132
tp648
a(I1
g221
tp649
a(I2
g132
tp650
a(I3
g221
tp651
a(I0
g129
tp652
a(I1
g221
tp653
a(I2
g132
tp654
a(I3
g221
tp655
a(I0
g132
tp656
a(I1
g221
tp657
a(I2
g134
tp658
a(I3
g221
tp659
a(I0
g132
tp660
a(I1
g221
tp661
a(I2
g134
tp662
a(I3
g221
tp663
a(I0
g134
tp664
a(I1
g221
tp665
a(I2
g127
tp666
a(I3
g221
tp667
a(I0
g134
tp668
a(I1
g221
tp669
a(I2
g134
tp670
a(I3
g221
tp671
a(I0
g127
tp672
a(I1
g221
tp673
a(I2
g134
tp674
a(I3
g221
tp675
a(I0
g134
tp676
a(I1
g221
tp677
a(I2
g129
tp678
a(I3
g221
tp679
a(I0
g134
tp680
a(I1
g221
tp681
a(I2
g134
tp682
a(I3
g221
tp683
a(I0
g129
tp684
a(I1
g221
tp685
a(I2
g134
tp686
a(I3
g221
tp687
a(I0
g134
tp688
a(I1
g221
tp689
a(I2
g134
tp690
a(I3
g221
tp691
a(I0
g134
tp692
a(I1
g221
tp693
a(I2
g134
tp694
a(I3
g221
tp695
a(I0
g132
tp696
a(I1
g221
tp697
a(I2
g134
tp698
a(I3
g221
tp699
a(I0
g132
tp700
a(I1
g221
tp701
a(I2
g127
tp702
a(I3
g221
tp703
a(I0
g127
tp704
a(I1
g221
tp705
a(I2
g134
tp706
a(I3
g221
tp707
a(I0
g132
tp708
a(I1
g221
tp709
a(I2
g134
tp710
a(I3
g221
tp711
a(I0
g132
tp712
a(I1
g221
tp713
a(I2
g129
tp714
a(I3
g221
tp715
a(I0
g129
tp716
a(I1
g221
tp717
a(I2
g134
tp718
a(I3
g221
tp719
a(I0
g132
tp720
a(I1
g221
tp721
a(I2
g132
tp722
a(I3
g221
tp723
a(I0
g132
tp724
a(I1
g221
tp725
a(I2
g127
tp726
a(I3
g221
tp727
a(I0
g134
tp728
a(I1
g221
tp729
a(I2
g132
tp730
a(I3
g221
tp731
a(I0
g134
tp732
a(I1
g221
tp733
a(I2
g132
tp734
a(I3
g221
tp735
a(I0
g127
tp736
a(I1
g221
tp737
a(I2
g129
tp738
a(I3
g221
tp739
a(I0
g134
tp740
a(I1
g221
tp741
a(I2
g132
tp742
a(I3
g221
tp743
a(I0
g134
tp744
a(I1
g221
tp745
a(I2
g132
tp746
a(I3
g221
tp747
a(I0
g129
tp748
a(I1
g221
tp749
a(I2
g132
tp750
a(I3
g221
tp751
a(I0
g134
tp752
a(I1
g221
tp753
a(I2
g132
tp754
a(I3
g221
tp755
a(I0
g134
tp756
a(I1
g221
tp757
a(I2
g132
tp758
a(I3
g221
tp759
a(I0
g132
tp760
a(I1
g221
tp761
a(I2
g127
tp762
a(I3
g221
tp763
a(I0
g132
tp764
a(I1
g221
tp765
a(I2
g132
tp766
a(I3
g221
tp767
a(I0
g127
tp768
a(I1
g221
tp769
a(I2
g132
tp770
a(I3
g221
tp771
a(I0
g132
tp772
a(I1
g221
tp773
a(I2
g129
tp774
a(I3
g221
tp775
a(I0
g132
tp776
a(I1
g221
tp777
a(I2
g132
tp778
a(I3
g221
tp779
a(I0
g129
tp780
a(I1
g221
tp781
a(I2
g132
tp782
a(I3
g221
tp783
a(I0
g132
tp784
a(I1
g221
tp785
a(I2
g134
tp786
a(I3
g221
tp787
a(I0
g132
tp788
a(I1
g221
tp789
a(I2
g134
tp790
a(I3
g221
tp791
a(I0
g134
tp792
a(I1
g221
tp793
a(I2
g127
tp794
a(I3
g221
tp795
a(I0
g134
tp796
a(I1
g221
tp797
a(I2
g134
tp798
a(I3
g221
tp799
a(I0
g127
tp800
a(I1
g221
tp801
a(I2
g134
tp802
a(I3
g221
tp803
a(I0
g134
tp804
a(I1
g221
tp805
a(I2
g129
tp806
a(I3
g221
tp807
a(I0
g134
tp808
a(I1
g221
tp809
a(I2
g134
tp810
a(I3
g221
tp811
a(I0
g129
tp812
a(I1
g221
tp813
a(I2
g134
tp814
a(I3
g221
tp815
a(I0
g134
tp816
a(I1
g221
tp817
a(I2
g134
tp818
a(I3
g221
tp819
a(I0
g134
tp820
a(I1
g221
tp821
a(I2
g134
tp822
a(I3
g221
tp823
a(I0
g132
tp824
a(I1
g221
tp825
a(I2
g134
tp826
a(I3
g221
tp827
a(I0
g132
tp828
a(I1
g221
tp829
a(I2
g127
tp830
a(I3
g221
tp831
a(I0
g127
tp832
a(I1
g221
tp833
a(I2
g134
tp834
a(I3
g221
tp835
a(I0
g132
tp836
a(I1
g221
tp837
a(I2
g134
tp838
a(I3
g221
tp839
a(I0
g132
tp840
a(I1
g221
tp841
a(I2
g129
tp842
a(I3
g221
tp843
a(I0
g129
tp844
a(I1
g221
tp845
a(I2
g134
tp846
a(I3
g221
tp847
a(I0
g132
tp848
a(I1
g221
tp849
a(I2
g132
tp850
a(I3
g221
tp851
a(I0
g132
tp852
a(I1
g221
tp853
a(I2
g127
tp854
a(I3
g221
tp855
a(I0
g134
tp856
a(I1
g221
tp857
a(I2
g132
tp858
a(I3
g221
tp859
a(I0
g134
tp860
a(I1
g221
tp861
a(I2
g132
tp862
a(I3
g221
tp863
a(I0
g127
tp864
a(I1
g221
tp865
a(I2
g129
tp866
a(I3
g221
tp867
a(I0
g134
tp868
a(I1
g221
tp869
a(I2
g132
tp870
a(I3
g221
tp871
a(I0
g134
tp872
a(I1
g221
tp873
a(I2
g132
tp874
a(I3
g221
tp875
a(I0
g129
tp876
a(I1
g221
tp877
a(I2
g132
tp878
a(I3
g221
tp879
a(I0
g134
tp880
a(I1
g221
tp881
a(I2
g132
tp882
a(I3
g221
tp883
a(I0
g134
tp884
a(I1
g221
tp885
a(I2
g132
tp886
a(I3
g221
tp887
a(I0
g132
tp888
a(I1
g221
tp889
a(I2
g127
tp890
a(I3
g221
tp891
a(I0
g132
tp892
a(I1
g221
tp893
a(I2
g132
tp894
a(I3
g221
tp895
a(I0
g127
tp896
a(I1
g221
tp897
a(I2
g132
tp898
a(I3
g221
tp899
a(I0
g132
tp900
a(I1
g221
tp901
a(I2
g129
tp902
a(I3
g221
tp903
a(I0
g132
tp904
a(I1
g221
tp905
a(I2
g132
tp906
a(I3
g221
tp907
a(I0
g129
tp908
a(I1
g221
tp909
a(I2
g132
tp910
a(I3
g221
tp911
a(I0
g132
tp912
a(I1
g221
tp913
a(I2
g134
tp914
a(I3
g221
tp915
a(I0
g132
tp916
a(I1
g221
tp917
a(I2
g134
tp918
a(I3
g221
tp919
a(I0
g134
tp920
a(I1
g221
tp921
a(I2
g127
tp922
a(I3
g221
tp923
a(I0
g134
tp924
a(I1
g221
tp925
a(I2
g134
tp926
a(I3
g221
tp927
a(I0
g127
tp928
a(I1
g221
tp929
a(I2
g134
tp930
a(I3
g221
tp931
a(I0
g134
tp932
a(I1
g221
tp933
a(I2
g129
tp934
a(I3
g221
tp935
a(I0
g134
tp936
a(I1
g221
tp937
a(I2
g134
tp938
a(I3
g221
tp939
a(I0
g129
tp940
a(I1
g221
tp941
a(I2
g134
tp942
a(I3
g221
tp943
a(I0
g134
tp944
a(I1
g221
tp945
a(I2
g134
tp946
a(I3
g221
tp947
a(I0
g134
tp948
a(I1
g221
tp949
a(I2
g134
tp950
a(I3
g221
tp951
a(I0
g132
tp952
a(I1
g221
tp953
a(I2
g134
tp954
a(I3
g221
tp955
a(I0
g132
tp956
a(I1
g221
tp957
a(I2
g127
tp958
a(I3
g221
tp959
a(I0
g127
tp960
a(I1
g221
tp961
a(I2
g134
tp962
a(I3
g221
tp963
a(I0
g132
tp964
a(I1
g221
tp965
a(I2
g134
tp966
a(I3
g221
tp967
a(I0
g132
tp968
a(I1
g221
tp969
a(I2
g129
tp970
a(I3
g221
tp971
a(I0
g129
tp972
a(I1
g221
tp973
a(I2
g134
tp974
a(I3
g221
tp975
a(I0
g132
tp976
a(I1
g221
tp977
a(I2
g132
tp978
a(I3
g221
tp979
a(I0
g132
tp980
a(I1
g221
tp981
a(I2
g127
tp982
a(I3
g221
tp983
a(I0
g134
tp984
a(I1
g221
tp985
a(I2
g132
tp986
a(I3
g221
tp987
a(I0
g134
tp988
a(I1
g221
tp989
a(I2
g132
tp990
a(I3
g221
tp991
a(I0
g127
tp992
a(I1
g221
tp993
a(I2
g129
tp994
a(I3
g221
tp995
a(I0
g134
tp996
a(I1
g221
tp997
a(I2
g132
tp998
a(I3
g221
tp999
a(I0
g134
tp1000
a(I1
g221
tp1001
a(I2
g132
tp1002
a(I3
g221
tp1003
a(I0
g129
tp1004
a(I1
g221
tp1005
a(I2
g132
tp1006
a(I3
g221
tp1007
a(I0
g134
tp1008
a(I1
g221
tp1009
a(I2
g132
tp1010
a(I3
g221
tp1011
a(I0
g134
tp1012
a(I1
g221
tp1013
a(I2
g132
tp1014
a(I3
g221
tp1015
a(I0
g132
tp1016
a(I1
g221
tp1017
a(I2
g127
tp1018
a(I3
g221
tp1019
a(I0
g132
tp1020
a(I1
g221
tp1021
a(I2
g132
tp1022
a(I3
g221
tp1023
a(I0
g127
tp1024
a(I1
g221
tp1025
a(I2
g132
tp1026
a(I3
g221
tp1027
a(I0
g132
tp1028
a(I1
g221
tp1029
a(I2
g129
tp1030
a(I3
g221
tp1031
a(I0
g132
tp1032
a(I1
g221
tp1033
a(I2
g132
tp1034
a(I3
g221
tp1035
a(I0
g129
tp1036
a(I1
g221
tp1037
a(I2
g132
tp1038
a(I3
g221
tp1039
a(I0
g132
tp1040
a(I1
g221
tp1041
a(I2
g134
tp1042
a(I3
g221
tp1043
a(I0
g132
tp1044
a(I1
g221
tp1045
a(I2
g134
tp1046
a(I3
g221
tp1047
a(I0
g134
tp1048
a(I1
g221
tp1049
a(I2
g127
tp1050
a(I3
g221
tp1051
a(I0
g134
tp1052
a(I1
g221
tp1053
a(I2
g134
tp1054
a(I3
g221
tp1055
a(I0
g127
tp1056
a(I1
g221
tp1057
a(I2
g134
tp1058
a(I3
g221
tp1059
a(I0
g134
tp1060
a(I1
g221
tp1061
a(I2
g129
tp1062
a(I3
g221
tp1063
a(I0
g134
tp1064
a(I1
g221
tp1065
a(I2
g134
tp1066
a(I3
g221
tp1067
a(I0
g129
tp1068
a(I1
g221
tp1069
a(I2
g134
tp1070
a(I3
g221
tp1071
a(I0
g134
tp1072
a(I1
g221
tp1073
a(I2
g134
tp1074
a(I3
g221
tp1075
a(I0
g134
tp1076
a(I1
g221
tp1077
a(I2
g134
tp1078
a(I3
g221
tp1079
a(I0
g132
tp1080
a(I1
g221
tp1081
a(I2
g134
tp1082
a(I3
g221
tp1083
a(I0
g132
tp1084
a(I1
g221
tp1085
a(I2
g127
tp1086
a(I3
g221
tp1087
a(I0
g127
tp1088
a(I1
g221
tp1089
a(I2
g134
tp1090
a(I3
g221
tp1091
a(I0
g132
tp1092
a(I1
g221
tp1093
a(I2
g134
tp1094
a(I3
g221
tp1095
a(I0
g132
tp1096
a(I1
g221
tp1097
a(I2
g129
tp1098
a(I3
g221
tp1099
a(I0
g129
tp1100
a(I1
g221
tp1101
a(I2
g134
tp1102
a(I3
g221
tp1103
a(I0
g132
tp1104
a(I1
g221
tp1105
a(I2
g132
tp1106
a(I3
g221
tp1107
a(I0
g132
tp1108
a(I1
g221
tp1109
a(I2
g127
tp1110
a(I3
g221
tp1111
a(I0
g134
tp1112
a(I1
g221
tp1113
a(I2
g132
tp1114
a(I3
g221
tp1115
a(I0
g134
tp1116
a(I1
g221
tp1117
a(I2
g132
tp1118
a(I3
g221
tp1119
a(I0
g127
tp1120
a(I1
g221
tp1121
a(I2
g129
tp1122
a(I3
g221
tp1123
a(I0
g134
tp1124
a(I1
g221
tp1125
a(I2
g132
tp1126
a(I3
g221
tp1127
a(I0
g134
tp1128
a(I1
g221
tp1129
a(I2
g132
tp1130
a(I3
g221
tp1131
a(I0
g129
tp1132
a(I1
g221
tp1133
a(I2
g132
tp1134
a(I3
g221
tp1135
a(I0
g134
tp1136
a(I1
g221
tp1137
a(I2
g132
tp1138
a(I3
g221
tp1139
a(I0
g134
tp1140
a(I1
g221
tp1141
a(I2
g132
tp1142
a(I3
g221
tp1143
a(I0
g132
tp1144
a(I1
g221
tp1145
a(I2
g127
tp1146
a(I3
g221
tp1147
a(I0
g132
tp1148
a(I1
g221
tp1149
a(I2
g132
tp1150
a(I3
g221
tp1151
a(I0
g127
tp1152
a(I1
g221
tp1153
a(I2
g132
tp1154
a(I3
g221
tp1155
a(I0
g132
tp1156
a(I1
g221
tp1157
a(I2
g129
tp1158
a(I3
g221
tp1159
a(I0
g132
tp1160
a(I1
g221
tp1161
a(I2
g132
tp1162
a(I3
g221
tp1163
a(I0
g129
tp1164
a(I1
g221
tp1165
a(I2
g132
tp1166
a(I3
g221
tp1167
a(I0
g132
tp1168
a(I1
g221
tp1169
a(I2
g134
tp1170
a(I3
g221
tp1171
a(I0
g132
tp1172
a(I1
g221
tp1173
a(I2
g134
tp1174
a(I3
g221
tp1175
a(I0
g134
tp1176
a(I1
g221
tp1177
a(I2
g127
tp1178
a(I3
g221
tp1179
a(I0
g134
tp1180
a(I1
g221
tp1181
a(I2
g134
tp1182
a(I3
g221
tp1183
a(I0
g127
tp1184
a(I1
g221
tp1185
a(I2
g134
tp1186
a(I3
g221
tp1187
a(I0
g134
tp1188
a(I1
g221
tp1189
a(I2
g129
tp1190
a(I3
g221
tp1191
a(I0
g134
tp1192
a(I1
g221
tp1193
a(I2
g134
tp1194
a(I3
g221
tp1195
a(I0
g129
tp1196
a(I1
g221
tp1197
a(I2
g134
tp1198
a(I3
g221
tp1199
a(I0
g134
tp1200
a(I1
g221
tp1201
a(I2
g134
tp1202
a(I3
g221
tp1203
a(I0
g134
tp1204
a(I1
g221
tp1205
a(I2
g134
tp1206
a(I3
g221
tp1207
a(I0
g132
tp1208
a(I1
g221
tp1209
a(I2
g134
tp1210
a(I3
g221
tp1211
a(I0
g132
tp1212
a(I1
g221
tp1213
a(I2
g127
tp1214
a(I3
g221
tp1215
a(I0
g127
tp1216
a(I1
g221
tp1217
a(I2
g134
tp1218
a(I3
g221
tp1219
a(I0
g132
tp1220
a(I1
g221
tp1221
a(I2
g134
tp1222
a(I3
g221
tp1223
a(I0
g132
tp1224
a(I1
g221
tp1225
a(I2
g129
tp1226
a(I3
g221
tp1227
a(I0
g129
tp1228
a(I1
g221
tp1229
a(I2
g134
tp1230
a(I3
g221
tp1231
a(I0
g132
tp1232
a(I1
g221
tp1233
a(I2
g132
tp1234
a(I3
g221
tp1235
a(I0
g132
tp1236
a(I1
g221
tp1237
a(I2
g127
tp1238
a(I3
g221
tp1239
a(I0
g134
tp1240
a(I1
g221
tp1241
a(I2
g132
tp1242
a(I3
g221
tp1243
a(I0
g134
tp1244
a(I1
g221
tp1245
a(I2
g132
tp1246
a(I3
g221
tp1247
a(I0
g127
tp1248
a(I1
g221
tp1249
a(I2
g129
tp1250
a(I3
g221
tp1251
a(I0
g134
tp1252
a(I1
g221
tp1253
a(I2
g132
tp1254
a(I3
g221
tp1255
a(I0
g134
tp1256
a(I1
g221
tp1257
a(I2
g132
tp1258
a(I3
g221
tp1259
a(I0
g129
tp1260
a(I1
g221
tp1261
a(I2
g132
tp1262
a(I3
g221
tp1263
a(I0
g134
tp1264
a(I1
g221
tp1265
a(I2
g132
tp1266
a(I3
g221
tp1267
a(I0
g134
tp1268
a(I1
g221
tp1269
a(I2
g132
tp1270
a(I3
g221
tp1271
a(I0
g132
tp1272
a(I1
g221
tp1273
a(I2
g127
tp1274
a(I3
g221
tp1275
a(I0
g132
tp1276
a(I1
g221
tp1277
a(I2
g132
tp1278
a(I3
g221
tp1279
a(I0
g127
tp1280
a(I1
g221
tp1281
a(I2
g132
tp1282
a(I3
g221
tp1283
a(I0
g132
tp1284
a(I1
g221
tp1285
a(I2
g129
tp1286
a(I3
g221
tp1287
a(I0
g132
tp1288
a(I1
g221
tp1289
a(I2
g132
tp1290
a(I3
g221
tp1291
a(I0
g129
tp1292
a(I1
g221
tp1293
a(I2
g132
tp1294
a(I3
g221
tp1295
a(I0
g132
tp1296
a(I1
g221
tp1297
a(I2
g134
tp1298
a(I3
g221
tp1299
a(I0
g132
tp1300
a(I1
g221
tp1301
a(I2
g134
tp1302
a(I3
g221
tp1303
a(I0
g134
tp1304
a(I1
g221
tp1305
a(I2
g127
tp1306
a(I3
g221
tp1307
a(I0
g134
tp1308
a(I1
g221
tp1309
a(I2
g134
tp1310
a(I3
g221
tp1311
a(I0
g127
tp1312
a(I1
g221
tp1313
a(I2
g134
tp1314
a(I3
g221
tp1315
a(I0
g134
tp1316
a(I1
g221
tp1317
a(I2
g129
tp1318
a(I3
g221
tp1319
a(I0
g134
tp1320
a(I1
g221
tp1321
a(I2
g134
tp1322
a(I3
g221
tp1323
a(I0
g129
tp1324
a(I1
g221
tp1325
a(I2
g134
tp1326
a(I3
g221
tp1327
a(I0
g134
tp1328
a(I1
g221
tp1329
a(I2
g134
tp1330
a(I3
g221
tp1331
asS'length'
p1332
I1200
sS'agents'
p1333
(lp1334
(igame
Agent
p1335
(dp1336
S'index'
p1337
I0
sba(igame
Agent
p1338
(dp1339
g1337
I0
sba(igame
Agent
p1340
(dp1341
g1337
I0
sba(igame
Agent
p1342
(dp1343
g1337
I0
sbasS'redTeamName'
p1344
S'Red'
p1345
s.