(dp1
S'layout'
p2
(ilayout
Layout
p3
(dp4
S'capsules'
p5
(lp6
sS'numGhosts'
p7
I4
sS'food'
p8
(igame
Grid
p9
(dp10
S'CELLS_PER_INT'
p11
I30
sS'width'
p12
I34
sS'data'
p13
(lp14
(lp15
I00
aI00
aI00
aI00
aI00
aI00
aI00
aI00
aI00
aI00
aI00
aI00
aI00
aI00
aI00
aI00
aI00
aI00
aa(lp16
I00
aI00
aI00
aI00
aI00
aI00
aI00
aI00
aI01
aI00
aI01
aI00
aI00
aI00
aI01
aI00
aI01
aI00
aa(lp17
I00
aI00
aI00
aI00
aI00
aI00
aI00
aI00
aI00
aI00
aI00
aI00
aI00
aI00
aI00
aI01
aI00
aI00
aa(lp18
I00
aI00
aI00
aI00
aI00
aI00
aI00
aI00
aI01
aI00
aI00
aI00
aI00
aI00
aI01
aI00
aI00
aI00
aa(lp19
I00
aI00
aI00
aI00
aI00
aI00
aI01
aI00
aI00
aI00
aI00
aI01
aI00
aI00
aI01
aI00
aI00
aI00
aa(lp20
I00
aI00
aI00
aI00
aI00
aI00
aI00
aI00
aI00
aI00
aI00
aI00
aI00
aI00
aI00
aI00
aI01
aI00
aa(lp21
I00
aI00
aI01
aI00
aI00
aI00
aI00
aI00
aI00
aI00
aI00
aI00
aI01
aI00
aI01
aI00
aI00
aI00
aa(lp22
I00
aI00
aI00
aI00
aI00
aI00
aI00
aI00
aI00
aI00
aI00
aI00
aI00
aI00
aI00
aI00
aI00
aI00
aa(lp23
I00
aI00
aI01
aI00
aI00
aI00
aI00
aI00
aI00
aI01
aI00
aI00
aI00
aI00
aI00
aI00
aI00
aI00
aa(lp24
I00
aI00
aI00
aI00
aI00
aI00
aI00
aI00
aI00
aI00
aI00
aI00
aI00
aI00
aI00
aI00
aI00
aI00
aa(lp25
I00
aI00
aI00
aI00
aI00
aI00
aI00
aI00
aI00
aI00
aI00
aI00
aI00
aI00
aI00
aI00
aI01
aI00
aa(lp26
I00
aI00
aI00
aI00
aI00
aI00
aI00
aI00
aI00
aI00
aI00
aI00
aI00
aI00
aI00
aI00
aI00
aI00
aa(lp27
I00
aI00
aI01
aI00
aI00
aI00
aI00
aI00
aI00
aI00
aI00
aI00
aI01
aI00
aI00
aI00
aI00
aI00
aa(lp28
I00
aI00
aI01
aI00
aI00
aI01
aI00
aI00
aI00
aI00
aI00
aI00
aI00
aI00
aI00
aI00
aI01
aI00
aa(lp29
I00
aI00
aI00
aI00
aI00
aI00
aI00
aI00
aI00
aI00
aI00
aI00
aI00
aI01
aI01
aI00
aI01
aI00
aa(lp30
I00
aI00
aI00
aI00
aI00
aI00
aI00
aI00
aI00
aI00
aI00
aI00
aI00
aI00
aI00
aI00
aI00
aI00
aa(lp31
I00
aI01
aI01
aI01
aI00
aI00
aI00
aI00
aI01
aI00
aI00
aI00
aI00
aI00
aI00
aI00
aI01
aI00
aa(lp32
I00
aI01
aI00
aI00
aI00
aI00
aI00
aI00
aI00
aI01
aI00
aI00
aI00
aI00
aI01
aI01
aI01
aI00
aa(lp33
I00
aI00
aI00
aI00
aI00
aI00
aI00
aI00
aI00
aI00
aI00
aI00
aI00
aI00
aI00
aI00
aI00
aI00
aa(lp34
I00
aI01
aI00
aI01
aI01
aI00
aI00
aI00
aI00
aI00
aI00
aI00
aI00
aI00
aI00
aI00
aI00
aI00
aa(lp35
I00
aI01
aI00
aI00
aI00
aI00
aI00
aI00
aI00
aI00
aI00
aI00
aI01
aI00
aI00
aI01
aI00
aI00
aa(lp36
I00
aI00
aI00
aI00
aI00
aI01
aI00
aI00
aI00
aI00
aI00
aI00
aI00
aI00
aI00
aI01
aI00
aI00
aa(lp37
I00
aI00
aI00
aI00
aI00
aI00
aI00
aI00
aI00
aI00
aI00
aI00
aI00
aI00
aI00
aI00
aI00
aI00
aa(lp38
I00
aI01
aI00
aI00
aI00
aI00
aI00
aI00
aI00
aI00
aI00
aI00
aI00
aI00
aI00
aI00
aI00
aI00
aa(lp39
I00
aI00
aI00
aI00
aI00
aI00
aI00
aI00
aI00
aI00
aI00
aI00
aI00
aI00
aI00
aI00
aI00
aI00
aa(lp40
I00
aI00
aI00
aI00
aI00
aI00
aI00
aI00
aI01
aI00
aI00
aI00
aI00
aI00
aI00
aI01
aI00
aI00
aa(lp41
I00
aI00
aI00
aI00
aI00
aI00
aI00
aI00
aI00
aI00
aI00
aI00
aI00
aI00
aI00
aI00
aI00
aI00
aa(lp42
I00
aI00
aI00
aI01
aI00
aI01
aI00
aI00
aI00
aI00
aI00
aI00
aI00
aI00
aI00
aI01
aI00
aI00
aa(lp43
I00
aI01
aI00
aI00
aI00
aI00
aI00
aI00
aI00
aI00
aI00
aI00
aI00
aI00
aI00
aI00
aI00
aI00
aa(lp44
I00
aI00
aI00
aI01
aI00
aI00
aI01
aI00
aI00
aI00
aI00
aI01
aI00
aI00
aI00
aI00
aI00
aI00
aa(lp45
I00
aI00
aI00
aI01
aI00
aI00
aI00
aI00
aI00
aI01
aI00
aI00
aI00
aI00
aI00
aI00
aI00
aI00
aa(lp46
I00
aI00
aI01
aI00
aI00
aI00
aI00
aI00
aI00
aI00
aI00
aI00
aI00
aI00
aI00
aI00
aI00
aI00
aa(lp47
I00
aI01
aI00
aI01
aI00
aI00
aI00
aI01
aI00
aI01
aI00
aI00
aI00
aI00
aI00
aI00
aI00
aI00
aa(lp48
I00
aI00
aI00
aI00
aI00
aI00
aI00
aI00
aI00
aI00
aI00
aI00
aI00
aI00
aI00
aI00
aI00
aI00
aasS'height'
p49
I18
sbsS'agentPositions'
p50
(lp51
(I00
(I1
I2
tp52
tp53
a(I00
(I32
I15
tp54
tp55
a(I00
(I1
I1
tp56
tp57
a(I00
(I32
I16
tp58
tp59
asg49
I18
sg12
I34
sS'walls'
p60
(igame
Grid
p61
(dp62
g11
I30
sg12
I34
sg13
(lp63
(lp64
I01
aI01
aI01
aI01
aI01
aI01
aI01
aI01
aI01
aI01
aI01
aI01
aI01
aI01
aI01
aI01
aI01
aI01
aa(lp65
I01
aI00
aI00
aI00
aI01
aI00
aI00
aI01
aI00
aI00
aI00
aI00
aI00
aI01
aI00
aI01
aI00
aI01
aa(lp66
I01
aI00
aI00
aI00
aI00
aI00
aI00
aI01
aI01
aI00
aI01
aI01
aI00
aI01
aI00
aI00
aI00
aI01
aa(lp67
I01
aI01
aI01
aI00
aI01
aI01
aI01
aI01
aI00
aI00
aI01
aI00
aI00
aI01
aI00
aI01
aI00
aI01
aa(lp68
I01
aI00
aI00
aI00
aI00
aI01
aI00
aI01
aI00
aI00
aI01
aI00
aI00
aI01
aI00
aI01
aI00
aI01
aa(lp69
I01
aI00
aI01
aI01
aI00
aI00
aI00
aI01
aI01
aI01
aI01
aI01
aI00
aI01
aI01
aI01
aI00
aI01
aa(lp70
I01
aI00
aI00
aI01
aI00
aI01
aI00
aI00
aI00
aI00
aI00
aI00
aI00
aI01
aI00
aI01
aI00
aI01
aa(lp71
I01
aI00
aI01
aI01
aI00
aI01
aI00
aI01
aI00
aI01
aI01
aI00
aI01
aI01
aI00
aI00
aI00
aI01
aa(lp72
I01
aI00
aI00
aI01
aI00
aI01
aI00
aI01
aI00
aI00
aI01
aI00
aI00
aI00
aI00
aI00
aI00
aI01
aa(lp73
I01
aI00
aI00
aI00
aI00
aI01
aI00
aI00
aI00
aI01
aI01
aI01
aI01
aI01
aI01
aI00
aI01
aI01
aa(lp74
I01
aI00
aI00
aI01
aI00
aI01
aI00
aI01
aI00
aI00
aI00
aI00
aI01
aI00
aI00
aI00
aI00
aI01
aa(lp75
I01
aI00
aI00
aI01
aI00
aI00
aI00
aI01
aI00
aI00
aI00
aI00
aI01
aI00
aI01
aI01
aI01
aI01
aa(lp76
I01
aI00
aI00
aI01
aI01
aI00
aI00
aI00
aI00
aI00
aI01
aI00
aI00
aI00
aI00
aI00
aI00
aI01
aa(lp77
I01
aI00
aI00
aI01
aI00
aI00
aI00
aI01
aI00
aI00
aI00
aI00
aI01
aI00
aI01
aI01
aI00
aI01
aa(lp78
I01
aI00
aI00
aI00
aI00
aI00
aI00
aI01
aI00
aI00
aI00
aI00
aI01
aI00
aI00
aI01
aI00
aI01
aa(lp79
I01
aI00
aI00
aI00
aI00
aI00
aI01
aI01
aI01
aI00
aI01
aI01
aI01
aI01
aI01
aI01
aI01
aI01
aa(lp80
I01
aI00
aI00
aI00
aI00
aI00
aI00
aI00
aI00
aI00
aI00
aI00
aI00
aI00
aI00
aI00
aI00
aI01
aa(lp81
I01
aI00
aI00
aI00
aI00
aI00
aI00
aI00
aI00
aI00
aI00
aI00
aI00
aI00
aI00
aI00
aI00
aI01
aa(lp82
I01
aI01
aI01
aI01
aI01
aI01
aI01
aI01
aI00
aI01
aI01
aI01
aI00
aI00
aI00
aI00
aI00
aI01
aa(lp83
I01
aI00
aI01
aI00
aI00
aI01
aI00
aI00
aI00
aI00
aI01
aI00
aI00
aI00
aI00
aI00
aI00
aI01
aa(lp84
I01
aI00
aI01
aI01
aI00
aI01
aI00
aI00
aI00
aI00
aI01
aI00
aI00
aI00
aI01
aI00
aI00
aI01
aa(lp85
I01
aI00
aI00
aI00
aI00
aI00
aI00
aI01
aI00
aI00
aI00
aI00
aI00
aI01
aI01
aI00
aI00
aI01
aa(lp86
I01
aI01
aI01
aI01
aI00
aI01
aI00
aI00
aI00
aI00
aI01
aI00
aI00
aI00
aI01
aI00
aI00
aI01
aa(lp87
I01
aI00
aI00
aI00
aI00
aI01
aI00
aI00
aI00
aI00
aI01
aI00
aI01
aI00
aI01
aI00
aI00
aI01
aa(lp88
I01
aI01
aI00
aI01
aI01
aI01
aI01
aI01
aI01
aI00
aI00
aI00
aI01
aI00
aI00
aI00
aI00
aI01
aa(lp89
I01
aI00
aI00
aI00
aI00
aI00
aI00
aI01
aI00
aI00
aI01
aI00
aI01
aI00
aI01
aI00
aI00
aI01
aa(lp90
I01
aI00
aI00
aI00
aI01
aI01
aI00
aI01
aI01
aI00
aI01
aI00
aI01
aI00
aI01
aI01
aI00
aI01
aa(lp91
I01
aI00
aI01
aI00
aI01
aI00
aI00
aI00
aI00
aI00
aI00
aI00
aI01
aI00
aI01
aI00
aI00
aI01
aa(lp92
I01
aI00
aI01
aI01
aI01
aI00
aI01
aI01
aI01
aI01
aI01
aI00
aI00
aI00
aI01
aI01
aI00
aI01
aa(lp93
I01
aI00
aI01
aI00
aI01
aI00
aI00
aI01
aI00
aI00
aI01
aI00
aI01
aI00
aI00
aI00
aI00
aI01
aa(lp94
I01
aI00
aI01
aI00
aI01
aI00
aI00
aI01
aI00
aI00
aI01
aI01
aI01
aI01
aI00
aI01
aI01
aI01
aa(lp95
I01
aI00
aI00
aI00
aI01
aI00
aI01
aI01
aI00
aI01
aI01
aI00
aI00
aI00
aI00
aI00
aI00
aI01
aa(lp96
I01
aI00
aI01
aI00
aI01
aI00
aI00
aI00
aI00
aI00
aI01
aI00
aI00
aI01
aI00
aI00
aI00
aI01
aa(lp97
I01
aI01
aI01
aI01
aI01
aI01
aI01
aI01
aI01
aI01
aI01
aI01
aI01
aI01
aI01
aI01
aI01
aI01
aasg49
I18
sbsS'totalFood'
p98
I60
sS'layoutText'
p99
(lp100
S'%%%%%%%%%%%%%%%%%%%%%%%%%%%%%%%%%%'
p101
aS'%.   .   %.% ..%..            % 4%'
p102
aS'%%.%%%%    % %%% .  ..   .%.% % 2%'
p103
aS'%. ..%.  % % %.% .  %%%% %%%%    %'
p104
aS'%%%%%%%% %    .%     %        % %%'
p105
aS'%     .% %%%.%%%    .  %%%%% %%  %'
p106
aS'% % .%   %     %  %          .%  %'
p107
aS'%.%%%% %%%  %  %  %%% %% %% %%%%%%'
p108
aS'%    % %.%       .%         % .%.%'
p109
aS'%.%. %         %.       %.% %    %'
p110
aS'%%%%%% %% %% %%%  %  %  %%% %%%%.%'
p111
aS'%  %.          %  %     %   %. % %'
p112
aS'%  %% %%%%%  .    %%%.%%% %.     %'
p113
aS'%% %        %     %.    % %%%%%%%%'
p114
aS'%    %%%% %%%%  . %.% % %  .%.. .%'
p115
aS'%1 % %.%.   ..  . %%% %    %%%%.%%'
p116
aS'%3 %            ..%.. %.%   .   .%'
p117
aS'%%%%%%%%%%%%%%%%%%%%%%%%%%%%%%%%%%'
p118
asbsS'blueTeamName'
p119
S'Blue'
p120
sS'actions'
p121
(lp122
(I1
S'West'
p123
tp124
a(I2
S'East'
p125
tp126
a(I3
S'South'
p127
tp128
a(I0
g125
tp129
a(I1
g127
tp130
a(I2
S'North'
p131
tp132
a(I3
g127
tp133
a(I0
g131
tp134
a(I1
g123
tp135
a(I2
g131
tp136
a(I3
g123
tp137
a(I0
g125
tp138
a(I1
g123
tp139
a(I2
g125
tp140
a(I3
g123
tp141
a(I0
g125
tp142
a(I1
g131
tp143
a(I2
g125
tp144
a(I3
g123
tp145
a(I0
g131
tp146
a(I1
g131
tp147
a(I2
g131
tp148
a(I3
g131
tp149
a(I0
g125
tp150
a(I1
g123
tp151
a(I2
g125
tp152
a(I3
g127
tp153
a(I0
g125
tp154
a(I1
g123
tp155
a(I2
g125
tp156
a(I3
g127
tp157
a(I0
g125
tp158
a(I1
g123
tp159
a(I2
g125
tp160
a(I3
g123
tp161
a(I0
g125
tp162
a(I1
g123
tp163
a(I2
g125
tp164
a(I3
g127
tp165
a(I0
g125
tp166
a(I1
g123
tp167
a(I2
g125
tp168
a(I3
g127
tp169
a(I0
g125
tp170
a(I1
g123
tp171
a(I2
g125
tp172
a(I3
g131
tp173
a(I0
g125
tp174
a(I1
g123
tp175
a(I2
g125
tp176
a(I3
g131
tp177
a(I0
g131
tp178
a(I1
g123
tp179
a(I2
g131
tp180
a(I3
g127
tp181
a(I0
g125
tp182
a(I1
g123
tp183
a(I2
g125
tp184
a(I3
g127
tp185
a(I0
g125
tp186
a(I1
g123
tp187
a(I2
g125
tp188
a(I3
g123
tp189
a(I0
g125
tp190
a(I1
g123
tp191
a(I2
g125
tp192
a(I3
g127
tp193
a(I0
g125
tp194
a(I1
g123
tp195
a(I2
g125
tp196
a(I3
g131
tp197
a(I0
g125
tp198
a(I1
g123
tp199
a(I2
g125
tp200
a(I3
g127
tp201
a(I0
g125
tp202
a(I1
g127
tp203
a(I2
g125
tp204
a(I3
g127
tp205
a(I0
g127
tp206
a(I1
g127
tp207
a(I2
g131
tp208
a(I3
g131
tp209
a(I0
g127
tp210
a(I1
g127
tp211
a(I2
g131
tp212
a(I3
g131
tp213
a(I0
g127
tp214
a(I1
g127
tp215
a(I2
g131
tp216
a(I3
g127
tp217
a(I0
g127
tp218
a(I1
g127
tp219
a(I2
g131
tp220
a(I3
g127
tp221
a(I0
g131
tp222
a(I1
g127
tp223
a(I2
g131
tp224
a(I3
g123
tp225
a(I0
g131
tp226
a(I1
g127
tp227
a(I2
g131
tp228
a(I3
g123
tp229
a(I0
g131
tp230
a(I1
g127
tp231
a(I2
g131
tp232
a(I3
g123
tp233
a(I0
g131
tp234
a(I1
g127
tp235
a(I2
g131
tp236
a(I3
g123
tp237
a(I0
g123
tp238
a(I1
g125
tp239
a(I2
g131
tp240
a(I3
g123
tp241
a(I0
g123
tp242
a(I1
g131
tp243
a(I2
g131
tp244
a(I3
g123
tp245
a(I0
g123
tp246
a(I1
g131
tp247
a(I2
g131
tp248
a(I3
g131
tp249
a(I0
g123
tp250
a(I1
g131
tp251
a(I2
g125
tp252
a(I3
g131
tp253
a(I0
g123
tp254
a(I1
g127
tp255
a(I2
g125
tp256
a(I3
g131
tp257
a(I0
g123
tp258
a(I1
g127
tp259
a(I2
g125
tp260
a(I3
g123
tp261
a(I0
g131
tp262
a(I1
g127
tp263
a(I2
g127
tp264
a(I3
g131
tp265
a(I0
g123
tp266
a(I1
g127
tp267
a(I2
g125
tp268
a(I3
g123
tp269
a(I0
g123
tp270
a(I1
g127
tp271
a(I2
g125
tp272
a(I3
g131
tp273
a(I0
g123
tp274
a(I1
g127
tp275
a(I2
g125
tp276
a(I3
g131
tp277
a(I0
g123
tp278
a(I1
g127
tp279
a(I2
g125
tp280
a(I3
g125
tp281
a(I0
g123
tp282
a(I1
g123
tp283
a(I2
g125
tp284
a(I3
g125
tp285
a(I0
g131
tp286
a(I1
g127
tp287
a(I2
g131
tp288
a(I3
g131
tp289
a(I0
g131
tp290
a(I1
g127
tp291
a(I2
g125
tp292
a(I3
g125
tp293
a(I0
g131
tp294
a(I1
g131
tp295
a(I2
g125
tp296
a(I3
g125
tp297
a(I0
g131
tp298
a(I1
g123
tp299
a(I2
g127
tp300
a(I3
g125
tp301
a(I0
g131
tp302
a(I1
g123
tp303
a(I2
g131
tp304
a(I3
g125
tp305
a(I0
g131
tp306
a(I1
g123
tp307
a(I2
g125
tp308
a(I3
g125
tp309
a(I0
g127
tp310
a(I1
g123
tp311
a(I2
g125
tp312
a(I3
g125
tp313
a(I0
g125
tp314
a(I1
g123
tp315
a(I2
g127
tp316
a(I3
g125
tp317
a(I0
g125
tp318
a(I1
g123
tp319
a(I2
g127
tp320
a(I3
g125
tp321
a(I0
g131
tp322
a(I1
g123
tp323
a(I2
g127
tp324
a(I3
g127
tp325
a(I0
g131
tp326
a(I1
g123
tp327
a(I2
g123
tp328
a(I3
g127
tp329
a(I0
g131
tp330
a(I1
g127
tp331
a(I2
g127
tp332
a(I3
g127
tp333
a(I0
g123
tp334
a(I1
g123
tp335
a(I2
g127
tp336
a(I3
g123
tp337
a(I0
g131
tp338
a(I1
g123
tp339
a(I2
g125
tp340
a(I3
g127
tp341
a(I0
g131
tp342
a(I1
g131
tp343
a(I2
S'Stop'
p344
tp345
a(I3
g127
tp346
a(I0
g123
tp347
a(I1
g127
tp348
a(I2
g344
tp349
a(I3
g125
tp350
a(I0
g125
tp351
a(I1
g125
tp352
a(I2
g125
tp353
a(I3
g123
tp354
a(I0
g125
tp355
a(I1
g125
tp356
a(I2
g131
tp357
a(I3
g123
tp358
a(I0
g127
tp359
a(I1
g131
tp360
a(I2
g131
tp361
a(I3
g125
tp362
a(I0
g125
tp363
a(I1
g125
tp364
a(I2
g125
tp365
a(I3
g123
tp366
a(I0
g125
tp367
a(I1
g131
tp368
a(I2
g125
tp369
a(I3
g125
tp370
a(I0
g127
tp371
a(I1
g131
tp372
a(I2
g131
tp373
a(I3
g123
tp374
a(I0
g127
tp375
a(I1
g125
tp376
a(I2
g125
tp377
a(I3
g123
tp378
a(I0
g125
tp379
a(I1
g125
tp380
a(I2
g131
tp381
a(I3
g123
tp382
a(I0
g125
tp383
a(I1
g131
tp384
a(I2
g131
tp385
a(I3
g123
tp386
a(I0
g127
tp387
a(I1
g125
tp388
a(I2
g125
tp389
a(I3
g127
tp390
a(I0
g127
tp391
a(I1
g125
tp392
a(I2
g131
tp393
a(I3
g131
tp394
a(I0
g125
tp395
a(I1
g131
tp396
a(I2
g127
tp397
a(I3
g127
tp398
a(I0
g125
tp399
a(I1
g123
tp400
a(I2
g125
tp401
a(I3
g131
tp402
a(I0
g127
tp403
a(I1
g127
tp404
a(I2
g125
tp405
a(I3
g127
tp406
a(I0
g127
tp407
a(I1
g125
tp408
a(I2
g125
tp409
a(I3
g127
tp410
a(I0
g125
tp411
a(I1
g125
tp412
a(I2
g125
tp413
a(I3
g131
tp414
a(I0
g125
tp415
a(I1
g125
tp416
a(I2
g125
tp417
a(I3
g131
tp418
a(I0
g125
tp419
a(I1
g125
tp420
a(I2
g125
tp421
a(I3
g127
tp422
a(I0
g131
tp423
a(I1
g125
tp424
a(I2
g123
tp425
a(I3
g131
tp426
a(I0
g131
tp427
a(I1
g131
tp428
a(I2
g123
tp429
a(I3
g123
tp430
a(I0
g131
tp431
a(I1
g131
tp432
a(I2
g123
tp433
a(I3
g123
tp434
a(I0
g125
tp435
a(I1
g131
tp436
a(I2
g123
tp437
a(I3
g131
tp438
a(I0
g125
tp439
a(I1
g131
tp440
a(I2
g123
tp441
a(I3
g123
tp442
a(I0
g125
tp443
a(I1
g123
tp444
a(I2
g123
tp445
a(I3
g123
tp446
a(I0
g125
tp447
a(I1
g123
tp448
a(I2
g125
tp449
a(I3
g127
tp450
a(I0
g131
tp451
a(I1
g123
tp452
a(I2
g125
tp453
a(I3
g125
tp454
a(I0
g125
tp455
a(I1
g131
tp456
a(I2
g125
tp457
a(I3
g131
tp458
a(I0
g125
tp459
a(I1
g131
tp460
a(I2
g125
tp461
a(I3
g123
tp462
a(I0
g131
tp463
a(I1
g123
tp464
a(I2
g125
tp465
a(I3
g131
tp466
a(I0
g125
tp467
a(I1
g123
tp468
a(I2
g125
tp469
a(I3
g127
tp470
a(I0
g131
tp471
a(I1
g131
tp472
a(I2
g125
tp473
a(I3
g127
tp474
a(I0
g131
tp475
a(I1
g131
tp476
a(I2
g125
tp477
a(I3
g131
tp478
a(I0
g125
tp479
a(I1
g125
tp480
a(I2
g127
tp481
a(I3
g127
tp482
a(I0
g125
tp483
a(I1
g125
tp484
a(I2
g125
tp485
a(I3
g125
tp486
a(I0
g125
tp487
a(I1
g131
tp488
a(I2
g125
tp489
a(I3
g131
tp490
a(I0
g125
tp491
a(I1
g127
tp492
a(I2
g125
tp493
a(I3
g123
tp494
a(I0
g131
tp495
a(I1
g123
tp496
a(I2
g131
tp497
a(I3
g131
tp498
a(I0
g131
tp499
a(I1
g123
tp500
a(I2
g131
tp501
a(I3
g123
tp502
a(I0
g125
tp503
a(I1
g131
tp504
a(I2
g131
tp505
a(I3
g131
tp506
a(I0
g125
tp507
a(I1
g131
tp508
a(I2
g131
tp509
a(I3
g131
tp510
a(I0
g131
tp511
a(I1
g131
tp512
a(I2
g131
tp513
a(I3
g131
tp514
a(I0
g131
tp515
a(I1
g125
tp516
a(I2
g131
tp517
a(I3
g125
tp518
a(I0
g131
tp519
a(I1
g125
tp520
a(I2
g131
tp521
a(I3
g125
tp522
a(I0
g125
tp523
a(I1
g123
tp524
a(I2
g125
tp525
a(I3
g344
tp526
a(I0
g131
tp527
a(I1
g123
tp528
a(I2
g125
tp529
a(I3
g344
tp530
a(I0
g131
tp531
a(I1
g344
tp532
a(I2
g127
tp533
a(I3
g127
tp534
a(I0
g131
tp535
a(I1
g344
tp536
a(I2
g125
tp537
a(I3
g123
tp538
a(I0
g131
tp539
a(I1
g344
tp540
a(I2
g125
tp541
a(I3
g123
tp542
a(I0
g131
tp543
a(I1
g127
tp544
a(I2
g125
tp545
a(I3
g127
tp546
a(I0
g127
tp547
a(I1
g123
tp548
a(I2
g125
tp549
a(I3
g127
tp550
a(I0
g127
tp551
a(I1
g127
tp552
a(I2
g125
tp553
a(I3
g127
tp554
a(I0
g127
tp555
a(I1
g127
tp556
a(I2
g125
tp557
a(I3
g125
tp558
a(I0
g123
tp559
a(I1
g125
tp560
a(I2
g125
tp561
a(I3
g344
tp562
a(I0
g123
tp563
a(I1
g123
tp564
a(I2
g125
tp565
a(I3
g127
tp566
a(I0
g131
tp567
a(I1
g131
tp568
a(I2
g127
tp569
a(I3
g125
tp570
a(I0
g131
tp571
a(I1
g131
tp572
a(I2
g127
tp573
a(I3
g127
tp574
a(I0
g123
tp575
a(I1
g123
tp576
a(I2
g123
tp577
a(I3
g127
tp578
a(I0
g123
tp579
a(I1
g123
tp580
a(I2
g123
tp581
a(I3
g125
tp582
a(I0
g123
tp583
a(I1
g127
tp584
a(I2
g123
tp585
a(I3
g125
tp586
a(I0
g131
tp587
a(I1
g123
tp588
a(I2
g131
tp589
a(I3
g125
tp590
a(I0
g123
tp591
a(I1
g123
tp592
a(I2
g131
tp593
a(I3
g131
tp594
a(I0
g123
tp595
a(I1
g123
tp596
a(I2
g123
tp597
a(I3
g131
tp598
a(I0
g123
tp599
a(I1
g123
tp600
a(I2
g123
tp601
a(I3
g123
tp602
a(I0
g123
tp603
a(I1
g123
tp604
a(I2
g123
tp605
a(I3
g123
tp606
a(I0
g123
tp607
a(I1
g123
tp608
a(I2
g123
tp609
a(I3
g123
tp610
a(I0
g123
tp611
a(I1
g123
tp612
a(I2
g123
tp613
a(I3
g123
tp614
a(I0
g125
tp615
a(I1
g127
tp616
a(I2
g131
tp617
a(I3
g131
tp618
a(I0
g125
tp619
a(I1
g123
tp620
a(I2
g123
tp621
a(I3
g123
tp622
a(I0
g125
tp623
a(I1
g123
tp624
a(I2
g123
tp625
a(I3
g123
tp626
a(I0
g125
tp627
a(I1
g123
tp628
a(I2
g123
tp629
a(I3
g125
tp630
a(I0
g125
tp631
a(I1
g123
tp632
a(I2
g127
tp633
a(I3
g127
tp634
a(I0
g125
tp635
a(I1
g123
tp636
a(I2
g127
tp637
a(I3
g125
tp638
a(I0
g125
tp639
a(I1
g123
tp640
a(I2
g131
tp641
a(I3
g125
tp642
a(I0
g127
tp643
a(I1
g125
tp644
a(I2
g127
tp645
a(I3
g344
tp646
a(I0
g125
tp647
a(I1
g127
tp648
a(I2
g127
tp649
a(I3
g127
tp650
a(I0
g125
tp651
a(I1
g127
tp652
a(I2
g123
tp653
a(I3
g131
tp654
a(I0
g127
tp655
a(I1
g127
tp656
a(I2
g123
tp657
a(I3
g123
tp658
a(I0
g127
tp659
a(I1
g123
tp660
a(I2
g125
tp661
a(I3
g131
tp662
a(I0
g125
tp663
a(I1
g127
tp664
a(I2
g125
tp665
a(I3
g131
tp666
a(I0
g125
tp667
a(I1
g125
tp668
a(I2
g123
tp669
a(I3
g127
tp670
a(I0
g127
tp671
a(I1
g131
tp672
a(I2
g123
tp673
a(I3
g127
tp674
a(I0
g127
tp675
a(I1
g131
tp676
a(I2
g123
tp677
a(I3
g125
tp678
a(I0
g125
tp679
a(I1
g131
tp680
a(I2
g123
tp681
a(I3
g131
tp682
a(I0
g125
tp683
a(I1
g123
tp684
a(I2
g125
tp685
a(I3
g123
tp686
a(I0
g127
tp687
a(I1
g127
tp688
a(I2
g125
tp689
a(I3
g127
tp690
a(I0
g127
tp691
a(I1
g127
tp692
a(I2
g125
tp693
a(I3
g131
tp694
a(I0
g125
tp695
a(I1
g127
tp696
a(I2
g125
tp697
a(I3
g123
tp698
a(I0
g125
tp699
a(I1
g125
tp700
a(I2
g123
tp701
a(I3
g131
tp702
a(I0
g125
tp703
a(I1
g131
tp704
a(I2
g123
tp705
a(I3
g127
tp706
a(I0
g125
tp707
a(I1
g131
tp708
a(I2
g125
tp709
a(I3
g127
tp710
a(I0
g131
tp711
a(I1
g131
tp712
a(I2
g125
tp713
a(I3
g125
tp714
a(I0
g125
tp715
a(I1
g131
tp716
a(I2
g125
tp717
a(I3
g123
tp718
a(I0
g125
tp719
a(I1
g131
tp720
a(I2
g127
tp721
a(I3
g131
tp722
a(I0
g131
tp723
a(I1
g123
tp724
a(I2
g125
tp725
a(I3
g123
tp726
a(I0
g125
tp727
a(I1
g127
tp728
a(I2
g125
tp729
a(I3
g123
tp730
a(I0
g131
tp731
a(I1
g127
tp732
a(I2
g125
tp733
a(I3
g127
tp734
a(I0
g131
tp735
a(I1
g127
tp736
a(I2
g127
tp737
a(I3
g127
tp738
a(I0
g125
tp739
a(I1
g127
tp740
a(I2
g127
tp741
a(I3
g127
tp742
a(I0
g131
tp743
a(I1
g123
tp744
a(I2
g125
tp745
a(I3
g127
tp746
a(I0
g131
tp747
a(I1
g123
tp748
a(I2
g127
tp749
a(I3
g125
tp750
a(I0
g131
tp751
a(I1
g131
tp752
a(I2
g127
tp753
a(I3
g125
tp754
a(I0
g131
tp755
a(I1
g131
tp756
a(I2
g123
tp757
a(I3
g127
tp758
a(I0
g131
tp759
a(I1
g123
tp760
a(I2
g123
tp761
a(I3
g127
tp762
a(I0
g131
tp763
a(I1
g123
tp764
a(I2
g127
tp765
a(I3
g125
tp766
a(I0
g123
tp767
a(I1
g131
tp768
a(I2
g131
tp769
a(I3
g125
tp770
a(I0
g123
tp771
a(I1
g131
tp772
a(I2
g125
tp773
a(I3
g127
tp774
a(I0
g123
tp775
a(I1
g131
tp776
a(I2
g123
tp777
a(I3
g127
tp778
a(I0
g123
tp779
a(I1
g131
tp780
a(I2
g127
tp781
a(I3
g123
tp782
a(I0
g123
tp783
a(I1
g131
tp784
a(I2
g344
tp785
a(I3
g123
tp786
a(I0
g127
tp787
a(I1
g125
tp788
a(I2
g344
tp789
a(I3
g127
tp790
a(I0
g127
tp791
a(I1
g123
tp792
a(I2
g125
tp793
a(I3
g131
tp794
a(I0
g131
tp795
a(I1
g127
tp796
a(I2
g131
tp797
a(I3
g125
tp798
a(I0
g131
tp799
a(I1
g127
tp800
a(I2
g131
tp801
a(I3
g125
tp802
a(I0
g125
tp803
a(I1
g127
tp804
a(I2
g125
tp805
a(I3
g131
tp806
a(I0
g125
tp807
a(I1
g123
tp808
a(I2
g125
tp809
a(I3
g131
tp810
a(I0
g125
tp811
a(I1
g123
tp812
a(I2
g131
tp813
a(I3
g123
tp814
a(I0
g125
tp815
a(I1
g131
tp816
a(I2
g125
tp817
a(I3
g131
tp818
a(I0
g125
tp819
a(I1
g131
tp820
a(I2
g131
tp821
a(I3
g131
tp822
a(I0
g127
tp823
a(I1
g131
tp824
a(I2
g131
tp825
a(I3
g131
tp826
a(I0
g127
tp827
a(I1
g127
tp828
a(I2
g125
tp829
a(I3
g125
tp830
a(I0
g127
tp831
a(I1
g123
tp832
a(I2
g131
tp833
a(I3
g131
tp834
a(I0
g127
tp835
a(I1
g123
tp836
a(I2
g131
tp837
a(I3
g127
tp838
a(I0
g125
tp839
a(I1
g127
tp840
a(I2
g131
tp841
a(I3
g131
tp842
a(I0
g125
tp843
a(I1
g123
tp844
a(I2
g131
tp845
a(I3
g131
tp846
a(I0
g125
tp847
a(I1
g125
tp848
a(I2
g131
tp849
a(I3
g127
tp850
a(I0
g125
tp851
a(I1
g131
tp852
a(I2
g125
tp853
a(I3
g131
tp854
a(I0
g125
tp855
a(I1
g125
tp856
a(I2
g125
tp857
a(I3
g127
tp858
a(I0
g125
tp859
a(I1
g125
tp860
a(I2
g131
tp861
a(I3
g131
tp862
a(I0
g125
tp863
a(I1
g127
tp864
a(I2
g131
tp865
a(I3
g344
tp866
a(I0
g125
tp867
a(I1
g127
tp868
a(I2
g131
tp869
a(I3
g127
tp870
a(I0
g131
tp871
a(I1
g125
tp872
a(I2
g131
tp873
a(I3
g131
tp874
a(I0
g125
tp875
a(I1
g125
tp876
a(I2
g127
tp877
a(I3
g127
tp878
a(I0
g125
tp879
a(I1
g127
tp880
a(I2
g127
tp881
a(I3
g127
tp882
a(I0
g125
tp883
a(I1
g127
tp884
a(I2
g127
tp885
a(I3
g123
tp886
a(I0
g127
tp887
a(I1
g125
tp888
a(I2
g127
tp889
a(I3
g127
tp890
a(I0
g127
tp891
a(I1
g127
tp892
a(I2
g123
tp893
a(I3
g123
tp894
a(I0
g127
tp895
a(I1
g127
tp896
a(I2
g123
tp897
a(I3
g123
tp898
a(I0
g127
tp899
a(I1
g123
tp900
a(I2
g131
tp901
a(I3
g123
tp902
a(I0
g127
tp903
a(I1
g123
tp904
a(I2
g123
tp905
a(I3
g127
tp906
a(I0
g127
tp907
a(I1
g123
tp908
a(I2
g123
tp909
a(I3
g127
tp910
a(I0
g127
tp911
a(I1
g127
tp912
a(I2
g127
tp913
a(I3
g127
tp914
a(I0
g127
tp915
a(I1
g123
tp916
a(I2
g131
tp917
a(I3
g127
tp918
a(I0
g123
tp919
a(I1
g125
tp920
a(I2
g125
tp921
a(I3
g131
tp922
asS'length'
p923
I1200
sS'agents'
p924
(lp925
(igame
Agent
p926
(dp927
S'index'
p928
I0
sba(igame
Agent
p929
(dp930
g928
I0
sba(igame
Agent
p931
(dp932
g928
I0
sba(igame
Agent
p933
(dp934
g928
I0
sbasS'redTeamName'
p935
S'Red'
p936
s.