(dp1
S'layout'
p2
(ilayout
Layout
p3
(dp4
S'capsules'
p5
(lp6
sS'numGhosts'
p7
I4
sS'food'
p8
(igame
Grid
p9
(dp10
S'CELLS_PER_INT'
p11
I30
sS'width'
p12
I34
sS'data'
p13
(lp14
(lp15
I00
aI00
aI00
aI00
aI00
aI00
aI00
aI00
aI00
aI00
aI00
aI00
aI00
aI00
aI00
aI00
aI00
aI00
aa(lp16
I00
aI00
aI00
aI00
aI00
aI00
aI00
aI00
aI01
aI00
aI01
aI00
aI00
aI00
aI01
aI00
aI01
aI00
aa(lp17
I00
aI00
aI00
aI00
aI00
aI00
aI00
aI00
aI00
aI00
aI00
aI00
aI00
aI00
aI00
aI01
aI00
aI00
aa(lp18
I00
aI00
aI00
aI00
aI00
aI00
aI00
aI00
aI01
aI00
aI00
aI00
aI00
aI00
aI01
aI00
aI00
aI00
aa(lp19
I00
aI00
aI00
aI00
aI00
aI00
aI01
aI00
aI00
aI00
aI00
aI01
aI00
aI00
aI01
aI00
aI00
aI00
aa(lp20
I00
aI00
aI00
aI00
aI00
aI00
aI00
aI00
aI00
aI00
aI00
aI00
aI00
aI00
aI00
aI00
aI01
aI00
aa(lp21
I00
aI00
aI01
aI00
aI00
aI00
aI00
aI00
aI00
aI00
aI00
aI00
aI01
aI00
aI01
aI00
aI00
aI00
aa(lp22
I00
aI00
aI00
aI00
aI00
aI00
aI00
aI00
aI00
aI00
aI00
aI00
aI00
aI00
aI00
aI00
aI00
aI00
aa(lp23
I00
aI00
aI01
aI00
aI00
aI00
aI00
aI00
aI00
aI01
aI00
aI00
aI00
aI00
aI00
aI00
aI00
aI00
aa(lp24
I00
aI00
aI00
aI00
aI00
aI00
aI00
aI00
aI00
aI00
aI00
aI00
aI00
aI00
aI00
aI00
aI00
aI00
aa(lp25
I00
aI00
aI00
aI00
aI00
aI00
aI00
aI00
aI00
aI00
aI00
aI00
aI00
aI00
aI00
aI00
aI01
aI00
aa(lp26
I00
aI00
aI00
aI00
aI00
aI00
aI00
aI00
aI00
aI00
aI00
aI00
aI00
aI00
aI00
aI00
aI00
aI00
aa(lp27
I00
aI00
aI01
aI00
aI00
aI00
aI00
aI00
aI00
aI00
aI00
aI00
aI01
aI00
aI00
aI00
aI00
aI00
aa(lp28
I00
aI00
aI01
aI00
aI00
aI01
aI00
aI00
aI00
aI00
aI00
aI00
aI00
aI00
aI00
aI00
aI01
aI00
aa(lp29
I00
aI00
aI00
aI00
aI00
aI00
aI00
aI00
aI00
aI00
aI00
aI00
aI00
aI01
aI01
aI00
aI01
aI00
aa(lp30
I00
aI00
aI00
aI00
aI00
aI00
aI00
aI00
aI00
aI00
aI00
aI00
aI00
aI00
aI00
aI00
aI00
aI00
aa(lp31
I00
aI01
aI01
aI01
aI00
aI00
aI00
aI00
aI01
aI00
aI00
aI00
aI00
aI00
aI00
aI00
aI01
aI00
aa(lp32
I00
aI01
aI00
aI00
aI00
aI00
aI00
aI00
aI00
aI01
aI00
aI00
aI00
aI00
aI01
aI01
aI01
aI00
aa(lp33
I00
aI00
aI00
aI00
aI00
aI00
aI00
aI00
aI00
aI00
aI00
aI00
aI00
aI00
aI00
aI00
aI00
aI00
aa(lp34
I00
aI01
aI00
aI01
aI01
aI00
aI00
aI00
aI00
aI00
aI00
aI00
aI00
aI00
aI00
aI00
aI00
aI00
aa(lp35
I00
aI01
aI00
aI00
aI00
aI00
aI00
aI00
aI00
aI00
aI00
aI00
aI01
aI00
aI00
aI01
aI00
aI00
aa(lp36
I00
aI00
aI00
aI00
aI00
aI01
aI00
aI00
aI00
aI00
aI00
aI00
aI00
aI00
aI00
aI01
aI00
aI00
aa(lp37
I00
aI00
aI00
aI00
aI00
aI00
aI00
aI00
aI00
aI00
aI00
aI00
aI00
aI00
aI00
aI00
aI00
aI00
aa(lp38
I00
aI01
aI00
aI00
aI00
aI00
aI00
aI00
aI00
aI00
aI00
aI00
aI00
aI00
aI00
aI00
aI00
aI00
aa(lp39
I00
aI00
aI00
aI00
aI00
aI00
aI00
aI00
aI00
aI00
aI00
aI00
aI00
aI00
aI00
aI00
aI00
aI00
aa(lp40
I00
aI00
aI00
aI00
aI00
aI00
aI00
aI00
aI01
aI00
aI00
aI00
aI00
aI00
aI00
aI01
aI00
aI00
aa(lp41
I00
aI00
aI00
aI00
aI00
aI00
aI00
aI00
aI00
aI00
aI00
aI00
aI00
aI00
aI00
aI00
aI00
aI00
aa(lp42
I00
aI00
aI00
aI01
aI00
aI01
aI00
aI00
aI00
aI00
aI00
aI00
aI00
aI00
aI00
aI01
aI00
aI00
aa(lp43
I00
aI01
aI00
aI00
aI00
aI00
aI00
aI00
aI00
aI00
aI00
aI00
aI00
aI00
aI00
aI00
aI00
aI00
aa(lp44
I00
aI00
aI00
aI01
aI00
aI00
aI01
aI00
aI00
aI00
aI00
aI01
aI00
aI00
aI00
aI00
aI00
aI00
aa(lp45
I00
aI00
aI00
aI01
aI00
aI00
aI00
aI00
aI00
aI01
aI00
aI00
aI00
aI00
aI00
aI00
aI00
aI00
aa(lp46
I00
aI00
aI01
aI00
aI00
aI00
aI00
aI00
aI00
aI00
aI00
aI00
aI00
aI00
aI00
aI00
aI00
aI00
aa(lp47
I00
aI01
aI00
aI01
aI00
aI00
aI00
aI01
aI00
aI01
aI00
aI00
aI00
aI00
aI00
aI00
aI00
aI00
aa(lp48
I00
aI00
aI00
aI00
aI00
aI00
aI00
aI00
aI00
aI00
aI00
aI00
aI00
aI00
aI00
aI00
aI00
aI00
aasS'height'
p49
I18
sbsS'agentPositions'
p50
(lp51
(I00
(I1
I2
tp52
tp53
a(I00
(I32
I15
tp54
tp55
a(I00
(I1
I1
tp56
tp57
a(I00
(I32
I16
tp58
tp59
asg49
I18
sg12
I34
sS'walls'
p60
(igame
Grid
p61
(dp62
g11
I30
sg12
I34
sg13
(lp63
(lp64
I01
aI01
aI01
aI01
aI01
aI01
aI01
aI01
aI01
aI01
aI01
aI01
aI01
aI01
aI01
aI01
aI01
aI01
aa(lp65
I01
aI00
aI00
aI00
aI01
aI00
aI00
aI01
aI00
aI00
aI00
aI00
aI00
aI01
aI00
aI01
aI00
aI01
aa(lp66
I01
aI00
aI00
aI00
aI00
aI00
aI00
aI01
aI01
aI00
aI01
aI01
aI00
aI01
aI00
aI00
aI00
aI01
aa(lp67
I01
aI01
aI01
aI00
aI01
aI01
aI01
aI01
aI00
aI00
aI01
aI00
aI00
aI01
aI00
aI01
aI00
aI01
aa(lp68
I01
aI00
aI00
aI00
aI00
aI01
aI00
aI01
aI00
aI00
aI01
aI00
aI00
aI01
aI00
aI01
aI00
aI01
aa(lp69
I01
aI00
aI01
aI01
aI00
aI00
aI00
aI01
aI01
aI01
aI01
aI01
aI00
aI01
aI01
aI01
aI00
aI01
aa(lp70
I01
aI00
aI00
aI01
aI00
aI01
aI00
aI00
aI00
aI00
aI00
aI00
aI00
aI01
aI00
aI01
aI00
aI01
aa(lp71
I01
aI00
aI01
aI01
aI00
aI01
aI00
aI01
aI00
aI01
aI01
aI00
aI01
aI01
aI00
aI00
aI00
aI01
aa(lp72
I01
aI00
aI00
aI01
aI00
aI01
aI00
aI01
aI00
aI00
aI01
aI00
aI00
aI00
aI00
aI00
aI00
aI01
aa(lp73
I01
aI00
aI00
aI00
aI00
aI01
aI00
aI00
aI00
aI01
aI01
aI01
aI01
aI01
aI01
aI00
aI01
aI01
aa(lp74
I01
aI00
aI00
aI01
aI00
aI01
aI00
aI01
aI00
aI00
aI00
aI00
aI01
aI00
aI00
aI00
aI00
aI01
aa(lp75
I01
aI00
aI00
aI01
aI00
aI00
aI00
aI01
aI00
aI00
aI00
aI00
aI01
aI00
aI01
aI01
aI01
aI01
aa(lp76
I01
aI00
aI00
aI01
aI01
aI00
aI00
aI00
aI00
aI00
aI01
aI00
aI00
aI00
aI00
aI00
aI00
aI01
aa(lp77
I01
aI00
aI00
aI01
aI00
aI00
aI00
aI01
aI00
aI00
aI00
aI00
aI01
aI00
aI01
aI01
aI00
aI01
aa(lp78
I01
aI00
aI00
aI00
aI00
aI00
aI00
aI01
aI00
aI00
aI00
aI00
aI01
aI00
aI00
aI01
aI00
aI01
aa(lp79
I01
aI00
aI00
aI00
aI00
aI00
aI01
aI01
aI01
aI00
aI01
aI01
aI01
aI01
aI01
aI01
aI01
aI01
aa(lp80
I01
aI00
aI00
aI00
aI00
aI00
aI00
aI00
aI00
aI00
aI00
aI00
aI00
aI00
aI00
aI00
aI00
aI01
aa(lp81
I01
aI00
aI00
aI00
aI00
aI00
aI00
aI00
aI00
aI00
aI00
aI00
aI00
aI00
aI00
aI00
aI00
aI01
aa(lp82
I01
aI01
aI01
aI01
aI01
aI01
aI01
aI01
aI00
aI01
aI01
aI01
aI00
aI00
aI00
aI00
aI00
aI01
aa(lp83
I01
aI00
aI01
aI00
aI00
aI01
aI00
aI00
aI00
aI00
aI01
aI00
aI00
aI00
aI00
aI00
aI00
aI01
aa(lp84
I01
aI00
aI01
aI01
aI00
aI01
aI00
aI00
aI00
aI00
aI01
aI00
aI00
aI00
aI01
aI00
aI00
aI01
aa(lp85
I01
aI00
aI00
aI00
aI00
aI00
aI00
aI01
aI00
aI00
aI00
aI00
aI00
aI01
aI01
aI00
aI00
aI01
aa(lp86
I01
aI01
aI01
aI01
aI00
aI01
aI00
aI00
aI00
aI00
aI01
aI00
aI00
aI00
aI01
aI00
aI00
aI01
aa(lp87
I01
aI00
aI00
aI00
aI00
aI01
aI00
aI00
aI00
aI00
aI01
aI00
aI01
aI00
aI01
aI00
aI00
aI01
aa(lp88
I01
aI01
aI00
aI01
aI01
aI01
aI01
aI01
aI01
aI00
aI00
aI00
aI01
aI00
aI00
aI00
aI00
aI01
aa(lp89
I01
aI00
aI00
aI00
aI00
aI00
aI00
aI01
aI00
aI00
aI01
aI00
aI01
aI00
aI01
aI00
aI00
aI01
aa(lp90
I01
aI00
aI00
aI00
aI01
aI01
aI00
aI01
aI01
aI00
aI01
aI00
aI01
aI00
aI01
aI01
aI00
aI01
aa(lp91
I01
aI00
aI01
aI00
aI01
aI00
aI00
aI00
aI00
aI00
aI00
aI00
aI01
aI00
aI01
aI00
aI00
aI01
aa(lp92
I01
aI00
aI01
aI01
aI01
aI00
aI01
aI01
aI01
aI01
aI01
aI00
aI00
aI00
aI01
aI01
aI00
aI01
aa(lp93
I01
aI00
aI01
aI00
aI01
aI00
aI00
aI01
aI00
aI00
aI01
aI00
aI01
aI00
aI00
aI00
aI00
aI01
aa(lp94
I01
aI00
aI01
aI00
aI01
aI00
aI00
aI01
aI00
aI00
aI01
aI01
aI01
aI01
aI00
aI01
aI01
aI01
aa(lp95
I01
aI00
aI00
aI00
aI01
aI00
aI01
aI01
aI00
aI01
aI01
aI00
aI00
aI00
aI00
aI00
aI00
aI01
aa(lp96
I01
aI00
aI01
aI00
aI01
aI00
aI00
aI00
aI00
aI00
aI01
aI00
aI00
aI01
aI00
aI00
aI00
aI01
aa(lp97
I01
aI01
aI01
aI01
aI01
aI01
aI01
aI01
aI01
aI01
aI01
aI01
aI01
aI01
aI01
aI01
aI01
aI01
aasg49
I18
sbsS'totalFood'
p98
I60
sS'layoutText'
p99
(lp100
S'%%%%%%%%%%%%%%%%%%%%%%%%%%%%%%%%%%'
p101
aS'%.   .   %.% ..%..            % 4%'
p102
aS'%%.%%%%    % %%% .  ..   .%.% % 2%'
p103
aS'%. ..%.  % % %.% .  %%%% %%%%    %'
p104
aS'%%%%%%%% %    .%     %        % %%'
p105
aS'%     .% %%%.%%%    .  %%%%% %%  %'
p106
aS'% % .%   %     %  %          .%  %'
p107
aS'%.%%%% %%%  %  %  %%% %% %% %%%%%%'
p108
aS'%    % %.%       .%         % .%.%'
p109
aS'%.%. %         %.       %.% %    %'
p110
aS'%%%%%% %% %% %%%  %  %  %%% %%%%.%'
p111
aS'%  %.          %  %     %   %. % %'
p112
aS'%  %% %%%%%  .    %%%.%%% %.     %'
p113
aS'%% %        %     %.    % %%%%%%%%'
p114
aS'%    %%%% %%%%  . %.% % %  .%.. .%'
p115
aS'%1 % %.%.   ..  . %%% %    %%%%.%%'
p116
aS'%3 %            ..%.. %.%   .   .%'
p117
aS'%%%%%%%%%%%%%%%%%%%%%%%%%%%%%%%%%%'
p118
asbsS'blueTeamName'
p119
S'Blue'
p120
sS'actions'
p121
(lp122
(I1
S'South'
p123
tp124
a(I2
S'East'
p125
tp126
a(I3
g123
tp127
a(I0
g125
tp128
a(I1
S'West'
p129
tp130
a(I2
S'North'
p131
tp132
a(I3
g123
tp133
a(I0
g131
tp134
a(I1
g129
tp135
a(I2
g131
tp136
a(I3
g129
tp137
a(I0
g125
tp138
a(I1
g129
tp139
a(I2
g125
tp140
a(I3
g129
tp141
a(I0
g125
tp142
a(I1
g123
tp143
a(I2
g125
tp144
a(I3
g129
tp145
a(I0
g131
tp146
a(I1
g129
tp147
a(I2
g131
tp148
a(I3
g131
tp149
a(I0
g125
tp150
a(I1
g123
tp151
a(I2
g125
tp152
a(I3
g131
tp153
a(I0
g125
tp154
a(I1
g123
tp155
a(I2
g125
tp156
a(I3
g129
tp157
a(I0
g125
tp158
a(I1
g129
tp159
a(I2
g125
tp160
a(I3
g129
tp161
a(I0
g125
tp162
a(I1
g123
tp163
a(I2
g125
tp164
a(I3
g129
tp165
a(I0
g125
tp166
a(I1
g123
tp167
a(I2
g125
tp168
a(I3
g129
tp169
a(I0
g125
tp170
a(I1
g129
tp171
a(I2
g125
tp172
a(I3
g129
tp173
a(I0
g125
tp174
a(I1
g129
tp175
a(I2
g125
tp176
a(I3
g129
tp177
a(I0
g131
tp178
a(I1
g129
tp179
a(I2
g131
tp180
a(I3
g129
tp181
a(I0
g125
tp182
a(I1
g129
tp183
a(I2
g125
tp184
a(I3
g129
tp185
a(I0
g125
tp186
a(I1
g123
tp187
a(I2
g125
tp188
a(I3
g129
tp189
a(I0
g125
tp190
a(I1
g129
tp191
a(I2
g125
tp192
a(I3
g129
tp193
a(I0
g125
tp194
a(I1
g129
tp195
a(I2
g125
tp196
a(I3
g129
tp197
a(I0
g125
tp198
a(I1
g129
tp199
a(I2
g125
tp200
a(I3
g129
tp201
a(I0
g125
tp202
a(I1
g129
tp203
a(I2
g125
tp204
a(I3
g129
tp205
a(I0
g131
tp206
a(I1
g129
tp207
a(I2
g131
tp208
a(I3
g125
tp209
a(I0
g129
tp210
a(I1
g129
tp211
a(I2
g129
tp212
a(I3
g123
tp213
a(I0
g123
tp214
a(I1
g129
tp215
a(I2
g131
tp216
a(I3
g123
tp217
a(I0
g125
tp218
a(I1
g125
tp219
a(I2
g131
tp220
a(I3
g131
tp221
a(I0
g123
tp222
a(I1
g123
tp223
a(I2
g131
tp224
a(I3
g131
tp225
a(I0
g123
tp226
a(I1
g123
tp227
a(I2
g129
tp228
a(I3
g123
tp229
a(I0
g123
tp230
a(I1
g123
tp231
a(I2
g129
tp232
a(I3
g123
tp233
a(I0
g123
tp234
a(I1
g123
tp235
a(I2
g129
tp236
a(I3
g123
tp237
a(I0
g129
tp238
a(I1
g123
tp239
a(I2
g131
tp240
a(I3
g123
tp241
a(I0
g129
tp242
a(I1
g129
tp243
a(I2
g125
tp244
a(I3
g123
tp245
a(I0
g125
tp246
a(I1
g129
tp247
a(I2
g123
tp248
a(I3
g123
tp249
a(I0
g129
tp250
a(I1
g125
tp251
a(I2
g125
tp252
a(I3
g123
tp253
a(I0
g125
tp254
a(I1
g129
tp255
a(I2
g125
tp256
a(I3
g123
tp257
a(I0
g129
tp258
a(I1
g125
tp259
a(I2
g125
tp260
a(I3
g131
tp261
a(I0
g125
tp262
a(I1
g129
tp263
a(I2
g125
tp264
a(I3
g129
tp265
a(I0
g125
tp266
a(I1
g123
tp267
a(I2
g131
tp268
a(I3
g123
tp269
a(I0
g131
tp270
a(I1
g125
tp271
a(I2
g131
tp272
a(I3
g123
tp273
a(I0
g131
tp274
a(I1
g123
tp275
a(I2
g125
tp276
a(I3
g123
tp277
a(I0
g131
tp278
a(I1
g131
tp279
a(I2
g125
tp280
a(I3
g123
tp281
a(I0
g131
tp282
a(I1
g129
tp283
a(I2
g131
tp284
a(I3
g131
tp285
a(I0
g131
tp286
a(I1
g129
tp287
a(I2
g125
tp288
a(I3
g131
tp289
a(I0
g131
tp290
a(I1
g129
tp291
a(I2
g125
tp292
a(I3
g131
tp293
a(I0
g131
tp294
a(I1
g129
tp295
a(I2
g125
tp296
a(I3
g131
tp297
a(I0
g131
tp298
a(I1
g129
tp299
a(I2
g125
tp300
a(I3
g129
tp301
a(I0
g131
tp302
a(I1
g129
tp303
a(I2
g125
tp304
a(I3
g125
tp305
a(I0
g131
tp306
a(I1
g129
tp307
a(I2
g123
tp308
a(I3
g131
tp309
a(I0
g131
tp310
a(I1
g129
tp311
a(I2
g123
tp312
a(I3
g131
tp313
a(I0
g131
tp314
a(I1
g123
tp315
a(I2
g129
tp316
a(I3
g131
tp317
a(I0
g131
tp318
a(I1
g125
tp319
a(I2
g125
tp320
a(I3
g131
tp321
a(I0
g131
tp322
a(I1
g125
tp323
a(I2
g125
tp324
a(I3
g131
tp325
a(I0
g131
tp326
a(I1
g125
tp327
a(I2
g125
tp328
a(I3
g131
tp329
a(I0
g125
tp330
a(I1
g125
tp331
a(I2
g125
tp332
a(I3
g131
tp333
a(I0
g125
tp334
a(I1
g125
tp335
a(I2
g125
tp336
a(I3
g125
tp337
a(I0
g125
tp338
a(I1
g125
tp339
a(I2
g125
tp340
a(I3
g125
tp341
a(I0
g123
tp342
a(I1
g125
tp343
a(I2
g125
tp344
a(I3
g123
tp345
a(I0
g125
tp346
a(I1
g125
tp347
a(I2
g125
tp348
a(I3
g125
tp349
a(I0
g125
tp350
a(I1
g129
tp351
a(I2
g129
tp352
a(I3
g125
tp353
a(I0
g125
tp354
a(I1
g125
tp355
a(I2
g125
tp356
a(I3
g125
tp357
a(I0
g125
tp358
a(I1
g129
tp359
a(I2
g129
tp360
a(I3
g125
tp361
a(I0
g125
tp362
a(I1
g125
tp363
a(I2
g125
tp364
a(I3
g125
tp365
a(I0
g131
tp366
a(I1
g129
tp367
a(I2
g129
tp368
a(I3
g131
tp369
a(I0
g125
tp370
a(I1
g125
tp371
a(I2
g125
tp372
a(I3
g125
tp373
a(I0
g125
tp374
a(I1
g125
tp375
a(I2
g129
tp376
a(I3
g125
tp377
a(I0
g123
tp378
a(I1
g131
tp379
a(I2
g129
tp380
a(I3
g125
tp381
a(I0
g131
tp382
a(I1
g131
tp383
a(I2
g131
tp384
a(I3
g129
tp385
a(I0
g125
tp386
a(I1
g131
tp387
a(I2
g131
tp388
a(I3
g125
tp389
a(I0
g125
tp390
a(I1
g131
tp391
a(I2
g129
tp392
a(I3
g125
tp393
a(I0
g123
tp394
a(I1
g131
tp395
a(I2
g131
tp396
a(I3
g125
tp397
a(I0
g123
tp398
a(I1
g131
tp399
a(I2
g129
tp400
a(I3
g125
tp401
a(I0
g123
tp402
a(I1
g131
tp403
a(I2
g129
tp404
a(I3
g123
tp405
a(I0
g129
tp406
a(I1
g131
tp407
a(I2
g131
tp408
a(I3
g123
tp409
a(I0
g123
tp410
a(I1
g131
tp411
a(I2
g129
tp412
a(I3
g123
tp413
a(I0
g123
tp414
a(I1
g131
tp415
a(I2
g129
tp416
a(I3
g129
tp417
a(I0
g125
tp418
a(I1
g131
tp419
a(I2
g129
tp420
a(I3
g123
tp421
a(I0
g129
tp422
a(I1
g125
tp423
a(I2
g129
tp424
a(I3
g131
tp425
a(I0
g129
tp426
a(I1
g125
tp427
a(I2
g129
tp428
a(I3
g123
tp429
a(I0
g123
tp430
a(I1
g123
tp431
a(I2
g131
tp432
a(I3
g123
tp433
a(I0
g123
tp434
a(I1
g125
tp435
a(I2
g131
tp436
a(I3
g129
tp437
a(I0
g129
tp438
a(I1
g125
tp439
a(I2
g131
tp440
a(I3
g123
tp441
a(I0
g129
tp442
a(I1
g123
tp443
a(I2
g131
tp444
a(I3
g123
tp445
a(I0
g123
tp446
a(I1
g123
tp447
a(I2
g131
tp448
a(I3
g129
tp449
a(I0
g131
tp450
a(I1
g125
tp451
a(I2
g131
tp452
a(I3
g129
tp453
a(I0
g125
tp454
a(I1
g123
tp455
a(I2
g123
tp456
a(I3
g129
tp457
a(I0
g131
tp458
a(I1
g129
tp459
a(I2
g123
tp460
a(I3
g129
tp461
a(I0
g125
tp462
a(I1
g129
tp463
a(I2
g123
tp464
a(I3
g123
tp465
a(I0
g125
tp466
a(I1
g129
tp467
a(I2
g123
tp468
a(I3
g129
tp469
a(I0
g131
tp470
a(I1
g129
tp471
a(I2
g125
tp472
a(I3
g129
tp473
a(I0
g125
tp474
a(I1
g129
tp475
a(I2
g125
tp476
a(I3
g129
tp477
a(I0
g131
tp478
a(I1
g123
tp479
a(I2
g125
tp480
a(I3
g129
tp481
a(I0
g131
tp482
a(I1
g123
tp483
a(I2
g125
tp484
a(I3
g129
tp485
a(I0
g125
tp486
a(I1
g123
tp487
a(I2
g125
tp488
a(I3
g129
tp489
a(I0
g131
tp490
a(I1
g129
tp491
a(I2
g125
tp492
a(I3
g129
tp493
a(I0
g131
tp494
a(I1
g129
tp495
a(I2
g125
tp496
a(I3
g123
tp497
a(I0
g125
tp498
a(I1
g129
tp499
a(I2
g125
tp500
a(I3
g123
tp501
a(I0
g125
tp502
a(I1
g129
tp503
a(I2
g131
tp504
a(I3
g123
tp505
a(I0
g125
tp506
a(I1
g125
tp507
a(I2
g125
tp508
a(I3
g129
tp509
a(I0
g125
tp510
a(I1
g125
tp511
a(I2
g125
tp512
a(I3
g129
tp513
a(I0
g125
tp514
a(I1
g125
tp515
a(I2
g125
tp516
a(I3
g125
tp517
a(I0
g125
tp518
a(I1
g125
tp519
a(I2
g131
tp520
a(I3
g125
tp521
a(I0
g123
tp522
a(I1
g131
tp523
a(I2
g131
tp524
a(I3
g131
tp525
a(I0
g123
tp526
a(I1
g131
tp527
a(I2
g131
tp528
a(I3
g131
tp529
a(I0
g125
tp530
a(I1
g131
tp531
a(I2
g125
tp532
a(I3
g131
tp533
a(I0
g125
tp534
a(I1
g131
tp535
a(I2
g125
tp536
a(I3
g131
tp537
a(I0
g123
tp538
a(I1
g131
tp539
a(I2
g125
tp540
a(I3
g131
tp541
a(I0
g129
tp542
a(I1
g131
tp543
a(I2
g125
tp544
a(I3
g131
tp545
a(I0
g129
tp546
a(I1
g131
tp547
a(I2
g125
tp548
a(I3
g131
tp549
a(I0
g129
tp550
a(I1
g125
tp551
a(I2
g123
tp552
a(I3
g125
tp553
a(I0
g131
tp554
a(I1
g125
tp555
a(I2
g125
tp556
a(I3
g125
tp557
a(I0
g129
tp558
a(I1
g123
tp559
a(I2
g125
tp560
a(I3
g125
tp561
a(I0
g129
tp562
a(I1
g125
tp563
a(I2
g123
tp564
a(I3
g125
tp565
a(I0
g129
tp566
a(I1
g125
tp567
a(I2
g123
tp568
a(I3
g125
tp569
a(I0
g129
tp570
a(I1
g123
tp571
a(I2
g129
tp572
a(I3
g123
tp573
a(I0
g129
tp574
a(I1
g123
tp575
a(I2
g123
tp576
a(I3
g125
tp577
a(I0
g131
tp578
a(I1
g123
tp579
a(I2
g123
tp580
a(I3
g125
tp581
a(I0
g131
tp582
a(I1
g125
tp583
a(I2
g129
tp584
a(I3
g125
tp585
a(I0
g131
tp586
a(I1
g123
tp587
a(I2
g125
tp588
a(I3
g123
tp589
a(I0
g123
tp590
a(I1
g131
tp591
a(I2
g131
tp592
a(I3
g123
tp593
a(I0
g125
tp594
a(I1
g129
tp595
a(I2
g131
tp596
a(I3
g129
tp597
a(I0
g125
tp598
a(I1
g129
tp599
a(I2
g125
tp600
a(I3
g123
tp601
a(I0
g125
tp602
a(I1
g129
tp603
a(I2
g125
tp604
a(I3
g129
tp605
a(I0
g125
tp606
a(I1
g129
tp607
a(I2
g131
tp608
a(I3
g129
tp609
a(I0
g125
tp610
a(I1
g129
tp611
a(I2
g125
tp612
a(I3
g129
tp613
a(I0
g125
tp614
a(I1
g131
tp615
a(I2
g131
tp616
a(I3
g129
tp617
a(I0
g125
tp618
a(I1
S'Stop'
p619
tp620
a(I2
g131
tp621
a(I3
g129
tp622
a(I0
g125
tp623
a(I1
g619
tp624
a(I2
g125
tp625
a(I3
g129
tp626
a(I0
g131
tp627
a(I1
g619
tp628
a(I2
g131
tp629
a(I3
g123
tp630
a(I0
g125
tp631
a(I1
g619
tp632
a(I2
g131
tp633
a(I3
g123
tp634
asS'length'
p635
I1200
sS'agents'
p636
(lp637
(igame
Agent
p638
(dp639
S'index'
p640
I0
sba(igame
Agent
p641
(dp642
g640
I0
sba(igame
Agent
p643
(dp644
g640
I0
sba(igame
Agent
p645
(dp646
g640
I0
sbasS'redTeamName'
p647
S'Red'
p648
s.