(dp1
S'layout'
p2
(ilayout
Layout
p3
(dp4
S'capsules'
p5
(lp6
(I8
I2
tp7
a(I11
I6
tp8
a(I22
I11
tp9
a(I25
I15
tp10
asS'numGhosts'
p11
I4
sS'food'
p12
(igame
Grid
p13
(dp14
S'CELLS_PER_INT'
p15
I30
sS'width'
p16
I34
sS'data'
p17
(lp18
(lp19
I00
aI00
aI00
aI00
aI00
aI00
aI00
aI00
aI00
aI00
aI00
aI00
aI00
aI00
aI00
aI00
aI00
aI00
aa(lp20
I00
aI00
aI00
aI00
aI00
aI00
aI00
aI00
aI00
aI00
aI00
aI00
aI00
aI00
aI00
aI00
aI00
aI00
aa(lp21
I00
aI00
aI00
aI00
aI00
aI00
aI00
aI00
aI00
aI00
aI00
aI00
aI00
aI00
aI00
aI00
aI00
aI00
aa(lp22
I00
aI00
aI00
aI00
aI00
aI01
aI00
aI01
aI00
aI00
aI00
aI01
aI01
aI00
aI00
aI01
aI00
aI00
aa(lp23
I00
aI00
aI00
aI00
aI00
aI00
aI00
aI00
aI01
aI00
aI00
aI00
aI00
aI00
aI00
aI00
aI00
aI00
aa(lp24
I00
aI00
aI00
aI00
aI00
aI00
aI00
aI00
aI00
aI00
aI01
aI00
aI00
aI00
aI00
aI00
aI00
aI00
aa(lp25
I00
aI00
aI00
aI00
aI00
aI01
aI00
aI00
aI00
aI00
aI00
aI00
aI01
aI00
aI00
aI00
aI00
aI00
aa(lp26
I00
aI01
aI00
aI01
aI01
aI00
aI00
aI00
aI00
aI00
aI00
aI00
aI00
aI00
aI00
aI00
aI01
aI00
aa(lp27
I00
aI00
aI00
aI00
aI00
aI00
aI00
aI00
aI00
aI00
aI00
aI00
aI00
aI00
aI00
aI00
aI01
aI00
aa(lp28
I00
aI01
aI00
aI00
aI00
aI00
aI01
aI00
aI00
aI00
aI01
aI00
aI00
aI00
aI01
aI00
aI01
aI00
aa(lp29
I00
aI00
aI00
aI00
aI00
aI00
aI00
aI00
aI00
aI00
aI00
aI00
aI00
aI00
aI00
aI00
aI00
aI00
aa(lp30
I00
aI00
aI00
aI00
aI00
aI01
aI00
aI00
aI01
aI00
aI00
aI00
aI00
aI01
aI00
aI01
aI00
aI00
aa(lp31
I00
aI00
aI00
aI00
aI00
aI00
aI00
aI00
aI00
aI00
aI00
aI00
aI00
aI00
aI00
aI01
aI00
aI00
aa(lp32
I00
aI01
aI00
aI01
aI00
aI00
aI00
aI00
aI00
aI00
aI00
aI01
aI01
aI01
aI00
aI00
aI00
aI00
aa(lp33
I00
aI00
aI00
aI00
aI00
aI00
aI00
aI00
aI00
aI00
aI00
aI00
aI00
aI00
aI00
aI00
aI00
aI00
aa(lp34
I00
aI00
aI00
aI00
aI00
aI00
aI00
aI01
aI00
aI00
aI00
aI00
aI00
aI00
aI00
aI00
aI00
aI00
aa(lp35
I00
aI00
aI00
aI00
aI00
aI00
aI00
aI00
aI00
aI00
aI00
aI00
aI00
aI00
aI00
aI00
aI00
aI00
aa(lp36
I00
aI00
aI00
aI00
aI00
aI00
aI00
aI00
aI00
aI00
aI00
aI00
aI00
aI00
aI00
aI00
aI00
aI00
aa(lp37
I00
aI00
aI00
aI00
aI00
aI00
aI00
aI00
aI00
aI00
aI01
aI00
aI00
aI00
aI00
aI00
aI00
aI00
aa(lp38
I00
aI00
aI00
aI00
aI00
aI00
aI00
aI00
aI00
aI00
aI00
aI00
aI00
aI00
aI00
aI00
aI00
aI00
aa(lp39
I00
aI00
aI00
aI00
aI01
aI01
aI01
aI00
aI00
aI00
aI00
aI00
aI00
aI00
aI01
aI00
aI01
aI00
aa(lp40
I00
aI00
aI01
aI00
aI00
aI00
aI00
aI00
aI00
aI00
aI00
aI00
aI00
aI00
aI00
aI00
aI00
aI00
aa(lp41
I00
aI00
aI01
aI00
aI01
aI00
aI00
aI00
aI00
aI01
aI00
aI00
aI01
aI00
aI00
aI00
aI00
aI00
aa(lp42
I00
aI00
aI00
aI00
aI00
aI00
aI00
aI00
aI00
aI00
aI00
aI00
aI00
aI00
aI00
aI00
aI00
aI00
aa(lp43
I00
aI01
aI00
aI01
aI00
aI00
aI00
aI01
aI00
aI00
aI00
aI01
aI00
aI00
aI00
aI00
aI01
aI00
aa(lp44
I00
aI01
aI00
aI00
aI00
aI00
aI00
aI00
aI00
aI00
aI00
aI00
aI00
aI00
aI00
aI00
aI00
aI00
aa(lp45
I00
aI01
aI00
aI00
aI00
aI00
aI00
aI00
aI00
aI00
aI00
aI00
aI00
aI01
aI01
aI00
aI01
aI00
aa(lp46
I00
aI00
aI00
aI00
aI00
aI01
aI00
aI00
aI00
aI00
aI00
aI00
aI01
aI00
aI00
aI00
aI00
aI00
aa(lp47
I00
aI00
aI00
aI00
aI00
aI00
aI00
aI01
aI00
aI00
aI00
aI00
aI00
aI00
aI00
aI00
aI00
aI00
aa(lp48
I00
aI00
aI00
aI00
aI00
aI00
aI00
aI00
aI00
aI01
aI00
aI00
aI00
aI00
aI00
aI00
aI00
aI00
aa(lp49
I00
aI00
aI01
aI00
aI00
aI01
aI01
aI00
aI00
aI00
aI01
aI00
aI01
aI00
aI00
aI00
aI00
aI00
aa(lp50
I00
aI00
aI00
aI00
aI00
aI00
aI00
aI00
aI00
aI00
aI00
aI00
aI00
aI00
aI00
aI00
aI00
aI00
aa(lp51
I00
aI00
aI00
aI00
aI00
aI00
aI00
aI00
aI00
aI00
aI00
aI00
aI00
aI00
aI00
aI00
aI00
aI00
aa(lp52
I00
aI00
aI00
aI00
aI00
aI00
aI00
aI00
aI00
aI00
aI00
aI00
aI00
aI00
aI00
aI00
aI00
aI00
aasS'height'
p53
I18
sbsS'agentPositions'
p54
(lp55
(I00
(I1
I2
tp56
tp57
a(I00
(I32
I15
tp58
tp59
a(I00
(I1
I1
tp60
tp61
a(I00
(I32
I16
tp62
tp63
asg53
I18
sg16
I34
sS'walls'
p64
(igame
Grid
p65
(dp66
g15
I30
sg16
I34
sg17
(lp67
(lp68
I01
aI01
aI01
aI01
aI01
aI01
aI01
aI01
aI01
aI01
aI01
aI01
aI01
aI01
aI01
aI01
aI01
aI01
aa(lp69
I01
aI00
aI00
aI00
aI00
aI00
aI00
aI00
aI00
aI00
aI00
aI00
aI00
aI00
aI00
aI00
aI00
aI01
aa(lp70
I01
aI01
aI01
aI01
aI01
aI01
aI01
aI01
aI01
aI01
aI01
aI01
aI01
aI01
aI01
aI01
aI00
aI01
aa(lp71
I01
aI00
aI00
aI01
aI00
aI00
aI00
aI00
aI00
aI00
aI00
aI00
aI00
aI01
aI00
aI00
aI00
aI01
aa(lp72
I01
aI01
aI00
aI01
aI01
aI01
aI01
aI01
aI00
aI01
aI01
aI01
aI01
aI01
aI00
aI01
aI00
aI01
aa(lp73
I01
aI00
aI00
aI00
aI00
aI00
aI00
aI00
aI00
aI00
aI00
aI00
aI00
aI01
aI00
aI01
aI00
aI01
aa(lp74
I01
aI01
aI01
aI01
aI01
aI00
aI01
aI01
aI01
aI01
aI01
aI01
aI00
aI00
aI00
aI01
aI00
aI01
aa(lp75
I01
aI00
aI00
aI00
aI00
aI00
aI00
aI00
aI00
aI00
aI00
aI01
aI00
aI01
aI00
aI01
aI00
aI01
aa(lp76
I01
aI01
aI00
aI01
aI01
aI01
aI01
aI01
aI01
aI01
aI00
aI00
aI00
aI01
aI00
aI00
aI00
aI01
aa(lp77
I01
aI00
aI00
aI00
aI00
aI00
aI00
aI00
aI00
aI00
aI00
aI01
aI00
aI01
aI00
aI01
aI00
aI01
aa(lp78
I01
aI00
aI01
aI01
aI01
aI01
aI01
aI00
aI01
aI01
aI01
aI01
aI00
aI01
aI01
aI01
aI01
aI01
aa(lp79
I01
aI00
aI00
aI00
aI00
aI00
aI00
aI00
aI00
aI00
aI00
aI00
aI00
aI00
aI01
aI00
aI00
aI01
aa(lp80
I01
aI01
aI01
aI01
aI01
aI01
aI01
aI00
aI01
aI01
aI01
aI01
aI01
aI01
aI01
aI00
aI00
aI01
aa(lp81
I01
aI00
aI00
aI00
aI00
aI00
aI00
aI00
aI00
aI00
aI00
aI00
aI00
aI00
aI01
aI01
aI00
aI01
aa(lp82
I01
aI01
aI00
aI01
aI01
aI01
aI01
aI01
aI01
aI00
aI01
aI01
aI01
aI01
aI01
aI00
aI00
aI01
aa(lp83
I01
aI00
aI00
aI01
aI00
aI00
aI01
aI00
aI01
aI00
aI00
aI01
aI00
aI00
aI01
aI00
aI01
aI01
aa(lp84
I01
aI00
aI00
aI00
aI00
aI00
aI01
aI00
aI00
aI00
aI00
aI00
aI00
aI00
aI00
aI00
aI00
aI01
aa(lp85
I01
aI00
aI00
aI00
aI00
aI00
aI00
aI00
aI00
aI00
aI00
aI01
aI00
aI00
aI00
aI00
aI00
aI01
aa(lp86
I01
aI01
aI00
aI01
aI00
aI00
aI01
aI00
aI00
aI01
aI00
aI01
aI00
aI00
aI01
aI00
aI00
aI01
aa(lp87
I01
aI00
aI00
aI01
aI01
aI01
aI01
aI01
aI00
aI01
aI01
aI01
aI01
aI01
aI01
aI00
aI01
aI01
aa(lp88
I01
aI00
aI01
aI01
aI00
aI00
aI00
aI00
aI00
aI00
aI00
aI00
aI00
aI00
aI00
aI00
aI00
aI01
aa(lp89
I01
aI00
aI00
aI01
aI01
aI01
aI01
aI01
aI01
aI01
aI00
aI01
aI01
aI01
aI01
aI01
aI01
aI01
aa(lp90
I01
aI00
aI00
aI01
aI00
aI00
aI00
aI00
aI00
aI00
aI00
aI00
aI00
aI00
aI00
aI00
aI00
aI01
aa(lp91
I01
aI01
aI01
aI01
aI01
aI00
aI01
aI01
aI01
aI01
aI00
aI01
aI01
aI01
aI01
aI01
aI00
aI01
aa(lp92
I01
aI00
aI01
aI00
aI01
aI00
aI01
aI00
aI00
aI00
aI00
aI00
aI00
aI00
aI00
aI00
aI00
aI01
aa(lp93
I01
aI00
aI00
aI00
aI01
aI00
aI00
aI00
aI01
aI01
aI01
aI01
aI01
aI01
aI01
aI00
aI01
aI01
aa(lp94
I01
aI00
aI01
aI00
aI01
aI00
aI01
aI00
aI00
aI00
aI00
aI00
aI00
aI00
aI00
aI00
aI00
aI01
aa(lp95
I01
aI00
aI01
aI00
aI00
aI00
aI01
aI01
aI01
aI01
aI01
aI01
aI00
aI01
aI01
aI01
aI01
aI01
aa(lp96
I01
aI00
aI01
aI00
aI01
aI00
aI00
aI00
aI00
aI00
aI00
aI00
aI00
aI00
aI00
aI00
aI00
aI01
aa(lp97
I01
aI00
aI01
aI00
aI01
aI01
aI01
aI01
aI01
aI00
aI01
aI01
aI01
aI01
aI01
aI00
aI01
aI01
aa(lp98
I01
aI00
aI00
aI00
aI01
aI00
aI00
aI00
aI00
aI00
aI00
aI00
aI00
aI00
aI01
aI00
aI00
aI01
aa(lp99
I01
aI00
aI01
aI01
aI01
aI01
aI01
aI01
aI01
aI01
aI01
aI01
aI01
aI01
aI01
aI01
aI01
aI01
aa(lp100
I01
aI00
aI00
aI00
aI00
aI00
aI00
aI00
aI00
aI00
aI00
aI00
aI00
aI00
aI00
aI00
aI00
aI01
aa(lp101
I01
aI01
aI01
aI01
aI01
aI01
aI01
aI01
aI01
aI01
aI01
aI01
aI01
aI01
aI01
aI01
aI01
aI01
aasg53
I18
sbsS'totalFood'
p102
I60
sS'layoutText'
p103
(lp104
S'%%%%%%%%%%%%%%%%%%%%%%%%%%%%%%%%%%'
p105
aS'%      ...%    %   %.%  .%.% % %4%'
p106
aS'% %.%%%% %%..%       % % o %   %2%'
p107
aS'% %      .%%%%%%  %%.% % %.% %%% %'
p108
aS'% %%%% %%%%.%.%    % % % %.% % % %'
p109
aS'% %.% .     %.%    % %.% % . %.% %'
p110
aS'% %.% %% %% %.%% %%% %o%.% % % % %'
p111
aS'% % %.%  .% % %   .%     % % %.% %'
p112
aS'% % % % % % %     %% %.% % % . % %'
p113
aS'% % . % % %.% %%     % % % % % % %'
p114
aS'% %.% % %     %.   % % %.  %.% % %'
p115
aS'% % % % %.%o% %%% %%.% %% %% %.% %'
p116
aS'% %.% . % %.% %    %.%     . %.% %'
p117
aS'% % % %.% % % %    %.%.%%%% %%%% %'
p118
aS'% %%% %.% % %.%%  %%%%%%.      % %'
p119
aS'%1%   % o % %       %..%% %%%%.% %'
p120
aS'%3% % %.%.  %.%   %    %...      %'
p121
aS'%%%%%%%%%%%%%%%%%%%%%%%%%%%%%%%%%%'
p122
asbsS'blueTeamName'
p123
S'Blue'
p124
sS'actions'
p125
(lp126
(I1
S'South'
p127
tp128
a(I2
S'Stop'
p129
tp130
a(I3
g127
tp131
a(I0
g129
tp132
a(I1
g127
tp133
a(I2
S'North'
p134
tp135
a(I3
g127
tp136
a(I0
g129
tp137
a(I1
g127
tp138
a(I2
g129
tp139
a(I3
g127
tp140
a(I0
g129
tp141
a(I1
g127
tp142
a(I2
g129
tp143
a(I3
g127
tp144
a(I0
g127
tp145
a(I1
g127
tp146
a(I2
g129
tp147
a(I3
g127
tp148
a(I0
g129
tp149
a(I1
g127
tp150
a(I2
g127
tp151
a(I3
g127
tp152
a(I0
g134
tp153
a(I1
g127
tp154
a(I2
g134
tp155
a(I3
g127
tp156
a(I0
g129
tp157
a(I1
g127
tp158
a(I2
g127
tp159
a(I3
g127
tp160
a(I0
g127
tp161
a(I1
g127
tp162
a(I2
g134
tp163
a(I3
g127
tp164
a(I0
g129
tp165
a(I1
g127
tp166
a(I2
g129
tp167
a(I3
g127
tp168
a(I0
g134
tp169
a(I1
g127
tp170
a(I2
g127
tp171
a(I3
g127
tp172
a(I0
g127
tp173
a(I1
g127
tp174
a(I2
g134
tp175
a(I3
g127
tp176
a(I0
g129
tp177
a(I1
g127
tp178
a(I2
g129
tp179
a(I3
g127
tp180
a(I0
g134
tp181
a(I1
g127
tp182
a(I2
g127
tp183
a(I3
g127
tp184
a(I0
g127
tp185
a(I1
S'West'
p186
tp187
a(I2
g129
tp188
a(I3
g127
tp189
a(I0
g134
tp190
a(I1
g186
tp191
a(I2
g134
tp192
a(I3
g186
tp193
a(I0
g129
tp194
a(I1
g134
tp195
a(I2
g129
tp196
a(I3
g186
tp197
a(I0
g134
tp198
a(I1
g134
tp199
a(I2
g134
tp200
a(I3
g134
tp201
a(I0
g129
tp202
a(I1
g186
tp203
a(I2
g127
tp204
a(I3
g134
tp205
a(I0
g134
tp206
a(I1
g186
tp207
a(I2
g127
tp208
a(I3
g186
tp209
a(I0
g127
tp210
a(I1
g186
tp211
a(I2
g134
tp212
a(I3
g186
tp213
a(I0
g129
tp214
a(I1
g134
tp215
a(I2
g134
tp216
a(I3
g186
tp217
a(I0
g129
tp218
a(I1
g134
tp219
a(I2
g134
tp220
a(I3
g134
tp221
a(I0
g127
tp222
a(I1
g186
tp223
a(I2
g129
tp224
a(I3
g134
tp225
a(I0
g134
tp226
a(I1
g186
tp227
a(I2
g129
tp228
a(I3
g186
tp229
a(I0
g134
tp230
a(I1
g186
tp231
a(I2
g134
tp232
a(I3
g186
tp233
a(I0
g127
tp234
a(I1
g186
tp235
a(I2
g127
tp236
a(I3
g186
tp237
a(I0
g129
tp238
a(I1
g186
tp239
a(I2
g127
tp240
a(I3
g186
tp241
a(I0
g134
tp242
a(I1
g134
tp243
a(I2
g127
tp244
a(I3
g186
tp245
a(I0
g129
tp246
a(I1
g134
tp247
a(I2
g127
tp248
a(I3
g134
tp249
a(I0
g127
tp250
a(I1
g134
tp251
a(I2
g129
tp252
a(I3
g134
tp253
a(I0
g129
tp254
a(I1
g134
tp255
a(I2
g134
tp256
a(I3
g134
tp257
a(I0
g127
tp258
a(I1
g134
tp259
a(I2
g134
tp260
a(I3
g134
tp261
a(I0
g134
tp262
a(I1
g186
tp263
a(I2
g127
tp264
a(I3
g134
tp265
a(I0
g129
tp266
a(I1
g186
tp267
a(I2
g134
tp268
a(I3
g186
tp269
a(I0
g134
tp270
a(I1
g134
tp271
a(I2
g127
tp272
a(I3
g186
tp273
a(I0
g134
tp274
a(I1
g134
tp275
a(I2
g127
tp276
a(I3
g134
tp277
a(I0
g127
tp278
a(I1
g134
tp279
a(I2
g134
tp280
a(I3
g134
tp281
a(I0
g129
tp282
a(I1
g134
tp283
a(I2
g134
tp284
a(I3
g134
tp285
a(I0
g134
tp286
a(I1
g134
tp287
a(I2
g129
tp288
a(I3
g134
tp289
a(I0
g129
tp290
a(I1
g186
tp291
a(I2
g127
tp292
a(I3
g134
tp293
a(I0
g127
tp294
a(I1
g186
tp295
a(I2
g134
tp296
a(I3
g186
tp297
a(I0
g129
tp298
a(I1
g186
tp299
a(I2
g134
tp300
a(I3
g186
tp301
a(I0
g134
tp302
a(I1
g186
tp303
a(I2
g127
tp304
a(I3
g186
tp305
a(I0
g129
tp306
a(I1
g186
tp307
a(I2
g134
tp308
a(I3
g186
tp309
a(I0
g129
tp310
a(I1
g186
tp311
a(I2
g134
tp312
a(I3
g186
tp313
a(I0
g134
tp314
a(I1
g134
tp315
a(I2
g129
tp316
a(I3
g186
tp317
a(I0
g134
tp318
a(I1
g186
tp319
a(I2
g127
tp320
a(I3
g134
tp321
a(I0
g129
tp322
a(I1
g186
tp323
a(I2
g134
tp324
a(I3
g186
tp325
a(I0
g129
tp326
a(I1
g127
tp327
a(I2
g127
tp328
a(I3
g186
tp329
a(I0
g127
tp330
a(I1
g186
tp331
a(I2
g129
tp332
a(I3
S'East'
p333
tp334
a(I0
g134
tp335
a(I1
g134
tp336
a(I2
g127
tp337
a(I3
g333
tp338
a(I0
g134
tp339
a(I1
g333
tp340
a(I2
g127
tp341
a(I3
g127
tp342
a(I0
g134
tp343
a(I1
g333
tp344
a(I2
g129
tp345
a(I3
g333
tp346
a(I0
g127
tp347
a(I1
g333
tp348
a(I2
g134
tp349
a(I3
g333
tp350
a(I0
g127
tp351
a(I1
g127
tp352
a(I2
g134
tp353
a(I3
g127
tp354
a(I0
g127
tp355
a(I1
g333
tp356
a(I2
g134
tp357
a(I3
g127
tp358
a(I0
g134
tp359
a(I1
g333
tp360
a(I2
g129
tp361
a(I3
g127
tp362
a(I0
g129
tp363
a(I1
g333
tp364
a(I2
g129
tp365
a(I3
g127
tp366
a(I0
g129
tp367
a(I1
g186
tp368
a(I2
g129
tp369
a(I3
g127
tp370
a(I0
g129
tp371
a(I1
g127
tp372
a(I2
g127
tp373
a(I3
g186
tp374
a(I0
g134
tp375
a(I1
g127
tp376
a(I2
g127
tp377
a(I3
g127
tp378
a(I0
g127
tp379
a(I1
g127
tp380
a(I2
g127
tp381
a(I3
g186
tp382
a(I0
g127
tp383
a(I1
g127
tp384
a(I2
g127
tp385
a(I3
g186
tp386
a(I0
g129
tp387
a(I1
g127
tp388
a(I2
g129
tp389
a(I3
g127
tp390
a(I0
g127
tp391
a(I1
g127
tp392
a(I2
g134
tp393
a(I3
g127
tp394
a(I0
g134
tp395
a(I1
g127
tp396
a(I2
g127
tp397
a(I3
g186
tp398
a(I0
g129
tp399
a(I1
g127
tp400
a(I2
g129
tp401
a(I3
g186
tp402
a(I0
g129
tp403
a(I1
g186
tp404
a(I2
g134
tp405
a(I3
g127
tp406
a(I0
g134
tp407
a(I1
g333
tp408
a(I2
g134
tp409
a(I3
g127
tp410
a(I0
g129
tp411
a(I1
g134
tp412
a(I2
g129
tp413
a(I3
g134
tp414
a(I0
g134
tp415
a(I1
g333
tp416
a(I2
g127
tp417
a(I3
g134
tp418
a(I0
g134
tp419
a(I1
g186
tp420
a(I2
g134
tp421
a(I3
g134
tp422
a(I0
g134
tp423
a(I1
g134
tp424
a(I2
g127
tp425
a(I3
g127
tp426
a(I0
g134
tp427
a(I1
g186
tp428
a(I2
g127
tp429
a(I3
g186
tp430
a(I0
g134
tp431
a(I1
g186
tp432
a(I2
g129
tp433
a(I3
g186
tp434
a(I0
g127
tp435
a(I1
g186
tp436
a(I2
g134
tp437
a(I3
g127
tp438
a(I0
g134
tp439
a(I1
g134
tp440
a(I2
g129
tp441
a(I3
g134
tp442
a(I0
g134
tp443
a(I1
g134
tp444
a(I2
g134
tp445
a(I3
g134
tp446
a(I0
g134
tp447
a(I1
g134
tp448
a(I2
g134
tp449
a(I3
g134
tp450
a(I0
g134
tp451
a(I1
g134
tp452
a(I2
g134
tp453
a(I3
g134
tp454
a(I0
g129
tp455
a(I1
g127
tp456
a(I2
g127
tp457
a(I3
g186
tp458
a(I0
g129
tp459
a(I1
g127
tp460
a(I2
g134
tp461
a(I3
g134
tp462
a(I0
g129
tp463
a(I1
g127
tp464
a(I2
g127
tp465
a(I3
g134
tp466
a(I0
g127
tp467
a(I1
g127
tp468
a(I2
g127
tp469
a(I3
g186
tp470
a(I0
g134
tp471
a(I1
g333
tp472
a(I2
g129
tp473
a(I3
g186
tp474
a(I0
g127
tp475
a(I1
g333
tp476
a(I2
g134
tp477
a(I3
g186
tp478
a(I0
g129
tp479
a(I1
g333
tp480
a(I2
g134
tp481
a(I3
g127
tp482
a(I0
g134
tp483
a(I1
g333
tp484
a(I2
g129
tp485
a(I3
g127
tp486
a(I0
g127
tp487
a(I1
g186
tp488
a(I2
g129
tp489
a(I3
g127
tp490
a(I0
g129
tp491
a(I1
g186
tp492
a(I2
g134
tp493
a(I3
g127
tp494
a(I0
g129
tp495
a(I1
g186
tp496
a(I2
g129
tp497
a(I3
g186
tp498
a(I0
g127
tp499
a(I1
g186
tp500
a(I2
g134
tp501
a(I3
g186
tp502
a(I0
g127
tp503
a(I1
g127
tp504
a(I2
g134
tp505
a(I3
g127
tp506
a(I0
g134
tp507
a(I1
g127
tp508
a(I2
g134
tp509
a(I3
g127
tp510
a(I0
g129
tp511
a(I1
g127
tp512
a(I2
g129
tp513
a(I3
g127
tp514
a(I0
g129
tp515
a(I1
g127
tp516
a(I2
g134
tp517
a(I3
g134
tp518
a(I0
g129
tp519
a(I1
g127
tp520
a(I2
g129
tp521
a(I3
g134
tp522
a(I0
g127
tp523
a(I1
g127
tp524
a(I2
g127
tp525
a(I3
g134
tp526
a(I0
g134
tp527
a(I1
g127
tp528
a(I2
g134
tp529
a(I3
g134
tp530
a(I0
g129
tp531
a(I1
g127
tp532
a(I2
g129
tp533
a(I3
g134
tp534
a(I0
g127
tp535
a(I1
g134
tp536
a(I2
g134
tp537
a(I3
g134
tp538
a(I0
g127
tp539
a(I1
g333
tp540
a(I2
g129
tp541
a(I3
g134
tp542
a(I0
g129
tp543
a(I1
g333
tp544
a(I2
g127
tp545
a(I3
g127
tp546
a(I0
g129
tp547
a(I1
g333
tp548
a(I2
g127
tp549
a(I3
g127
tp550
a(I0
g134
tp551
a(I1
g333
tp552
a(I2
g127
tp553
a(I3
g127
tp554
a(I0
g127
tp555
a(I1
g186
tp556
a(I2
g129
tp557
a(I3
g127
tp558
a(I0
g134
tp559
a(I1
g186
tp560
a(I2
g129
tp561
a(I3
g333
tp562
a(I0
g134
tp563
a(I1
g186
tp564
a(I2
g134
tp565
a(I3
g333
tp566
a(I0
g134
tp567
a(I1
g186
tp568
a(I2
g134
tp569
a(I3
g127
tp570
a(I0
g134
tp571
a(I1
g134
tp572
a(I2
g134
tp573
a(I3
g127
tp574
a(I0
g127
tp575
a(I1
g134
tp576
a(I2
g134
tp577
a(I3
g127
tp578
a(I0
g129
tp579
a(I1
g134
tp580
a(I2
g129
tp581
a(I3
g333
tp582
a(I0
g134
tp583
a(I1
g134
tp584
a(I2
g127
tp585
a(I3
g333
tp586
a(I0
g134
tp587
a(I1
g134
tp588
a(I2
g127
tp589
a(I3
g127
tp590
a(I0
g333
tp591
a(I1
g186
tp592
a(I2
g129
tp593
a(I3
g127
tp594
a(I0
g186
tp595
a(I1
g186
tp596
a(I2
g127
tp597
a(I3
g127
tp598
a(I0
g333
tp599
a(I1
g186
tp600
a(I2
g134
tp601
a(I3
g333
tp602
a(I0
g129
tp603
a(I1
g186
tp604
a(I2
g134
tp605
a(I3
g333
tp606
a(I0
g186
tp607
a(I1
g127
tp608
a(I2
g134
tp609
a(I3
g127
tp610
a(I0
g129
tp611
a(I1
g127
tp612
a(I2
g129
tp613
a(I3
g134
tp614
a(I0
g129
tp615
a(I1
g127
tp616
a(I2
g127
tp617
a(I3
g186
tp618
a(I0
g333
tp619
a(I1
g127
tp620
a(I2
g134
tp621
a(I3
g186
tp622
a(I0
g186
tp623
a(I1
g127
tp624
a(I2
g129
tp625
a(I3
g127
tp626
a(I0
g333
tp627
a(I1
g134
tp628
a(I2
g127
tp629
a(I3
g134
tp630
a(I0
g129
tp631
a(I1
g134
tp632
a(I2
g134
tp633
a(I3
g333
tp634
a(I0
g129
tp635
a(I1
g134
tp636
a(I2
g127
tp637
a(I3
g333
tp638
a(I0
g129
tp639
a(I1
g134
tp640
a(I2
g134
tp641
a(I3
g134
tp642
a(I0
g333
tp643
a(I1
g134
tp644
a(I2
g127
tp645
a(I3
g134
tp646
a(I0
g186
tp647
a(I1
g333
tp648
a(I2
g127
tp649
a(I3
g134
tp650
a(I0
g129
tp651
a(I1
g333
tp652
a(I2
g134
tp653
a(I3
g134
tp654
a(I0
g186
tp655
a(I1
g134
tp656
a(I2
g127
tp657
a(I3
g134
tp658
a(I0
g129
tp659
a(I1
g134
tp660
a(I2
g127
tp661
a(I3
g333
tp662
a(I0
g333
tp663
a(I1
g134
tp664
a(I2
g127
tp665
a(I3
g333
tp666
a(I0
g129
tp667
a(I1
g134
tp668
a(I2
g134
tp669
a(I3
g333
tp670
a(I0
g333
tp671
a(I1
g134
tp672
a(I2
g127
tp673
a(I3
g333
tp674
a(I0
g186
tp675
a(I1
g134
tp676
a(I2
g127
tp677
a(I3
g134
tp678
a(I0
g129
tp679
a(I1
g127
tp680
a(I2
g134
tp681
a(I3
g134
tp682
a(I0
g333
tp683
a(I1
g186
tp684
a(I2
g134
tp685
a(I3
g333
tp686
a(I0
g186
tp687
a(I1
g186
tp688
a(I2
g127
tp689
a(I3
g333
tp690
a(I0
g186
tp691
a(I1
g186
tp692
a(I2
g129
tp693
a(I3
g333
tp694
a(I0
g127
tp695
a(I1
g186
tp696
a(I2
g129
tp697
a(I3
g333
tp698
a(I0
g127
tp699
a(I1
g186
tp700
a(I2
g129
tp701
a(I3
g186
tp702
a(I0
g129
tp703
a(I1
g134
tp704
a(I2
g134
tp705
a(I3
g186
tp706
a(I0
g134
tp707
a(I1
g134
tp708
a(I2
g134
tp709
a(I3
g186
tp710
a(I0
g134
tp711
a(I1
g186
tp712
a(I2
g129
tp713
a(I3
g186
tp714
a(I0
g127
tp715
a(I1
g186
tp716
a(I2
g134
tp717
a(I3
g127
tp718
a(I0
g134
tp719
a(I1
g186
tp720
a(I2
g129
tp721
a(I3
g127
tp722
a(I0
g333
tp723
a(I1
g134
tp724
a(I2
g134
tp725
a(I3
g186
tp726
a(I0
g186
tp727
a(I1
g134
tp728
a(I2
g134
tp729
a(I3
g186
tp730
a(I0
g129
tp731
a(I1
g333
tp732
a(I2
g127
tp733
a(I3
g186
tp734
a(I0
g129
tp735
a(I1
g333
tp736
a(I2
g134
tp737
a(I3
g186
tp738
a(I0
g127
tp739
a(I1
g333
tp740
a(I2
g129
tp741
a(I3
g134
tp742
a(I0
g127
tp743
a(I1
g333
tp744
a(I2
g127
tp745
a(I3
g134
tp746
a(I0
g129
tp747
a(I1
g333
tp748
a(I2
g129
tp749
a(I3
g127
tp750
a(I0
g129
tp751
a(I1
g127
tp752
a(I2
g134
tp753
a(I3
g127
tp754
a(I0
g129
tp755
a(I1
g127
tp756
a(I2
g134
tp757
a(I3
g333
tp758
a(I0
g127
tp759
a(I1
g186
tp760
a(I2
g127
tp761
a(I3
g333
tp762
a(I0
g134
tp763
a(I1
g186
tp764
a(I2
g127
tp765
a(I3
g333
tp766
a(I0
g134
tp767
a(I1
g127
tp768
a(I2
g134
tp769
a(I3
g333
tp770
a(I0
g127
tp771
a(I1
g127
tp772
a(I2
g129
tp773
a(I3
g134
tp774
a(I0
g129
tp775
a(I1
g333
tp776
a(I2
g129
tp777
a(I3
g134
tp778
a(I0
g134
tp779
a(I1
g333
tp780
a(I2
g129
tp781
a(I3
g333
tp782
a(I0
g134
tp783
a(I1
g333
tp784
a(I2
g134
tp785
a(I3
g333
tp786
a(I0
g129
tp787
a(I1
g333
tp788
a(I2
g127
tp789
a(I3
g333
tp790
a(I0
g127
tp791
a(I1
g333
tp792
a(I2
g127
tp793
a(I3
g333
tp794
a(I0
g129
tp795
a(I1
g127
tp796
a(I2
g134
tp797
a(I3
g186
tp798
a(I0
g127
tp799
a(I1
g127
tp800
a(I2
g127
tp801
a(I3
g333
tp802
a(I0
g127
tp803
a(I1
g127
tp804
a(I2
g129
tp805
a(I3
g186
tp806
a(I0
g127
tp807
a(I1
g127
tp808
a(I2
g127
tp809
a(I3
g333
tp810
a(I0
g127
tp811
a(I1
g127
tp812
a(I2
g134
tp813
a(I3
g186
tp814
a(I0
g134
tp815
a(I1
g333
tp816
a(I2
g134
tp817
a(I3
g333
tp818
a(I0
g134
tp819
a(I1
g333
tp820
a(I2
g134
tp821
a(I3
g186
tp822
a(I0
g127
tp823
a(I1
g134
tp824
a(I2
g129
tp825
a(I3
g333
tp826
a(I0
g127
tp827
a(I1
g134
tp828
a(I2
g127
tp829
a(I3
g186
tp830
a(I0
g129
tp831
a(I1
g333
tp832
a(I2
g134
tp833
a(I3
g333
tp834
a(I0
g134
tp835
a(I1
g333
tp836
a(I2
g127
tp837
a(I3
g186
tp838
a(I0
g127
tp839
a(I1
g333
tp840
a(I2
g129
tp841
a(I3
g333
tp842
a(I0
g127
tp843
a(I1
g333
tp844
asS'length'
p845
I1200
sS'agents'
p846
(lp847
(igame
Agent
p848
(dp849
S'index'
p850
I0
sba(igame
Agent
p851
(dp852
g850
I0
sba(igame
Agent
p853
(dp854
g850
I0
sba(igame
Agent
p855
(dp856
g850
I0
sbasS'redTeamName'
p857
S'Red'
p858
s.