(dp1
S'layout'
p2
(ilayout
Layout
p3
(dp4
S'capsules'
p5
(lp6
(I26
I7
tp7
a(I10
I8
tp8
a(I23
I9
tp9
a(I7
I10
tp10
asS'numGhosts'
p11
I4
sS'food'
p12
(igame
Grid
p13
(dp14
S'CELLS_PER_INT'
p15
I30
sS'width'
p16
I34
sS'data'
p17
(lp18
(lp19
I00
aI00
aI00
aI00
aI00
aI00
aI00
aI00
aI00
aI00
aI00
aI00
aI00
aI00
aI00
aI00
aI00
aI00
aa(lp20
I00
aI00
aI00
aI00
aI00
aI00
aI00
aI00
aI00
aI00
aI00
aI00
aI00
aI00
aI00
aI00
aI00
aI00
aa(lp21
I00
aI00
aI00
aI00
aI00
aI00
aI00
aI00
aI00
aI00
aI00
aI00
aI00
aI00
aI00
aI00
aI00
aI00
aa(lp22
I00
aI00
aI00
aI00
aI00
aI00
aI00
aI00
aI00
aI00
aI00
aI00
aI00
aI00
aI00
aI00
aI00
aI00
aa(lp23
I00
aI00
aI00
aI00
aI00
aI00
aI00
aI00
aI00
aI00
aI00
aI00
aI00
aI00
aI00
aI00
aI00
aI00
aa(lp24
I00
aI00
aI00
aI00
aI00
aI00
aI01
aI00
aI00
aI01
aI00
aI00
aI01
aI00
aI00
aI01
aI01
aI00
aa(lp25
I00
aI00
aI00
aI00
aI00
aI00
aI00
aI00
aI00
aI00
aI00
aI00
aI00
aI00
aI00
aI00
aI00
aI00
aa(lp26
I00
aI01
aI00
aI00
aI00
aI00
aI00
aI00
aI00
aI00
aI00
aI01
aI00
aI00
aI01
aI00
aI01
aI00
aa(lp27
I00
aI00
aI00
aI00
aI00
aI00
aI01
aI00
aI00
aI00
aI00
aI00
aI00
aI00
aI00
aI00
aI00
aI00
aa(lp28
I00
aI01
aI00
aI01
aI00
aI00
aI00
aI00
aI00
aI00
aI00
aI00
aI00
aI00
aI00
aI00
aI01
aI00
aa(lp29
I00
aI00
aI00
aI00
aI01
aI00
aI01
aI00
aI00
aI00
aI01
aI00
aI00
aI00
aI00
aI00
aI00
aI00
aa(lp30
I00
aI01
aI00
aI01
aI00
aI00
aI00
aI01
aI01
aI00
aI00
aI00
aI00
aI00
aI00
aI00
aI01
aI00
aa(lp31
I00
aI00
aI00
aI00
aI00
aI00
aI00
aI00
aI00
aI00
aI00
aI00
aI00
aI00
aI00
aI00
aI00
aI00
aa(lp32
I00
aI01
aI00
aI00
aI00
aI00
aI00
aI01
aI00
aI00
aI01
aI00
aI00
aI00
aI01
aI01
aI01
aI00
aa(lp33
I00
aI00
aI00
aI00
aI00
aI01
aI00
aI01
aI00
aI00
aI00
aI00
aI01
aI00
aI00
aI00
aI00
aI00
aa(lp34
I00
aI00
aI00
aI00
aI00
aI00
aI00
aI00
aI00
aI00
aI00
aI00
aI00
aI00
aI00
aI00
aI00
aI00
aa(lp35
I00
aI00
aI00
aI00
aI00
aI00
aI00
aI00
aI00
aI00
aI00
aI00
aI00
aI00
aI00
aI00
aI00
aI00
aa(lp36
I00
aI00
aI00
aI00
aI00
aI00
aI00
aI00
aI00
aI00
aI00
aI00
aI00
aI00
aI00
aI00
aI00
aI00
aa(lp37
I00
aI00
aI00
aI00
aI00
aI00
aI00
aI00
aI00
aI00
aI00
aI00
aI00
aI00
aI00
aI00
aI00
aI00
aa(lp38
I00
aI00
aI00
aI00
aI00
aI01
aI00
aI00
aI00
aI00
aI01
aI00
aI01
aI00
aI00
aI00
aI00
aI00
aa(lp39
I00
aI01
aI01
aI01
aI00
aI00
aI00
aI01
aI00
aI00
aI01
aI00
aI00
aI00
aI00
aI00
aI01
aI00
aa(lp40
I00
aI00
aI00
aI00
aI00
aI00
aI00
aI00
aI00
aI00
aI00
aI00
aI00
aI00
aI00
aI00
aI00
aI00
aa(lp41
I00
aI01
aI00
aI00
aI00
aI00
aI00
aI00
aI00
aI01
aI01
aI00
aI00
aI00
aI01
aI00
aI01
aI00
aa(lp42
I00
aI00
aI00
aI00
aI00
aI00
aI00
aI01
aI00
aI00
aI00
aI01
aI00
aI01
aI00
aI00
aI00
aI00
aa(lp43
I00
aI01
aI00
aI00
aI00
aI00
aI00
aI00
aI00
aI00
aI00
aI00
aI00
aI00
aI01
aI00
aI01
aI00
aa(lp44
I00
aI00
aI00
aI00
aI00
aI00
aI00
aI00
aI00
aI00
aI00
aI01
aI00
aI00
aI00
aI00
aI00
aI00
aa(lp45
I00
aI01
aI00
aI01
aI00
aI00
aI01
aI00
aI00
aI00
aI00
aI00
aI00
aI00
aI00
aI00
aI01
aI00
aa(lp46
I00
aI00
aI00
aI00
aI00
aI00
aI00
aI00
aI00
aI00
aI00
aI00
aI00
aI00
aI00
aI00
aI00
aI00
aa(lp47
I00
aI01
aI01
aI00
aI00
aI01
aI00
aI00
aI01
aI00
aI00
aI01
aI00
aI00
aI00
aI00
aI00
aI00
aa(lp48
I00
aI00
aI00
aI00
aI00
aI00
aI00
aI00
aI00
aI00
aI00
aI00
aI00
aI00
aI00
aI00
aI00
aI00
aa(lp49
I00
aI00
aI00
aI00
aI00
aI00
aI00
aI00
aI00
aI00
aI00
aI00
aI00
aI00
aI00
aI00
aI00
aI00
aa(lp50
I00
aI00
aI00
aI00
aI00
aI00
aI00
aI00
aI00
aI00
aI00
aI00
aI00
aI00
aI00
aI00
aI00
aI00
aa(lp51
I00
aI00
aI00
aI00
aI00
aI00
aI00
aI00
aI00
aI00
aI00
aI00
aI00
aI00
aI00
aI00
aI00
aI00
aa(lp52
I00
aI00
aI00
aI00
aI00
aI00
aI00
aI00
aI00
aI00
aI00
aI00
aI00
aI00
aI00
aI00
aI00
aI00
aasS'height'
p53
I18
sbsS'agentPositions'
p54
(lp55
(I00
(I1
I2
tp56
tp57
a(I00
(I32
I15
tp58
tp59
a(I00
(I1
I1
tp60
tp61
a(I00
(I32
I16
tp62
tp63
asg53
I18
sg16
I34
sS'walls'
p64
(igame
Grid
p65
(dp66
g15
I30
sg16
I34
sg17
(lp67
(lp68
I01
aI01
aI01
aI01
aI01
aI01
aI01
aI01
aI01
aI01
aI01
aI01
aI01
aI01
aI01
aI01
aI01
aI01
aa(lp69
I01
aI00
aI00
aI00
aI00
aI00
aI00
aI00
aI00
aI00
aI00
aI00
aI00
aI00
aI00
aI00
aI00
aI01
aa(lp70
I01
aI01
aI01
aI01
aI01
aI01
aI01
aI01
aI01
aI01
aI01
aI01
aI01
aI01
aI01
aI01
aI00
aI01
aa(lp71
I01
aI00
aI00
aI00
aI00
aI00
aI00
aI00
aI00
aI00
aI00
aI00
aI00
aI00
aI00
aI00
aI00
aI01
aa(lp72
I01
aI00
aI01
aI01
aI01
aI01
aI01
aI01
aI01
aI01
aI01
aI01
aI01
aI01
aI01
aI01
aI01
aI01
aa(lp73
I01
aI00
aI00
aI00
aI00
aI00
aI00
aI00
aI00
aI00
aI00
aI00
aI00
aI00
aI00
aI00
aI00
aI01
aa(lp74
I01
aI01
aI00
aI01
aI01
aI00
aI00
aI00
aI01
aI01
aI01
aI01
aI01
aI01
aI00
aI01
aI01
aI01
aa(lp75
I01
aI00
aI00
aI00
aI00
aI00
aI00
aI00
aI00
aI00
aI00
aI00
aI00
aI00
aI00
aI00
aI00
aI01
aa(lp76
I01
aI01
aI01
aI00
aI01
aI01
aI00
aI01
aI01
aI01
aI01
aI01
aI01
aI01
aI01
aI00
aI01
aI01
aa(lp77
I01
aI00
aI00
aI00
aI01
aI00
aI00
aI00
aI00
aI01
aI00
aI00
aI00
aI00
aI00
aI00
aI00
aI01
aa(lp78
I01
aI01
aI00
aI00
aI00
aI00
aI00
aI00
aI00
aI00
aI00
aI01
aI01
aI01
aI01
aI00
aI01
aI01
aa(lp79
I01
aI00
aI00
aI00
aI01
aI00
aI01
aI00
aI00
aI01
aI00
aI00
aI00
aI00
aI00
aI00
aI00
aI01
aa(lp80
I01
aI01
aI01
aI01
aI01
aI00
aI01
aI01
aI00
aI01
aI01
aI01
aI01
aI01
aI01
aI01
aI01
aI01
aa(lp81
I01
aI00
aI00
aI01
aI00
aI00
aI01
aI00
aI00
aI00
aI00
aI00
aI00
aI00
aI00
aI00
aI00
aI01
aa(lp82
I01
aI00
aI00
aI00
aI00
aI00
aI01
aI00
aI01
aI01
aI01
aI01
aI00
aI01
aI01
aI01
aI01
aI01
aa(lp83
I01
aI00
aI00
aI01
aI00
aI00
aI00
aI00
aI00
aI00
aI00
aI00
aI00
aI00
aI00
aI00
aI00
aI01
aa(lp84
I01
aI00
aI00
aI01
aI00
aI00
aI01
aI00
aI01
aI00
aI00
aI01
aI00
aI01
aI00
aI01
aI00
aI01
aa(lp85
I01
aI00
aI01
aI00
aI01
aI00
aI01
aI00
aI00
aI01
aI00
aI01
aI00
aI00
aI01
aI00
aI00
aI01
aa(lp86
I01
aI00
aI00
aI00
aI00
aI00
aI00
aI00
aI00
aI00
aI00
aI00
aI00
aI00
aI01
aI00
aI00
aI01
aa(lp87
I01
aI01
aI01
aI01
aI01
aI00
aI01
aI01
aI01
aI01
aI00
aI01
aI00
aI00
aI00
aI00
aI00
aI01
aa(lp88
I01
aI00
aI00
aI00
aI00
aI00
aI00
aI00
aI00
aI00
aI00
aI01
aI00
aI00
aI01
aI00
aI00
aI01
aa(lp89
I01
aI01
aI01
aI01
aI01
aI01
aI01
aI01
aI01
aI00
aI01
aI01
aI00
aI01
aI01
aI01
aI01
aI01
aa(lp90
I01
aI00
aI00
aI00
aI00
aI00
aI00
aI00
aI01
aI00
aI00
aI01
aI00
aI01
aI00
aI00
aI00
aI01
aa(lp91
I01
aI01
aI00
aI01
aI01
aI01
aI01
aI00
aI00
aI00
aI00
aI00
aI00
aI00
aI00
aI00
aI01
aI01
aa(lp92
I01
aI00
aI00
aI00
aI00
aI00
aI00
aI00
aI01
aI00
aI00
aI00
aI00
aI01
aI00
aI00
aI00
aI01
aa(lp93
I01
aI01
aI00
aI01
aI01
aI01
aI01
aI01
aI01
aI01
aI01
aI00
aI01
aI01
aI00
aI01
aI01
aI01
aa(lp94
I01
aI00
aI00
aI00
aI00
aI00
aI00
aI00
aI00
aI00
aI00
aI00
aI00
aI00
aI00
aI00
aI00
aI01
aa(lp95
I01
aI01
aI01
aI00
aI01
aI01
aI01
aI01
aI01
aI01
aI00
aI00
aI00
aI01
aI01
aI00
aI01
aI01
aa(lp96
I01
aI00
aI00
aI00
aI00
aI00
aI00
aI00
aI00
aI00
aI00
aI00
aI00
aI00
aI00
aI00
aI00
aI01
aa(lp97
I01
aI01
aI01
aI01
aI01
aI01
aI01
aI01
aI01
aI01
aI01
aI01
aI01
aI01
aI01
aI01
aI00
aI01
aa(lp98
I01
aI00
aI00
aI00
aI00
aI00
aI00
aI00
aI00
aI00
aI00
aI00
aI00
aI00
aI00
aI00
aI00
aI01
aa(lp99
I01
aI00
aI01
aI01
aI01
aI01
aI01
aI01
aI01
aI01
aI01
aI01
aI01
aI01
aI01
aI01
aI01
aI01
aa(lp100
I01
aI00
aI00
aI00
aI00
aI00
aI00
aI00
aI00
aI00
aI00
aI00
aI00
aI00
aI00
aI00
aI00
aI01
aa(lp101
I01
aI01
aI01
aI01
aI01
aI01
aI01
aI01
aI01
aI01
aI01
aI01
aI01
aI01
aI01
aI01
aI01
aI01
aasg53
I18
sbsS'totalFood'
p102
I60
sS'layoutText'
p103
(lp104
S'%%%%%%%%%%%%%%%%%%%%%%%%%%%%%%%%%%'
p105
aS'%   %.%.%.%.%.%     .%.%.%.%   %4%'
p106
aS'% % %.%     %.% %    %   %   % %2%'
p107
aS'% % %  .% % %.%  %% %%. .  % % % %'
p108
aS'% % % % % % % % %    %%.%% % % % %'
p109
aS'% % %.% % % % .    .     %   % % %'
p110
aS'% % % %.% % % % %% %%%%. .  .% % %'
p111
aS'% % % %o% . %.%    ..%.  %   % % %'
p112
aS'% % %.% %% %% %  % %  .o % % % % %'
p113
aS'% % % % % o.  % %  % %% %% %.% % %'
p114
aS'% % %   %  .%..    %.% . %o% % % %'
p115
aS'% % %.  . .%%%% %% % % % %.% % % %'
p116
aS'% % %   %     .    . % % % %.% % %'
p117
aS'% % % % %%.%%    % % % % % % % % %'
p118
aS'% % % %  . .%% %%  %.% % %.  % % %'
p119
aS'%1% %   %   %    % %.%     %.% % %'
p120
aS'%3%   %.%.%.%.     %.%.%.%.%.%   %'
p121
aS'%%%%%%%%%%%%%%%%%%%%%%%%%%%%%%%%%%'
p122
asbsS'blueTeamName'
p123
S'Blue'
p124
sS'actions'
p125
(lp126
(I0
S'South'
p127
tp128
a(I1
g127
tp129
a(I2
S'Stop'
p130
tp131
a(I3
g127
tp132
a(I0
g130
tp133
a(I1
g127
tp134
a(I2
S'North'
p135
tp136
a(I3
g127
tp137
a(I0
g130
tp138
a(I1
g127
tp139
a(I2
g135
tp140
a(I3
g127
tp141
a(I0
g135
tp142
a(I1
g127
tp143
a(I2
g127
tp144
a(I3
g127
tp145
a(I0
g130
tp146
a(I1
g127
tp147
a(I2
g127
tp148
a(I3
g127
tp149
a(I0
g135
tp150
a(I1
g127
tp151
a(I2
g130
tp152
a(I3
g127
tp153
a(I0
g127
tp154
a(I1
g127
tp155
a(I2
g130
tp156
a(I3
g127
tp157
a(I0
g135
tp158
a(I1
g127
tp159
a(I2
g130
tp160
a(I3
g127
tp161
a(I0
g130
tp162
a(I1
g127
tp163
a(I2
g135
tp164
a(I3
g127
tp165
a(I0
g130
tp166
a(I1
g127
tp167
a(I2
g135
tp168
a(I3
g127
tp169
a(I0
g127
tp170
a(I1
g127
tp171
a(I2
g135
tp172
a(I3
g127
tp173
a(I0
g130
tp174
a(I1
g127
tp175
a(I2
g127
tp176
a(I3
g127
tp177
a(I0
g135
tp178
a(I1
g127
tp179
a(I2
g127
tp180
a(I3
g127
tp181
a(I0
g135
tp182
a(I1
g127
tp183
a(I2
g127
tp184
a(I3
g127
tp185
a(I0
g135
tp186
a(I1
S'West'
p187
tp188
a(I2
g135
tp189
a(I3
g127
tp190
a(I0
g127
tp191
a(I1
g187
tp192
a(I2
g135
tp193
a(I3
g187
tp194
a(I0
g130
tp195
a(I1
g135
tp196
a(I2
g130
tp197
a(I3
g187
tp198
a(I0
g127
tp199
a(I1
g135
tp200
a(I2
g135
tp201
a(I3
g135
tp202
a(I0
g135
tp203
a(I1
g135
tp204
a(I2
g135
tp205
a(I3
g135
tp206
a(I0
g135
tp207
a(I1
g135
tp208
a(I2
g135
tp209
a(I3
g135
tp210
a(I0
g127
tp211
a(I1
g135
tp212
a(I2
g135
tp213
a(I3
g135
tp214
a(I0
g135
tp215
a(I1
g135
tp216
a(I2
g130
tp217
a(I3
g135
tp218
a(I0
g135
tp219
a(I1
g135
tp220
a(I2
g130
tp221
a(I3
g135
tp222
a(I0
g135
tp223
a(I1
g135
tp224
a(I2
g130
tp225
a(I3
g135
tp226
a(I0
g130
tp227
a(I1
g135
tp228
a(I2
g127
tp229
a(I3
g135
tp230
a(I0
g127
tp231
a(I1
g135
tp232
a(I2
g130
tp233
a(I3
g135
tp234
a(I0
g135
tp235
a(I1
g135
tp236
a(I2
g135
tp237
a(I3
g135
tp238
a(I0
g130
tp239
a(I1
g135
tp240
a(I2
g135
tp241
a(I3
g135
tp242
a(I0
g135
tp243
a(I1
g135
tp244
a(I2
g130
tp245
a(I3
g135
tp246
a(I0
g135
tp247
a(I1
g135
tp248
a(I2
g135
tp249
a(I3
g135
tp250
a(I0
g130
tp251
a(I1
g135
tp252
a(I2
g135
tp253
a(I3
g135
tp254
a(I0
g130
tp255
a(I1
g187
tp256
a(I2
g135
tp257
a(I3
g135
tp258
a(I0
g130
tp259
a(I1
g187
tp260
a(I2
g135
tp261
a(I3
g187
tp262
a(I0
g127
tp263
a(I1
g127
tp264
a(I2
g135
tp265
a(I3
g187
tp266
a(I0
g127
tp267
a(I1
g187
tp268
a(I2
g127
tp269
a(I3
g127
tp270
a(I0
g130
tp271
a(I1
g187
tp272
a(I2
g135
tp273
a(I3
g187
tp274
a(I0
g130
tp275
a(I1
g127
tp276
a(I2
g130
tp277
a(I3
g187
tp278
a(I0
g130
tp279
a(I1
g187
tp280
a(I2
g135
tp281
a(I3
g127
tp282
a(I0
g135
tp283
a(I1
g187
tp284
a(I2
g135
tp285
a(I3
g187
tp286
a(I0
g135
tp287
a(I1
g187
tp288
a(I2
g127
tp289
a(I3
g187
tp290
a(I0
g127
tp291
a(I1
g127
tp292
a(I2
g135
tp293
a(I3
g187
tp294
a(I0
g127
tp295
a(I1
g127
tp296
a(I2
g135
tp297
a(I3
g127
tp298
a(I0
g127
tp299
a(I1
g187
tp300
a(I2
S'East'
p301
tp302
a(I3
g127
tp303
a(I0
g135
tp304
a(I1
g187
tp305
a(I2
g130
tp306
a(I3
g187
tp307
a(I0
g127
tp308
a(I1
g187
tp309
a(I2
g301
tp310
a(I3
g187
tp311
a(I0
g130
tp312
a(I1
g187
tp313
a(I2
g187
tp314
a(I3
g187
tp315
a(I0
g127
tp316
a(I1
g187
tp317
a(I2
g130
tp318
a(I3
g187
tp319
a(I0
g135
tp320
a(I1
g187
tp321
a(I2
g301
tp322
a(I3
g187
tp323
a(I0
g135
tp324
a(I1
g187
tp325
a(I2
g187
tp326
a(I3
g187
tp327
a(I0
g127
tp328
a(I1
g187
tp329
a(I2
g301
tp330
a(I3
g187
tp331
a(I0
g135
tp332
a(I1
g187
tp333
a(I2
g187
tp334
a(I3
g187
tp335
a(I0
g127
tp336
a(I1
g187
tp337
a(I2
g130
tp338
a(I3
g187
tp339
a(I0
g127
tp340
a(I1
g127
tp341
a(I2
g301
tp342
a(I3
g187
tp343
a(I0
g135
tp344
a(I1
g127
tp345
a(I2
g187
tp346
a(I3
g135
tp347
a(I0
g135
tp348
a(I1
g127
tp349
a(I2
g301
tp350
a(I3
g135
tp351
a(I0
g127
tp352
a(I1
g127
tp353
a(I2
g127
tp354
a(I3
g135
tp355
a(I0
g130
tp356
a(I1
g127
tp357
a(I2
g135
tp358
a(I3
g135
tp359
a(I0
g127
tp360
a(I1
g301
tp361
a(I2
g187
tp362
a(I3
g127
tp363
a(I0
g130
tp364
a(I1
g301
tp365
a(I2
g187
tp366
a(I3
g127
tp367
a(I0
g135
tp368
a(I1
g301
tp369
a(I2
g301
tp370
a(I3
g127
tp371
a(I0
g127
tp372
a(I1
g301
tp373
a(I2
g301
tp374
a(I3
g127
tp375
a(I0
g127
tp376
a(I1
g187
tp377
a(I2
g127
tp378
a(I3
g301
tp379
a(I0
g130
tp380
a(I1
g187
tp381
a(I2
g127
tp382
a(I3
g301
tp383
a(I0
g135
tp384
a(I1
g127
tp385
a(I2
g127
tp386
a(I3
g301
tp387
a(I0
g130
tp388
a(I1
g127
tp389
a(I2
g135
tp390
a(I3
g301
tp391
a(I0
g130
tp392
a(I1
g187
tp393
a(I2
g130
tp394
a(I3
g187
tp395
a(I0
g135
tp396
a(I1
g301
tp397
a(I2
g130
tp398
a(I3
g187
tp399
a(I0
g127
tp400
a(I1
g301
tp401
a(I2
g135
tp402
a(I3
g187
tp403
a(I0
g135
tp404
a(I1
g301
tp405
a(I2
g130
tp406
a(I3
g187
tp407
a(I0
g135
tp408
a(I1
g187
tp409
a(I2
g127
tp410
a(I3
g127
tp411
a(I0
g130
tp412
a(I1
g187
tp413
a(I2
g135
tp414
a(I3
g127
tp415
a(I0
g127
tp416
a(I1
g187
tp417
a(I2
g130
tp418
a(I3
g127
tp419
a(I0
g127
tp420
a(I1
g187
tp421
a(I2
g127
tp422
a(I3
g127
tp423
a(I0
g130
tp424
a(I1
g187
tp425
a(I2
g135
tp426
a(I3
g187
tp427
a(I0
g127
tp428
a(I1
g187
tp429
a(I2
g135
tp430
a(I3
g187
tp431
a(I0
g130
tp432
a(I1
g187
tp433
a(I2
g187
tp434
a(I3
g187
tp435
a(I0
g127
tp436
a(I1
g127
tp437
a(I2
g187
tp438
a(I3
g127
tp439
a(I0
g130
tp440
a(I1
g127
tp441
a(I2
g130
tp442
a(I3
g127
tp443
a(I0
g135
tp444
a(I1
g187
tp445
a(I2
g130
tp446
a(I3
g187
tp447
a(I0
g130
tp448
a(I1
g301
tp449
a(I2
g301
tp450
a(I3
g187
tp451
a(I0
g127
tp452
a(I1
g301
tp453
a(I2
g130
tp454
a(I3
g187
tp455
a(I0
g127
tp456
a(I1
g127
tp457
a(I2
g301
tp458
a(I3
g187
tp459
a(I0
g127
tp460
a(I1
g127
tp461
a(I2
g130
tp462
a(I3
g187
tp463
a(I0
g130
tp464
a(I1
g135
tp465
a(I2
g130
tp466
a(I3
g135
tp467
a(I0
g135
tp468
a(I1
g187
tp469
a(I2
g187
tp470
a(I3
g135
tp471
a(I0
g130
tp472
a(I1
g187
tp473
a(I2
g301
tp474
a(I3
g135
tp475
a(I0
g130
tp476
a(I1
g127
tp477
a(I2
g127
tp478
a(I3
g135
tp479
a(I0
g135
tp480
a(I1
g135
tp481
a(I2
g130
tp482
a(I3
g135
tp483
a(I0
g127
tp484
a(I1
g135
tp485
a(I2
g130
tp486
a(I3
g135
tp487
a(I0
g135
tp488
a(I1
g187
tp489
a(I2
g130
tp490
a(I3
g135
tp491
a(I0
g135
tp492
a(I1
g187
tp493
a(I2
g127
tp494
a(I3
g135
tp495
a(I0
g127
tp496
a(I1
g127
tp497
a(I2
g135
tp498
a(I3
g135
tp499
a(I0
g130
tp500
a(I1
g127
tp501
a(I2
g135
tp502
a(I3
g135
tp503
a(I0
g135
tp504
a(I1
g135
tp505
a(I2
g187
tp506
a(I3
g127
tp507
a(I0
g127
tp508
a(I1
g135
tp509
a(I2
g130
tp510
a(I3
g127
tp511
a(I0
g130
tp512
a(I1
g135
tp513
a(I2
g187
tp514
a(I3
g301
tp515
a(I0
g127
tp516
a(I1
g135
tp517
a(I2
g130
tp518
a(I3
g301
tp519
a(I0
g127
tp520
a(I1
g135
tp521
a(I2
g301
tp522
a(I3
g135
tp523
a(I0
g130
tp524
a(I1
g135
tp525
a(I2
g187
tp526
a(I3
g135
tp527
a(I0
g130
tp528
a(I1
g135
tp529
a(I2
g130
tp530
a(I3
g127
tp531
a(I0
g130
tp532
a(I1
g135
tp533
a(I2
g301
tp534
a(I3
g301
tp535
a(I0
g130
tp536
a(I1
g135
tp537
a(I2
g301
tp538
a(I3
g301
tp539
a(I0
g135
tp540
a(I1
g135
tp541
a(I2
g130
tp542
a(I3
g135
tp543
a(I0
g127
tp544
a(I1
g127
tp545
a(I2
g187
tp546
a(I3
g127
tp547
a(I0
g130
tp548
a(I1
g127
tp549
a(I2
g301
tp550
a(I3
g301
tp551
a(I0
g130
tp552
a(I1
g127
tp553
a(I2
g187
tp554
a(I3
g301
tp555
a(I0
g130
tp556
a(I1
g127
tp557
a(I2
g130
tp558
a(I3
g135
tp559
a(I0
g135
tp560
a(I1
g127
tp561
a(I2
g187
tp562
a(I3
g127
tp563
a(I0
g127
tp564
a(I1
g301
tp565
a(I2
g130
tp566
a(I3
g127
tp567
a(I0
g130
tp568
a(I1
g301
tp569
a(I2
g130
tp570
a(I3
g127
tp571
a(I0
g135
tp572
a(I1
g301
tp573
a(I2
g301
tp574
a(I3
g127
tp575
a(I0
g130
tp576
a(I1
g135
tp577
a(I2
g301
tp578
a(I3
g127
tp579
a(I0
g130
tp580
a(I1
g301
tp581
a(I2
g130
tp582
a(I3
g127
tp583
a(I0
g127
tp584
a(I1
g135
tp585
a(I2
g130
tp586
a(I3
g187
tp587
a(I0
g135
tp588
a(I1
g301
tp589
a(I2
g187
tp590
a(I3
g127
tp591
a(I0
g127
tp592
a(I1
g301
tp593
a(I2
g187
tp594
a(I3
g127
tp595
a(I0
g130
tp596
a(I1
g135
tp597
a(I2
g127
tp598
a(I3
g301
tp599
a(I0
g130
tp600
a(I1
g135
tp601
a(I2
g135
tp602
a(I3
g301
tp603
a(I0
g135
tp604
a(I1
g135
tp605
a(I2
g301
tp606
a(I3
g301
tp607
a(I0
g135
tp608
a(I1
g135
tp609
a(I2
g187
tp610
a(I3
g135
tp611
a(I0
g135
tp612
a(I1
g301
tp613
a(I2
g301
tp614
a(I3
g135
tp615
a(I0
g130
tp616
a(I1
g301
tp617
a(I2
g187
tp618
a(I3
g135
tp619
a(I0
g130
tp620
a(I1
g301
tp621
a(I2
g127
tp622
a(I3
g135
tp623
a(I0
g135
tp624
a(I1
g301
tp625
a(I2
g130
tp626
a(I3
g301
tp627
a(I0
g130
tp628
a(I1
g301
tp629
a(I2
g127
tp630
a(I3
g301
tp631
a(I0
g135
tp632
a(I1
g127
tp633
a(I2
g130
tp634
a(I3
g301
tp635
a(I0
g135
tp636
a(I1
g127
tp637
a(I2
g127
tp638
a(I3
g301
tp639
asS'length'
p640
I1200
sS'agents'
p641
(lp642
(igame
Agent
p643
(dp644
S'index'
p645
I0
sba(igame
Agent
p646
(dp647
g645
I0
sba(igame
Agent
p648
(dp649
g645
I0
sba(igame
Agent
p650
(dp651
g645
I0
sbasS'redTeamName'
p652
S'Red'
p653
s.