(dp1
S'layout'
p2
(ilayout
Layout
p3
(dp4
S'capsules'
p5
(lp6
(I11
I3
tp7
a(I19
I8
tp8
a(I14
I9
tp9
a(I22
I16
tp10
asS'numGhosts'
p11
I4
sS'food'
p12
(igame
Grid
p13
(dp14
S'CELLS_PER_INT'
p15
I30
sS'width'
p16
I34
sS'data'
p17
(lp18
(lp19
I00
aI00
aI00
aI00
aI00
aI00
aI00
aI00
aI00
aI00
aI00
aI00
aI00
aI00
aI00
aI00
aI00
aI00
aa(lp20
I00
aI00
aI00
aI00
aI00
aI00
aI00
aI01
aI00
aI00
aI00
aI00
aI00
aI00
aI01
aI00
aI01
aI00
aa(lp21
I00
aI00
aI00
aI00
aI00
aI00
aI00
aI00
aI00
aI00
aI00
aI00
aI00
aI00
aI00
aI00
aI00
aI00
aa(lp22
I00
aI00
aI00
aI00
aI00
aI00
aI00
aI00
aI01
aI01
aI00
aI00
aI00
aI00
aI00
aI00
aI01
aI00
aa(lp23
I00
aI00
aI00
aI00
aI00
aI00
aI00
aI00
aI00
aI00
aI00
aI00
aI00
aI00
aI00
aI00
aI00
aI00
aa(lp24
I00
aI00
aI00
aI00
aI00
aI00
aI01
aI00
aI00
aI00
aI00
aI00
aI01
aI00
aI00
aI01
aI00
aI00
aa(lp25
I00
aI00
aI00
aI01
aI00
aI00
aI00
aI00
aI00
aI00
aI00
aI00
aI01
aI00
aI00
aI00
aI00
aI00
aa(lp26
I00
aI00
aI00
aI00
aI00
aI00
aI01
aI00
aI00
aI00
aI00
aI00
aI00
aI00
aI00
aI00
aI01
aI00
aa(lp27
I00
aI00
aI00
aI00
aI00
aI00
aI00
aI00
aI01
aI00
aI01
aI00
aI01
aI00
aI00
aI00
aI01
aI00
aa(lp28
I00
aI00
aI00
aI00
aI00
aI00
aI00
aI00
aI00
aI01
aI00
aI00
aI01
aI00
aI00
aI00
aI01
aI00
aa(lp29
I00
aI00
aI00
aI00
aI00
aI00
aI00
aI00
aI00
aI00
aI00
aI00
aI00
aI00
aI00
aI00
aI00
aI00
aa(lp30
I00
aI00
aI00
aI00
aI00
aI01
aI01
aI00
aI00
aI00
aI00
aI01
aI01
aI00
aI01
aI00
aI01
aI00
aa(lp31
I00
aI00
aI00
aI00
aI00
aI00
aI00
aI00
aI00
aI00
aI00
aI00
aI00
aI00
aI00
aI00
aI00
aI00
aa(lp32
I00
aI00
aI00
aI00
aI00
aI00
aI00
aI00
aI00
aI00
aI00
aI00
aI00
aI00
aI00
aI00
aI01
aI00
aa(lp33
I00
aI00
aI00
aI00
aI00
aI00
aI00
aI00
aI00
aI00
aI00
aI00
aI00
aI00
aI00
aI00
aI01
aI00
aa(lp34
I00
aI00
aI00
aI00
aI00
aI00
aI00
aI00
aI00
aI00
aI00
aI00
aI00
aI00
aI00
aI00
aI00
aI00
aa(lp35
I00
aI01
aI00
aI00
aI00
aI00
aI00
aI00
aI01
aI00
aI00
aI00
aI00
aI00
aI00
aI00
aI00
aI00
aa(lp36
I00
aI00
aI00
aI00
aI00
aI00
aI00
aI00
aI00
aI01
aI00
aI00
aI00
aI00
aI00
aI00
aI01
aI00
aa(lp37
I00
aI00
aI00
aI00
aI00
aI00
aI00
aI00
aI00
aI00
aI00
aI00
aI00
aI00
aI00
aI00
aI00
aI00
aa(lp38
I00
aI01
aI00
aI00
aI00
aI00
aI00
aI00
aI00
aI00
aI00
aI00
aI00
aI00
aI00
aI00
aI00
aI00
aa(lp39
I00
aI01
aI00
aI00
aI00
aI00
aI00
aI00
aI00
aI00
aI00
aI00
aI00
aI00
aI00
aI00
aI00
aI00
aa(lp40
I00
aI00
aI00
aI00
aI00
aI00
aI00
aI00
aI00
aI00
aI00
aI00
aI00
aI00
aI00
aI00
aI00
aI00
aa(lp41
I00
aI01
aI00
aI01
aI00
aI01
aI01
aI00
aI00
aI00
aI00
aI01
aI01
aI00
aI00
aI00
aI00
aI00
aa(lp42
I00
aI00
aI00
aI00
aI00
aI00
aI00
aI00
aI00
aI00
aI00
aI00
aI00
aI00
aI00
aI00
aI00
aI00
aa(lp43
I00
aI01
aI00
aI00
aI00
aI01
aI00
aI00
aI01
aI00
aI00
aI00
aI00
aI00
aI00
aI00
aI00
aI00
aa(lp44
I00
aI01
aI00
aI00
aI00
aI01
aI00
aI01
aI00
aI01
aI00
aI00
aI00
aI00
aI00
aI00
aI00
aI00
aa(lp45
I00
aI01
aI00
aI00
aI00
aI00
aI00
aI00
aI00
aI00
aI00
aI01
aI00
aI00
aI00
aI00
aI00
aI00
aa(lp46
I00
aI00
aI00
aI00
aI00
aI01
aI00
aI00
aI00
aI00
aI00
aI00
aI00
aI00
aI01
aI00
aI00
aI00
aa(lp47
I00
aI00
aI01
aI00
aI00
aI01
aI00
aI00
aI00
aI00
aI00
aI01
aI00
aI00
aI00
aI00
aI00
aI00
aa(lp48
I00
aI00
aI00
aI00
aI00
aI00
aI00
aI00
aI00
aI00
aI00
aI00
aI00
aI00
aI00
aI00
aI00
aI00
aa(lp49
I00
aI01
aI00
aI00
aI00
aI00
aI00
aI00
aI01
aI01
aI00
aI00
aI00
aI00
aI00
aI00
aI00
aI00
aa(lp50
I00
aI00
aI00
aI00
aI00
aI00
aI00
aI00
aI00
aI00
aI00
aI00
aI00
aI00
aI00
aI00
aI00
aI00
aa(lp51
I00
aI01
aI00
aI01
aI00
aI00
aI00
aI00
aI00
aI00
aI01
aI00
aI00
aI00
aI00
aI00
aI00
aI00
aa(lp52
I00
aI00
aI00
aI00
aI00
aI00
aI00
aI00
aI00
aI00
aI00
aI00
aI00
aI00
aI00
aI00
aI00
aI00
aasS'height'
p53
I18
sbsS'agentPositions'
p54
(lp55
(I00
(I1
I2
tp56
tp57
a(I00
(I32
I15
tp58
tp59
a(I00
(I1
I1
tp60
tp61
a(I00
(I32
I16
tp62
tp63
asg53
I18
sg16
I34
sS'walls'
p64
(igame
Grid
p65
(dp66
g15
I30
sg16
I34
sg17
(lp67
(lp68
I01
aI01
aI01
aI01
aI01
aI01
aI01
aI01
aI01
aI01
aI01
aI01
aI01
aI01
aI01
aI01
aI01
aI01
aa(lp69
I01
aI00
aI00
aI00
aI00
aI00
aI00
aI00
aI00
aI00
aI00
aI00
aI00
aI00
aI00
aI00
aI00
aI01
aa(lp70
I01
aI00
aI00
aI00
aI01
aI01
aI01
aI01
aI01
aI01
aI01
aI01
aI01
aI01
aI01
aI01
aI00
aI01
aa(lp71
I01
aI00
aI01
aI00
aI01
aI00
aI00
aI01
aI00
aI00
aI00
aI00
aI00
aI00
aI00
aI01
aI00
aI01
aa(lp72
I01
aI00
aI01
aI00
aI01
aI00
aI00
aI01
aI01
aI01
aI00
aI01
aI01
aI01
aI00
aI01
aI00
aI01
aa(lp73
I01
aI00
aI01
aI00
aI01
aI00
aI00
aI01
aI00
aI00
aI00
aI01
aI00
aI01
aI00
aI00
aI00
aI01
aa(lp74
I01
aI00
aI01
aI00
aI01
aI00
aI00
aI00
aI00
aI00
aI01
aI01
aI00
aI01
aI00
aI01
aI01
aI01
aa(lp75
I01
aI00
aI01
aI00
aI01
aI00
aI00
aI01
aI00
aI00
aI00
aI00
aI00
aI01
aI00
aI01
aI00
aI01
aa(lp76
I01
aI00
aI01
aI00
aI01
aI00
aI00
aI01
aI00
aI01
aI00
aI01
aI00
aI01
aI00
aI01
aI00
aI01
aa(lp77
I01
aI00
aI00
aI00
aI01
aI00
aI00
aI01
aI00
aI00
aI00
aI01
aI00
aI01
aI00
aI01
aI00
aI01
aa(lp78
I01
aI00
aI01
aI00
aI01
aI01
aI01
aI01
aI00
aI01
aI01
aI01
aI01
aI01
aI00
aI00
aI00
aI01
aa(lp79
I01
aI00
aI01
aI00
aI01
aI00
aI00
aI00
aI00
aI00
aI00
aI00
aI00
aI01
aI00
aI01
aI00
aI01
aa(lp80
I01
aI00
aI01
aI00
aI01
aI01
aI01
aI01
aI01
aI01
aI00
aI01
aI01
aI01
aI01
aI01
aI01
aI01
aa(lp81
I01
aI00
aI00
aI00
aI00
aI00
aI01
aI00
aI00
aI00
aI00
aI00
aI00
aI01
aI00
aI00
aI00
aI01
aa(lp82
I01
aI00
aI00
aI00
aI01
aI00
aI00
aI00
aI01
aI00
aI00
aI01
aI00
aI00
aI00
aI01
aI00
aI01
aa(lp83
I01
aI01
aI00
aI00
aI01
aI00
aI01
aI00
aI01
aI01
aI00
aI01
aI01
aI01
aI00
aI01
aI01
aI01
aa(lp84
I01
aI00
aI00
aI00
aI00
aI00
aI00
aI00
aI00
aI00
aI00
aI00
aI00
aI00
aI00
aI00
aI00
aI01
aa(lp85
I01
aI00
aI00
aI00
aI00
aI00
aI00
aI00
aI00
aI00
aI00
aI00
aI00
aI00
aI00
aI00
aI00
aI01
aa(lp86
I01
aI01
aI01
aI00
aI01
aI01
aI01
aI00
aI01
aI01
aI00
aI01
aI00
aI01
aI00
aI00
aI01
aI01
aa(lp87
I01
aI00
aI01
aI00
aI00
aI00
aI01
aI00
aI00
aI01
aI00
aI00
aI00
aI01
aI00
aI00
aI00
aI01
aa(lp88
I01
aI00
aI00
aI00
aI01
aI00
aI00
aI00
aI00
aI00
aI00
aI01
aI00
aI00
aI00
aI00
aI00
aI01
aa(lp89
I01
aI01
aI01
aI01
aI01
aI01
aI01
aI00
aI01
aI01
aI01
aI01
aI01
aI01
aI00
aI01
aI00
aI01
aa(lp90
I01
aI00
aI01
aI00
aI01
aI00
aI00
aI00
aI00
aI00
aI00
aI00
aI00
aI01
aI00
aI01
aI00
aI01
aa(lp91
I01
aI00
aI00
aI00
aI01
aI01
aI01
aI01
aI01
aI00
aI01
aI01
aI01
aI01
aI00
aI01
aI00
aI01
aa(lp92
I01
aI00
aI01
aI00
aI01
aI00
aI01
aI00
aI00
aI00
aI01
aI00
aI00
aI01
aI00
aI00
aI00
aI01
aa(lp93
I01
aI00
aI01
aI00
aI01
aI00
aI01
aI00
aI01
aI00
aI01
aI00
aI00
aI01
aI00
aI01
aI00
aI01
aa(lp94
I01
aI00
aI01
aI00
aI01
aI00
aI00
aI00
aI00
aI00
aI01
aI00
aI00
aI01
aI00
aI01
aI00
aI01
aa(lp95
I01
aI01
aI01
aI00
aI01
aI00
aI01
aI01
aI00
aI00
aI00
aI00
aI00
aI01
aI00
aI01
aI00
aI01
aa(lp96
I01
aI00
aI00
aI00
aI01
aI00
aI01
aI00
aI00
aI00
aI01
aI00
aI00
aI01
aI00
aI01
aI00
aI01
aa(lp97
I01
aI00
aI01
aI00
aI01
aI01
aI01
aI00
aI01
aI01
aI01
aI00
aI00
aI01
aI00
aI01
aI00
aI01
aa(lp98
I01
aI00
aI01
aI00
aI00
aI00
aI00
aI00
aI00
aI00
aI01
aI00
aI00
aI01
aI00
aI01
aI00
aI01
aa(lp99
I01
aI00
aI01
aI01
aI01
aI01
aI01
aI01
aI01
aI01
aI01
aI01
aI01
aI01
aI00
aI00
aI00
aI01
aa(lp100
I01
aI00
aI00
aI00
aI00
aI00
aI00
aI00
aI00
aI00
aI00
aI00
aI00
aI00
aI00
aI00
aI00
aI01
aa(lp101
I01
aI01
aI01
aI01
aI01
aI01
aI01
aI01
aI01
aI01
aI01
aI01
aI01
aI01
aI01
aI01
aI01
aI01
aasg53
I18
sbsS'totalFood'
p102
I60
sS'layoutText'
p103
(lp104
S'%%%%%%%%%%%%%%%%%%%%%%%%%%%%%%%%%%'
p105
aS'%. .  %... .%..% .%   o         4%'
p106
aS'% %%%.%%%% %% %%     %%% %%%%%% 2%'
p107
aS'%.%        .%              .     %'
p108
aS'% % %%%%%%%%%% %  %% %%%%%%%%%%% %'
p109
aS'% % %.. ..%.%  %     %.%       % %'
p110
aS'% % %%% %%%.% %%  % %%.%  . .  % %'
p111
aS'% %   % . %          % %%%% %%%%.%'
p112
aS'% %.%   %.% % o% .%% %   .   %.% %'
p113
aS'% %.%   .   % %%. %o % %.%   %.% %'
p114
aS'%.%%%% %%%% %          % . %   % %'
p115
aS'% %  . .  %.%% %  %% %.%%% %%% % %'
p116
aS'% %       %.%     %  %.%.. ..% % %'
p117
aS'% %%%%%%%%%%% %%  % %%%%%%%%%% % %'
p118
aS'%     .    o         %.        %.%'
p119
aS'%1 %%%%%% %%%     %% %% %%%%.%%% %'
p120
aS'%3             %. %..%. ...%  . .%'
p121
aS'%%%%%%%%%%%%%%%%%%%%%%%%%%%%%%%%%%'
p122
asbsS'blueTeamName'
p123
S'Blue'
p124
sS'actions'
p125
(lp126
(I1
S'West'
p127
tp128
a(I2
S'East'
p129
tp130
a(I3
g127
tp131
a(I0
S'North'
p132
tp133
a(I1
S'South'
p134
tp135
a(I2
g127
tp136
a(I3
g127
tp137
a(I0
g134
tp138
a(I1
g127
tp139
a(I2
S'Stop'
p140
tp141
a(I3
g127
tp142
a(I0
g134
tp143
a(I1
g127
tp144
a(I2
g140
tp145
a(I3
g127
tp146
a(I0
g140
tp147
a(I1
g127
tp148
a(I2
g140
tp149
a(I3
g127
tp150
a(I0
g129
tp151
a(I1
g127
tp152
a(I2
g140
tp153
a(I3
g127
tp154
a(I0
g132
tp155
a(I1
g127
tp156
a(I2
g140
tp157
a(I3
g127
tp158
a(I0
g134
tp159
a(I1
g127
tp160
a(I2
g129
tp161
a(I3
g127
tp162
a(I0
g127
tp163
a(I1
g127
tp164
a(I2
g127
tp165
a(I3
g127
tp166
a(I0
g132
tp167
a(I1
g127
tp168
a(I2
g132
tp169
a(I3
g127
tp170
a(I0
g132
tp171
a(I1
g127
tp172
a(I2
g134
tp173
a(I3
g127
tp174
a(I0
g134
tp175
a(I1
g127
tp176
a(I2
g129
tp177
a(I3
g127
tp178
a(I0
g134
tp179
a(I1
g127
tp180
a(I2
g140
tp181
a(I3
g134
tp182
a(I0
g129
tp183
a(I1
g127
tp184
a(I2
g140
tp185
a(I3
g132
tp186
a(I0
g140
tp187
a(I1
g127
tp188
a(I2
g127
tp189
a(I3
g134
tp190
a(I0
g132
tp191
a(I1
g127
tp192
a(I2
g140
tp193
a(I3
g132
tp194
a(I0
g134
tp195
a(I1
g127
tp196
a(I2
g140
tp197
a(I3
g134
tp198
a(I0
g132
tp199
a(I1
g134
tp200
a(I2
g132
tp201
a(I3
g132
tp202
a(I0
g140
tp203
a(I1
g134
tp204
a(I2
g129
tp205
a(I3
g134
tp206
a(I0
g127
tp207
a(I1
g134
tp208
a(I2
g140
tp209
a(I3
g132
tp210
a(I0
g132
tp211
a(I1
g134
tp212
a(I2
g127
tp213
a(I3
g134
tp214
a(I0
g129
tp215
a(I1
g134
tp216
a(I2
g132
tp217
a(I3
g132
tp218
a(I0
g140
tp219
a(I1
g134
tp220
a(I2
g134
tp221
a(I3
g134
tp222
a(I0
g127
tp223
a(I1
g134
tp224
a(I2
g132
tp225
a(I3
g132
tp226
a(I0
g134
tp227
a(I1
g127
tp228
a(I2
g132
tp229
a(I3
g134
tp230
a(I0
g132
tp231
a(I1
g127
tp232
a(I2
g140
tp233
a(I3
g132
tp234
a(I0
g132
tp235
a(I1
g134
tp236
a(I2
g132
tp237
a(I3
g134
tp238
a(I0
g140
tp239
a(I1
g134
tp240
a(I2
g134
tp241
a(I3
g132
tp242
a(I0
g140
tp243
a(I1
g127
tp244
a(I2
g140
tp245
a(I3
g134
tp246
a(I0
g134
tp247
a(I1
g134
tp248
a(I2
g140
tp249
a(I3
g132
tp250
a(I0
g134
tp251
a(I1
g134
tp252
a(I2
g132
tp253
a(I3
g134
tp254
a(I0
g132
tp255
a(I1
g127
tp256
a(I2
g134
tp257
a(I3
g132
tp258
a(I0
g132
tp259
a(I1
g127
tp260
a(I2
g132
tp261
a(I3
g134
tp262
a(I0
g140
tp263
a(I1
g127
tp264
a(I2
g140
tp265
a(I3
g132
tp266
a(I0
g134
tp267
a(I1
g127
tp268
a(I2
g134
tp269
a(I3
g134
tp270
a(I0
g140
tp271
a(I1
g127
tp272
a(I2
g140
tp273
a(I3
g132
tp274
a(I0
g129
tp275
a(I1
g127
tp276
a(I2
g134
tp277
a(I3
g134
tp278
a(I0
g134
tp279
a(I1
g127
tp280
a(I2
g129
tp281
a(I3
g132
tp282
a(I0
g134
tp283
a(I1
g129
tp284
a(I2
g129
tp285
a(I3
g134
tp286
a(I0
g132
tp287
a(I1
g129
tp288
a(I2
g127
tp289
a(I3
g132
tp290
a(I0
g127
tp291
a(I1
g129
tp292
a(I2
g129
tp293
a(I3
g134
tp294
a(I0
g129
tp295
a(I1
g129
tp296
a(I2
g127
tp297
a(I3
g132
tp298
a(I0
g127
tp299
a(I1
g129
tp300
a(I2
g140
tp301
a(I3
g134
tp302
a(I0
g140
tp303
a(I1
g129
tp304
a(I2
g134
tp305
a(I3
g132
tp306
a(I0
g134
tp307
a(I1
g129
tp308
a(I2
g132
tp309
a(I3
g134
tp310
a(I0
g140
tp311
a(I1
g129
tp312
a(I2
g140
tp313
a(I3
g132
tp314
a(I0
g132
tp315
a(I1
g129
tp316
a(I2
g127
tp317
a(I3
g134
tp318
a(I0
g134
tp319
a(I1
g129
tp320
a(I2
g132
tp321
a(I3
g132
tp322
a(I0
g129
tp323
a(I1
g129
tp324
a(I2
g134
tp325
a(I3
g134
tp326
a(I0
g132
tp327
a(I1
g127
tp328
a(I2
g140
tp329
a(I3
g132
tp330
a(I0
g140
tp331
a(I1
g127
tp332
a(I2
g140
tp333
a(I3
g134
tp334
a(I0
g140
tp335
a(I1
g127
tp336
a(I2
g134
tp337
a(I3
g132
tp338
a(I0
g127
tp339
a(I1
g127
tp340
a(I2
g129
tp341
a(I3
g134
tp342
a(I0
g140
tp343
a(I1
g127
tp344
a(I2
g127
tp345
a(I3
g132
tp346
a(I0
g140
tp347
a(I1
g127
tp348
a(I2
g129
tp349
a(I3
g134
tp350
a(I0
g140
tp351
a(I1
g127
tp352
a(I2
g140
tp353
a(I3
g132
tp354
a(I0
g140
tp355
a(I1
g127
tp356
a(I2
g132
tp357
a(I3
g134
tp358
a(I0
g140
tp359
a(I1
g127
tp360
a(I2
g127
tp361
a(I3
g132
tp362
a(I0
g134
tp363
a(I1
g127
tp364
a(I2
g134
tp365
a(I3
g134
tp366
a(I0
g129
tp367
a(I1
g127
tp368
a(I2
g129
tp369
a(I3
g132
tp370
a(I0
g140
tp371
a(I1
g127
tp372
a(I2
g140
tp373
a(I3
g134
tp374
a(I0
g132
tp375
a(I1
g127
tp376
a(I2
g140
tp377
a(I3
g132
tp378
a(I0
g127
tp379
a(I1
g127
tp380
a(I2
g140
tp381
a(I3
g134
tp382
a(I0
g134
tp383
a(I1
g127
tp384
a(I2
g127
tp385
a(I3
g132
tp386
a(I0
g140
tp387
a(I1
g127
tp388
a(I2
g134
tp389
a(I3
g134
tp390
a(I0
g129
tp391
a(I1
g132
tp392
a(I2
g129
tp393
a(I3
g132
tp394
a(I0
g127
tp395
a(I1
g132
tp396
a(I2
g127
tp397
a(I3
g134
tp398
a(I0
g129
tp399
a(I1
g132
tp400
a(I2
g129
tp401
a(I3
g132
tp402
a(I0
g140
tp403
a(I1
g132
tp404
a(I2
g140
tp405
a(I3
g134
tp406
a(I0
g140
tp407
a(I1
g132
tp408
a(I2
g129
tp409
a(I3
g132
tp410
a(I0
g129
tp411
a(I1
g132
tp412
a(I2
g127
tp413
a(I3
g134
tp414
a(I0
g140
tp415
a(I1
g132
tp416
a(I2
g127
tp417
a(I3
g132
tp418
a(I0
g127
tp419
a(I1
g132
tp420
a(I2
g129
tp421
a(I3
g134
tp422
a(I0
g129
tp423
a(I1
g132
tp424
a(I2
g129
tp425
a(I3
g132
tp426
a(I0
g129
tp427
a(I1
g132
tp428
a(I2
g140
tp429
a(I3
g134
tp430
a(I0
g129
tp431
a(I1
g132
tp432
a(I2
g140
tp433
a(I3
g132
tp434
a(I0
g127
tp435
a(I1
g134
tp436
a(I2
g140
tp437
a(I3
g134
tp438
a(I0
g140
tp439
a(I1
g134
tp440
a(I2
g129
tp441
a(I3
g132
tp442
a(I0
g127
tp443
a(I1
g134
tp444
a(I2
g129
tp445
a(I3
g134
tp446
a(I0
g129
tp447
a(I1
g134
tp448
a(I2
g129
tp449
a(I3
g132
tp450
a(I0
g127
tp451
a(I1
g134
tp452
a(I2
g140
tp453
a(I3
g134
tp454
a(I0
g127
tp455
a(I1
g134
tp456
a(I2
g127
tp457
a(I3
g132
tp458
a(I0
g129
tp459
a(I1
g134
tp460
a(I2
g129
tp461
a(I3
g134
tp462
a(I0
g140
tp463
a(I1
g134
tp464
a(I2
g127
tp465
a(I3
g132
tp466
a(I0
g129
tp467
a(I1
g134
tp468
a(I2
g127
tp469
a(I3
g134
tp470
a(I0
g140
tp471
a(I1
g134
tp472
a(I2
g140
tp473
a(I3
g132
tp474
a(I0
g140
tp475
a(I1
g134
tp476
a(I2
g127
tp477
a(I3
g134
tp478
a(I0
g127
tp479
a(I1
g129
tp480
a(I2
g127
tp481
a(I3
g132
tp482
a(I0
g129
tp483
a(I1
g129
tp484
a(I2
g129
tp485
a(I3
g134
tp486
a(I0
g129
tp487
a(I1
g129
tp488
a(I2
g127
tp489
a(I3
g132
tp490
a(I0
g129
tp491
a(I1
g129
tp492
a(I2
g127
tp493
a(I3
g134
tp494
a(I0
g127
tp495
a(I1
g129
tp496
a(I2
g132
tp497
a(I3
g132
tp498
a(I0
g127
tp499
a(I1
g129
tp500
a(I2
g132
tp501
a(I3
g134
tp502
a(I0
g127
tp503
a(I1
g129
tp504
a(I2
g140
tp505
a(I3
g132
tp506
a(I0
g140
tp507
a(I1
g129
tp508
a(I2
g129
tp509
a(I3
g134
tp510
a(I0
g129
tp511
a(I1
g129
tp512
a(I2
g127
tp513
a(I3
g132
tp514
a(I0
g140
tp515
a(I1
g129
tp516
a(I2
g140
tp517
a(I3
g134
tp518
a(I0
g140
tp519
a(I1
g129
tp520
a(I2
g140
tp521
a(I3
g132
tp522
a(I0
g127
tp523
a(I1
g129
tp524
a(I2
g129
tp525
a(I3
g134
tp526
a(I0
g127
tp527
a(I1
g129
tp528
a(I2
g129
tp529
a(I3
g132
tp530
a(I0
g127
tp531
a(I1
g129
tp532
a(I2
g140
tp533
a(I3
g134
tp534
a(I0
g129
tp535
a(I1
g129
tp536
a(I2
g129
tp537
a(I3
g132
tp538
a(I0
g129
tp539
a(I1
g129
tp540
a(I2
g129
tp541
a(I3
g134
tp542
a(I0
g127
tp543
a(I1
g127
tp544
a(I2
g140
tp545
a(I3
g132
tp546
a(I0
g140
tp547
a(I1
g127
tp548
a(I2
g129
tp549
a(I3
g134
tp550
a(I0
g129
tp551
a(I1
g127
tp552
a(I2
g140
tp553
a(I3
g132
tp554
a(I0
g129
tp555
a(I1
g127
tp556
a(I2
g127
tp557
a(I3
g134
tp558
a(I0
g140
tp559
a(I1
g127
tp560
a(I2
g127
tp561
a(I3
g132
tp562
a(I0
g127
tp563
a(I1
g127
tp564
a(I2
g129
tp565
a(I3
g134
tp566
a(I0
g140
tp567
a(I1
g127
tp568
a(I2
g140
tp569
a(I3
g132
tp570
a(I0
g129
tp571
a(I1
g127
tp572
a(I2
g127
tp573
a(I3
g134
tp574
a(I0
g129
tp575
a(I1
g127
tp576
a(I2
g140
tp577
a(I3
g132
tp578
a(I0
g127
tp579
a(I1
g127
tp580
a(I2
g129
tp581
a(I3
g134
tp582
a(I0
g127
tp583
a(I1
g127
tp584
a(I2
g140
tp585
a(I3
g132
tp586
a(I0
g140
tp587
a(I1
g140
tp588
a(I2
g129
tp589
a(I3
g134
tp590
a(I0
g129
tp591
a(I1
g127
tp592
a(I2
g127
tp593
a(I3
g132
tp594
a(I0
g140
tp595
a(I1
g134
tp596
a(I2
g129
tp597
a(I3
g134
tp598
a(I0
g129
tp599
a(I1
g127
tp600
a(I2
g129
tp601
a(I3
g132
tp602
a(I0
g140
tp603
a(I1
g127
tp604
a(I2
g140
tp605
a(I3
g134
tp606
a(I0
g140
tp607
a(I1
g127
tp608
a(I2
g129
tp609
a(I3
g132
tp610
a(I0
g129
tp611
a(I1
g127
tp612
a(I2
g140
tp613
a(I3
g134
tp614
a(I0
g127
tp615
a(I1
g127
tp616
a(I2
g127
tp617
a(I3
g132
tp618
a(I0
g140
tp619
a(I1
g127
tp620
a(I2
g140
tp621
a(I3
g134
tp622
a(I0
g129
tp623
a(I1
g127
tp624
a(I2
g129
tp625
a(I3
g132
tp626
a(I0
g129
tp627
a(I1
g127
tp628
a(I2
g129
tp629
a(I3
g134
tp630
a(I0
g140
tp631
a(I1
g127
tp632
a(I2
g140
tp633
a(I3
g132
tp634
a(I0
g140
tp635
a(I1
g127
tp636
a(I2
g140
tp637
a(I3
g134
tp638
a(I0
g127
tp639
a(I1
g127
tp640
a(I2
g127
tp641
a(I3
g132
tp642
a(I0
g140
tp643
a(I1
g127
tp644
a(I2
g127
tp645
a(I3
g134
tp646
a(I0
g140
tp647
a(I1
g127
tp648
a(I2
g140
tp649
a(I3
g132
tp650
a(I0
g140
tp651
a(I1
g127
tp652
a(I2
g129
tp653
a(I3
g134
tp654
a(I0
g127
tp655
a(I1
g127
tp656
a(I2
g140
tp657
a(I3
g132
tp658
a(I0
g127
tp659
a(I1
g134
tp660
a(I2
g140
tp661
a(I3
g134
tp662
a(I0
g140
tp663
a(I1
g134
tp664
a(I2
g127
tp665
a(I3
g132
tp666
a(I0
g127
tp667
a(I1
g134
tp668
a(I2
g140
tp669
a(I3
g134
tp670
a(I0
g129
tp671
a(I1
g134
tp672
a(I2
g129
tp673
a(I3
g132
tp674
a(I0
g129
tp675
a(I1
g127
tp676
a(I2
g129
tp677
a(I3
g134
tp678
a(I0
g127
tp679
a(I1
g127
tp680
a(I2
g134
tp681
a(I3
g132
tp682
a(I0
g140
tp683
a(I1
g134
tp684
a(I2
g134
tp685
a(I3
g134
tp686
a(I0
g129
tp687
a(I1
g132
tp688
a(I2
g127
tp689
a(I3
g132
tp690
a(I0
g127
tp691
a(I1
g127
tp692
a(I2
g129
tp693
a(I3
g134
tp694
a(I0
g140
tp695
a(I1
g127
tp696
a(I2
g129
tp697
a(I3
g132
tp698
a(I0
g140
tp699
a(I1
g127
tp700
a(I2
g140
tp701
a(I3
g134
tp702
a(I0
g140
tp703
a(I1
g134
tp704
a(I2
g140
tp705
a(I3
g132
tp706
a(I0
g129
tp707
a(I1
g134
tp708
a(I2
g129
tp709
a(I3
g134
tp710
a(I0
g140
tp711
a(I1
g127
tp712
a(I2
g140
tp713
a(I3
g132
tp714
a(I0
g127
tp715
a(I1
g127
tp716
a(I2
g140
tp717
a(I3
g134
tp718
a(I0
g140
tp719
a(I1
g127
tp720
a(I2
g127
tp721
a(I3
g132
tp722
a(I0
g127
tp723
a(I1
g127
tp724
a(I2
g127
tp725
a(I3
g134
tp726
a(I0
g127
tp727
a(I1
g132
tp728
a(I2
g127
tp729
a(I3
g132
tp730
a(I0
g129
tp731
a(I1
g127
tp732
a(I2
g129
tp733
a(I3
g134
tp734
a(I0
g140
tp735
a(I1
g127
tp736
a(I2
g129
tp737
a(I3
g132
tp738
a(I0
g127
tp739
a(I1
g132
tp740
a(I2
g140
tp741
a(I3
g134
tp742
a(I0
g132
tp743
a(I1
g127
tp744
a(I2
g129
tp745
a(I3
g132
tp746
a(I0
g127
tp747
a(I1
g127
tp748
a(I2
g140
tp749
a(I3
g134
tp750
a(I0
g129
tp751
a(I1
g132
tp752
a(I2
g129
tp753
a(I3
g132
tp754
a(I0
g132
tp755
a(I1
g132
tp756
a(I2
g129
tp757
a(I3
g134
tp758
a(I0
g127
tp759
a(I1
g132
tp760
a(I2
g132
tp761
a(I3
g132
tp762
a(I0
g134
tp763
a(I1
g132
tp764
a(I2
g129
tp765
a(I3
g134
tp766
a(I0
g129
tp767
a(I1
g129
tp768
a(I2
g134
tp769
a(I3
g132
tp770
a(I0
g127
tp771
a(I1
g129
tp772
a(I2
g132
tp773
a(I3
g134
tp774
a(I0
g129
tp775
a(I1
g132
tp776
a(I2
g134
tp777
a(I3
g132
tp778
a(I0
g132
tp779
a(I1
g134
tp780
a(I2
g127
tp781
a(I3
g134
tp782
a(I0
g129
tp783
a(I1
g127
tp784
a(I2
g132
tp785
a(I3
g132
tp786
a(I0
g140
tp787
a(I1
g127
tp788
a(I2
g129
tp789
a(I3
g134
tp790
a(I0
g129
tp791
a(I1
g134
tp792
a(I2
g127
tp793
a(I3
g132
tp794
a(I0
g127
tp795
a(I1
g134
tp796
a(I2
g132
tp797
a(I3
g134
tp798
a(I0
g140
tp799
a(I1
g134
tp800
a(I2
g134
tp801
a(I3
g132
tp802
a(I0
g140
tp803
a(I1
g134
tp804
a(I2
g140
tp805
a(I3
g134
tp806
a(I0
g129
tp807
a(I1
g129
tp808
a(I2
g134
tp809
a(I3
g132
tp810
a(I0
g129
tp811
a(I1
g129
tp812
a(I2
g140
tp813
a(I3
g134
tp814
a(I0
g127
tp815
a(I1
g134
tp816
a(I2
g127
tp817
a(I3
g132
tp818
a(I0
g129
tp819
a(I1
g129
tp820
a(I2
g129
tp821
a(I3
g134
tp822
a(I0
g127
tp823
a(I1
g129
tp824
a(I2
g140
tp825
a(I3
g132
tp826
a(I0
g127
tp827
a(I1
g134
tp828
a(I2
g140
tp829
a(I3
g134
tp830
a(I0
g129
tp831
a(I1
g129
tp832
a(I2
g129
tp833
a(I3
g132
tp834
a(I0
g129
tp835
a(I1
g129
tp836
a(I2
g140
tp837
a(I3
g134
tp838
a(I0
g140
tp839
a(I1
g129
tp840
a(I2
g127
tp841
a(I3
g132
tp842
a(I0
g127
tp843
a(I1
g129
tp844
a(I2
g132
tp845
a(I3
g134
tp846
a(I0
g129
tp847
a(I1
g132
tp848
a(I2
g140
tp849
a(I3
g132
tp850
a(I0
g129
tp851
a(I1
g132
tp852
a(I2
g129
tp853
a(I3
g134
tp854
a(I0
g129
tp855
a(I1
g129
tp856
a(I2
g140
tp857
a(I3
g132
tp858
a(I0
g127
tp859
a(I1
g129
tp860
a(I2
g127
tp861
a(I3
g134
tp862
a(I0
g129
tp863
a(I1
g129
tp864
a(I2
g132
tp865
a(I3
g132
tp866
a(I0
g127
tp867
a(I1
g129
tp868
a(I2
g134
tp869
a(I3
g134
tp870
a(I0
g140
tp871
a(I1
g129
tp872
a(I2
g134
tp873
a(I3
g132
tp874
a(I0
g127
tp875
a(I1
g129
tp876
a(I2
g140
tp877
a(I3
g134
tp878
a(I0
g129
tp879
a(I1
g127
tp880
a(I2
g132
tp881
a(I3
g132
tp882
a(I0
g129
tp883
a(I1
g127
tp884
a(I2
g140
tp885
a(I3
g134
tp886
a(I0
g140
tp887
a(I1
g127
tp888
a(I2
g140
tp889
a(I3
g132
tp890
a(I0
g127
tp891
a(I1
g127
tp892
a(I2
g140
tp893
a(I3
g134
tp894
a(I0
g129
tp895
a(I1
g127
tp896
a(I2
g129
tp897
a(I3
g132
tp898
a(I0
g140
tp899
a(I1
g127
tp900
a(I2
g132
tp901
a(I3
g134
tp902
a(I0
g127
tp903
a(I1
g134
tp904
a(I2
g140
tp905
a(I3
g132
tp906
a(I0
g127
tp907
a(I1
g134
tp908
a(I2
g129
tp909
a(I3
g134
tp910
a(I0
g140
tp911
a(I1
g127
tp912
a(I2
g127
tp913
a(I3
g132
tp914
a(I0
g127
tp915
a(I1
g127
tp916
a(I2
g127
tp917
a(I3
g134
tp918
a(I0
g140
tp919
a(I1
g127
tp920
a(I2
g140
tp921
a(I3
g132
tp922
a(I0
g140
tp923
a(I1
g127
tp924
a(I2
g129
tp925
a(I3
g134
tp926
a(I0
g127
tp927
a(I1
g132
tp928
a(I2
g140
tp929
a(I3
g132
tp930
a(I0
g127
tp931
a(I1
g127
tp932
a(I2
g140
tp933
a(I3
g134
tp934
a(I0
g134
tp935
a(I1
g127
tp936
a(I2
g134
tp937
a(I3
g132
tp938
a(I0
g134
tp939
a(I1
g132
tp940
a(I2
g127
tp941
a(I3
g134
tp942
a(I0
g129
tp943
a(I1
g127
tp944
a(I2
g132
tp945
a(I3
g132
tp946
a(I0
g129
tp947
a(I1
g127
tp948
a(I2
g132
tp949
a(I3
g134
tp950
a(I0
g140
tp951
a(I1
g132
tp952
a(I2
g132
tp953
a(I3
g132
tp954
a(I0
g129
tp955
a(I1
g132
tp956
a(I2
g140
tp957
a(I3
g134
tp958
a(I0
g140
tp959
a(I1
g132
tp960
a(I2
g129
tp961
a(I3
g132
tp962
a(I0
g140
tp963
a(I1
g132
tp964
a(I2
g140
tp965
a(I3
g134
tp966
a(I0
g127
tp967
a(I1
g129
tp968
a(I2
g127
tp969
a(I3
g132
tp970
a(I0
g129
tp971
a(I1
g129
tp972
a(I2
g140
tp973
a(I3
g134
tp974
a(I0
g140
tp975
a(I1
g132
tp976
a(I2
g140
tp977
a(I3
g132
tp978
a(I0
g140
tp979
a(I1
g132
tp980
a(I2
g129
tp981
a(I3
g134
tp982
a(I0
g129
tp983
a(I1
g127
tp984
a(I2
g140
tp985
a(I3
g132
tp986
a(I0
g129
tp987
a(I1
g127
tp988
a(I2
g129
tp989
a(I3
g134
tp990
a(I0
g140
tp991
a(I1
g127
tp992
a(I2
g129
tp993
a(I3
g132
tp994
a(I0
g129
tp995
a(I1
g127
tp996
a(I2
g132
tp997
a(I3
g134
tp998
a(I0
g127
tp999
a(I1
g129
tp1000
a(I2
g129
tp1001
a(I3
g132
tp1002
a(I0
g140
tp1003
a(I1
g129
tp1004
a(I2
g140
tp1005
a(I3
g134
tp1006
a(I0
g127
tp1007
a(I1
g129
tp1008
a(I2
g127
tp1009
a(I3
g132
tp1010
a(I0
g127
tp1011
a(I1
g129
tp1012
a(I2
g140
tp1013
a(I3
g134
tp1014
a(I0
g127
tp1015
a(I1
g134
tp1016
a(I2
g140
tp1017
a(I3
g132
tp1018
a(I0
g127
tp1019
a(I1
g134
tp1020
a(I2
g129
tp1021
a(I3
g134
tp1022
a(I0
g129
tp1023
a(I1
g127
tp1024
a(I2
g134
tp1025
a(I3
g132
tp1026
a(I0
g129
tp1027
a(I1
g127
tp1028
a(I2
g140
tp1029
a(I3
g134
tp1030
a(I0
g140
tp1031
a(I1
g134
tp1032
a(I2
g140
tp1033
a(I3
g132
tp1034
a(I0
g127
tp1035
a(I1
g134
tp1036
a(I2
g140
tp1037
a(I3
g134
tp1038
a(I0
g127
tp1039
a(I1
g134
tp1040
a(I2
g140
tp1041
a(I3
g132
tp1042
a(I0
g140
tp1043
a(I1
g134
tp1044
a(I2
g132
tp1045
a(I3
g134
tp1046
a(I0
g127
tp1047
a(I1
g129
tp1048
a(I2
g127
tp1049
a(I3
g132
tp1050
a(I0
g132
tp1051
a(I1
g129
tp1052
a(I2
g140
tp1053
a(I3
g134
tp1054
a(I0
g132
tp1055
a(I1
g134
tp1056
a(I2
g140
tp1057
a(I3
g132
tp1058
a(I0
g129
tp1059
a(I1
g129
tp1060
a(I2
g134
tp1061
a(I3
g134
tp1062
a(I0
g127
tp1063
a(I1
g129
tp1064
a(I2
g127
tp1065
a(I3
g132
tp1066
a(I0
g127
tp1067
a(I1
g134
tp1068
a(I2
g127
tp1069
a(I3
g134
tp1070
a(I0
g134
tp1071
a(I1
g129
tp1072
a(I2
g132
tp1073
a(I3
g132
tp1074
a(I0
g129
tp1075
a(I1
g129
tp1076
a(I2
g132
tp1077
a(I3
g134
tp1078
a(I0
g134
tp1079
a(I1
g129
tp1080
a(I2
g134
tp1081
a(I3
g132
tp1082
a(I0
g129
tp1083
a(I1
g129
tp1084
a(I2
g140
tp1085
a(I3
g134
tp1086
a(I0
g127
tp1087
a(I1
g132
tp1088
a(I2
g134
tp1089
a(I3
g132
tp1090
a(I0
g127
tp1091
a(I1
g132
tp1092
a(I2
g140
tp1093
a(I3
g134
tp1094
a(I0
g140
tp1095
a(I1
g129
tp1096
a(I2
g140
tp1097
a(I3
g132
tp1098
a(I0
g140
tp1099
a(I1
g129
tp1100
a(I2
g140
tp1101
a(I3
g134
tp1102
a(I0
g132
tp1103
a(I1
g129
tp1104
a(I2
g127
tp1105
a(I3
g132
tp1106
a(I0
g132
tp1107
a(I1
g129
tp1108
a(I2
g129
tp1109
a(I3
g134
tp1110
a(I0
g134
tp1111
a(I1
g129
tp1112
a(I2
g140
tp1113
a(I3
g132
tp1114
a(I0
g140
tp1115
a(I1
g129
tp1116
a(I2
g127
tp1117
a(I3
g134
tp1118
a(I0
g140
tp1119
a(I1
g127
tp1120
a(I2
g129
tp1121
a(I3
g132
tp1122
a(I0
g132
tp1123
a(I1
g127
tp1124
a(I2
g127
tp1125
a(I3
g134
tp1126
a(I0
g129
tp1127
a(I1
g127
tp1128
a(I2
g129
tp1129
a(I3
g132
tp1130
a(I0
g134
tp1131
a(I1
g127
tp1132
a(I2
g132
tp1133
a(I3
g134
tp1134
a(I0
g134
tp1135
a(I1
g127
tp1136
a(I2
g132
tp1137
a(I3
g132
tp1138
a(I0
g140
tp1139
a(I1
g127
tp1140
a(I2
g127
tp1141
a(I3
g134
tp1142
a(I0
g140
tp1143
a(I1
g134
tp1144
a(I2
g132
tp1145
a(I3
g132
tp1146
a(I0
g127
tp1147
a(I1
g134
tp1148
a(I2
g132
tp1149
a(I3
g134
tp1150
a(I0
g132
tp1151
a(I1
g127
tp1152
a(I2
g132
tp1153
a(I3
g132
tp1154
a(I0
g129
tp1155
a(I1
g127
tp1156
a(I2
g127
tp1157
a(I3
g134
tp1158
a(I0
g140
tp1159
a(I1
g127
tp1160
a(I2
g129
tp1161
a(I3
g132
tp1162
a(I0
g134
tp1163
a(I1
g127
tp1164
a(I2
g134
tp1165
a(I3
g134
tp1166
a(I0
g127
tp1167
a(I1
g132
tp1168
a(I2
g140
tp1169
a(I3
g132
tp1170
a(I0
g140
tp1171
a(I1
g127
tp1172
a(I2
g132
tp1173
a(I3
g134
tp1174
a(I0
g140
tp1175
a(I1
g127
tp1176
a(I2
g134
tp1177
a(I3
g132
tp1178
a(I0
g132
tp1179
a(I1
g132
tp1180
a(I2
g129
tp1181
a(I3
g134
tp1182
a(I0
g140
tp1183
a(I1
g127
tp1184
a(I2
g140
tp1185
a(I3
g132
tp1186
a(I0
g140
tp1187
a(I1
g127
tp1188
a(I2
g127
tp1189
a(I3
g134
tp1190
a(I0
g132
tp1191
a(I1
g134
tp1192
a(I2
g132
tp1193
a(I3
g132
tp1194
a(I0
g134
tp1195
a(I1
g134
tp1196
a(I2
g129
tp1197
a(I3
g134
tp1198
a(I0
g140
tp1199
a(I1
g132
tp1200
a(I2
g140
tp1201
a(I3
g132
tp1202
a(I0
g134
tp1203
a(I1
g132
tp1204
a(I2
g140
tp1205
a(I3
g134
tp1206
a(I0
g140
tp1207
a(I1
g129
tp1208
a(I2
g129
tp1209
a(I3
g132
tp1210
a(I0
g129
tp1211
a(I1
g129
tp1212
a(I2
g140
tp1213
a(I3
g134
tp1214
a(I0
g140
tp1215
a(I1
g134
tp1216
a(I2
g140
tp1217
a(I3
g132
tp1218
a(I0
g127
tp1219
a(I1
g129
tp1220
a(I2
g140
tp1221
a(I3
g134
tp1222
a(I0
g140
tp1223
a(I1
g129
tp1224
a(I2
g127
tp1225
a(I3
g132
tp1226
a(I0
g132
tp1227
a(I1
g134
tp1228
a(I2
g140
tp1229
a(I3
g134
tp1230
a(I0
g134
tp1231
a(I1
g129
tp1232
a(I2
g127
tp1233
a(I3
g132
tp1234
a(I0
g140
tp1235
a(I1
g129
tp1236
a(I2
g134
tp1237
a(I3
g134
tp1238
a(I0
g140
tp1239
a(I1
g129
tp1240
a(I2
g132
tp1241
a(I3
g132
tp1242
a(I0
g129
tp1243
a(I1
g129
tp1244
a(I2
g134
tp1245
a(I3
g134
tp1246
a(I0
g140
tp1247
a(I1
g132
tp1248
a(I2
g129
tp1249
a(I3
g132
tp1250
a(I0
g132
tp1251
a(I1
g132
tp1252
a(I2
g140
tp1253
a(I3
g134
tp1254
a(I0
g132
tp1255
a(I1
g129
tp1256
a(I2
g140
tp1257
a(I3
g132
tp1258
a(I0
g140
tp1259
a(I1
g129
tp1260
a(I2
g132
tp1261
a(I3
g134
tp1262
a(I0
g134
tp1263
a(I1
g140
tp1264
a(I2
g129
tp1265
a(I3
g132
tp1266
a(I0
g140
tp1267
a(I1
g129
tp1268
a(I2
g129
tp1269
a(I3
g134
tp1270
a(I0
g140
tp1271
a(I1
g129
tp1272
a(I2
g129
tp1273
a(I3
g127
tp1274
a(I0
g132
tp1275
a(I1
g129
tp1276
a(I2
g127
tp1277
a(I3
g129
tp1278
a(I0
g134
tp1279
a(I1
g127
tp1280
a(I2
g127
tp1281
a(I3
g132
tp1282
a(I0
g140
tp1283
a(I1
g134
tp1284
a(I2
g127
tp1285
a(I3
g134
tp1286
a(I0
g127
tp1287
a(I1
g127
tp1288
a(I2
g134
tp1289
a(I3
g132
tp1290
a(I0
g140
tp1291
a(I1
g127
tp1292
a(I2
g132
tp1293
a(I3
g134
tp1294
a(I0
g140
tp1295
a(I1
g127
tp1296
a(I2
g129
tp1297
a(I3
g132
tp1298
a(I0
g129
tp1299
a(I1
g127
tp1300
a(I2
g140
tp1301
a(I3
g134
tp1302
a(I0
g140
tp1303
a(I1
g127
tp1304
a(I2
g127
tp1305
a(I3
g132
tp1306
a(I0
g134
tp1307
a(I1
g127
tp1308
a(I2
g129
tp1309
a(I3
g134
tp1310
a(I0
g140
tp1311
a(I1
g127
tp1312
a(I2
g140
tp1313
a(I3
g132
tp1314
a(I0
g132
tp1315
a(I1
g127
tp1316
a(I2
g129
tp1317
a(I3
g134
tp1318
a(I0
g127
tp1319
a(I1
g127
tp1320
a(I2
g140
tp1321
a(I3
g132
tp1322
a(I0
g132
tp1323
a(I1
g127
tp1324
a(I2
g129
tp1325
a(I3
g134
tp1326
a(I0
g129
tp1327
a(I1
g127
tp1328
a(I2
g132
tp1329
a(I3
g132
tp1330
a(I0
g134
tp1331
asS'length'
p1332
I1200
sS'agents'
p1333
(lp1334
(igame
Agent
p1335
(dp1336
S'index'
p1337
I0
sba(igame
Agent
p1338
(dp1339
g1337
I0
sba(igame
Agent
p1340
(dp1341
g1337
I0
sba(igame
Agent
p1342
(dp1343
g1337
I0
sbasS'redTeamName'
p1344
S'Red'
p1345
s.