(dp1
S'layout'
p2
(ilayout
Layout
p3
(dp4
S'capsules'
p5
(lp6
sS'numGhosts'
p7
I4
sS'food'
p8
(igame
Grid
p9
(dp10
S'CELLS_PER_INT'
p11
I30
sS'width'
p12
I34
sS'data'
p13
(lp14
(lp15
I00
aI00
aI00
aI00
aI00
aI00
aI00
aI00
aI00
aI00
aI00
aI00
aI00
aI00
aI00
aI00
aI00
aI00
aa(lp16
I00
aI00
aI00
aI00
aI00
aI00
aI00
aI00
aI01
aI00
aI01
aI00
aI00
aI00
aI01
aI00
aI01
aI00
aa(lp17
I00
aI00
aI00
aI00
aI00
aI00
aI00
aI00
aI00
aI00
aI00
aI00
aI00
aI00
aI00
aI01
aI00
aI00
aa(lp18
I00
aI00
aI00
aI00
aI00
aI00
aI00
aI00
aI01
aI00
aI00
aI00
aI00
aI00
aI01
aI00
aI00
aI00
aa(lp19
I00
aI00
aI00
aI00
aI00
aI00
aI01
aI00
aI00
aI00
aI00
aI01
aI00
aI00
aI01
aI00
aI00
aI00
aa(lp20
I00
aI00
aI00
aI00
aI00
aI00
aI00
aI00
aI00
aI00
aI00
aI00
aI00
aI00
aI00
aI00
aI01
aI00
aa(lp21
I00
aI00
aI01
aI00
aI00
aI00
aI00
aI00
aI00
aI00
aI00
aI00
aI01
aI00
aI01
aI00
aI00
aI00
aa(lp22
I00
aI00
aI00
aI00
aI00
aI00
aI00
aI00
aI00
aI00
aI00
aI00
aI00
aI00
aI00
aI00
aI00
aI00
aa(lp23
I00
aI00
aI01
aI00
aI00
aI00
aI00
aI00
aI00
aI01
aI00
aI00
aI00
aI00
aI00
aI00
aI00
aI00
aa(lp24
I00
aI00
aI00
aI00
aI00
aI00
aI00
aI00
aI00
aI00
aI00
aI00
aI00
aI00
aI00
aI00
aI00
aI00
aa(lp25
I00
aI00
aI00
aI00
aI00
aI00
aI00
aI00
aI00
aI00
aI00
aI00
aI00
aI00
aI00
aI00
aI01
aI00
aa(lp26
I00
aI00
aI00
aI00
aI00
aI00
aI00
aI00
aI00
aI00
aI00
aI00
aI00
aI00
aI00
aI00
aI00
aI00
aa(lp27
I00
aI00
aI01
aI00
aI00
aI00
aI00
aI00
aI00
aI00
aI00
aI00
aI01
aI00
aI00
aI00
aI00
aI00
aa(lp28
I00
aI00
aI01
aI00
aI00
aI01
aI00
aI00
aI00
aI00
aI00
aI00
aI00
aI00
aI00
aI00
aI01
aI00
aa(lp29
I00
aI00
aI00
aI00
aI00
aI00
aI00
aI00
aI00
aI00
aI00
aI00
aI00
aI01
aI01
aI00
aI01
aI00
aa(lp30
I00
aI00
aI00
aI00
aI00
aI00
aI00
aI00
aI00
aI00
aI00
aI00
aI00
aI00
aI00
aI00
aI00
aI00
aa(lp31
I00
aI01
aI01
aI01
aI00
aI00
aI00
aI00
aI01
aI00
aI00
aI00
aI00
aI00
aI00
aI00
aI01
aI00
aa(lp32
I00
aI01
aI00
aI00
aI00
aI00
aI00
aI00
aI00
aI01
aI00
aI00
aI00
aI00
aI01
aI01
aI01
aI00
aa(lp33
I00
aI00
aI00
aI00
aI00
aI00
aI00
aI00
aI00
aI00
aI00
aI00
aI00
aI00
aI00
aI00
aI00
aI00
aa(lp34
I00
aI01
aI00
aI01
aI01
aI00
aI00
aI00
aI00
aI00
aI00
aI00
aI00
aI00
aI00
aI00
aI00
aI00
aa(lp35
I00
aI01
aI00
aI00
aI00
aI00
aI00
aI00
aI00
aI00
aI00
aI00
aI01
aI00
aI00
aI01
aI00
aI00
aa(lp36
I00
aI00
aI00
aI00
aI00
aI01
aI00
aI00
aI00
aI00
aI00
aI00
aI00
aI00
aI00
aI01
aI00
aI00
aa(lp37
I00
aI00
aI00
aI00
aI00
aI00
aI00
aI00
aI00
aI00
aI00
aI00
aI00
aI00
aI00
aI00
aI00
aI00
aa(lp38
I00
aI01
aI00
aI00
aI00
aI00
aI00
aI00
aI00
aI00
aI00
aI00
aI00
aI00
aI00
aI00
aI00
aI00
aa(lp39
I00
aI00
aI00
aI00
aI00
aI00
aI00
aI00
aI00
aI00
aI00
aI00
aI00
aI00
aI00
aI00
aI00
aI00
aa(lp40
I00
aI00
aI00
aI00
aI00
aI00
aI00
aI00
aI01
aI00
aI00
aI00
aI00
aI00
aI00
aI01
aI00
aI00
aa(lp41
I00
aI00
aI00
aI00
aI00
aI00
aI00
aI00
aI00
aI00
aI00
aI00
aI00
aI00
aI00
aI00
aI00
aI00
aa(lp42
I00
aI00
aI00
aI01
aI00
aI01
aI00
aI00
aI00
aI00
aI00
aI00
aI00
aI00
aI00
aI01
aI00
aI00
aa(lp43
I00
aI01
aI00
aI00
aI00
aI00
aI00
aI00
aI00
aI00
aI00
aI00
aI00
aI00
aI00
aI00
aI00
aI00
aa(lp44
I00
aI00
aI00
aI01
aI00
aI00
aI01
aI00
aI00
aI00
aI00
aI01
aI00
aI00
aI00
aI00
aI00
aI00
aa(lp45
I00
aI00
aI00
aI01
aI00
aI00
aI00
aI00
aI00
aI01
aI00
aI00
aI00
aI00
aI00
aI00
aI00
aI00
aa(lp46
I00
aI00
aI01
aI00
aI00
aI00
aI00
aI00
aI00
aI00
aI00
aI00
aI00
aI00
aI00
aI00
aI00
aI00
aa(lp47
I00
aI01
aI00
aI01
aI00
aI00
aI00
aI01
aI00
aI01
aI00
aI00
aI00
aI00
aI00
aI00
aI00
aI00
aa(lp48
I00
aI00
aI00
aI00
aI00
aI00
aI00
aI00
aI00
aI00
aI00
aI00
aI00
aI00
aI00
aI00
aI00
aI00
aasS'height'
p49
I18
sbsS'agentPositions'
p50
(lp51
(I00
(I1
I2
tp52
tp53
a(I00
(I32
I15
tp54
tp55
a(I00
(I1
I1
tp56
tp57
a(I00
(I32
I16
tp58
tp59
asg49
I18
sg12
I34
sS'walls'
p60
(igame
Grid
p61
(dp62
g11
I30
sg12
I34
sg13
(lp63
(lp64
I01
aI01
aI01
aI01
aI01
aI01
aI01
aI01
aI01
aI01
aI01
aI01
aI01
aI01
aI01
aI01
aI01
aI01
aa(lp65
I01
aI00
aI00
aI00
aI01
aI00
aI00
aI01
aI00
aI00
aI00
aI00
aI00
aI01
aI00
aI01
aI00
aI01
aa(lp66
I01
aI00
aI00
aI00
aI00
aI00
aI00
aI01
aI01
aI00
aI01
aI01
aI00
aI01
aI00
aI00
aI00
aI01
aa(lp67
I01
aI01
aI01
aI00
aI01
aI01
aI01
aI01
aI00
aI00
aI01
aI00
aI00
aI01
aI00
aI01
aI00
aI01
aa(lp68
I01
aI00
aI00
aI00
aI00
aI01
aI00
aI01
aI00
aI00
aI01
aI00
aI00
aI01
aI00
aI01
aI00
aI01
aa(lp69
I01
aI00
aI01
aI01
aI00
aI00
aI00
aI01
aI01
aI01
aI01
aI01
aI00
aI01
aI01
aI01
aI00
aI01
aa(lp70
I01
aI00
aI00
aI01
aI00
aI01
aI00
aI00
aI00
aI00
aI00
aI00
aI00
aI01
aI00
aI01
aI00
aI01
aa(lp71
I01
aI00
aI01
aI01
aI00
aI01
aI00
aI01
aI00
aI01
aI01
aI00
aI01
aI01
aI00
aI00
aI00
aI01
aa(lp72
I01
aI00
aI00
aI01
aI00
aI01
aI00
aI01
aI00
aI00
aI01
aI00
aI00
aI00
aI00
aI00
aI00
aI01
aa(lp73
I01
aI00
aI00
aI00
aI00
aI01
aI00
aI00
aI00
aI01
aI01
aI01
aI01
aI01
aI01
aI00
aI01
aI01
aa(lp74
I01
aI00
aI00
aI01
aI00
aI01
aI00
aI01
aI00
aI00
aI00
aI00
aI01
aI00
aI00
aI00
aI00
aI01
aa(lp75
I01
aI00
aI00
aI01
aI00
aI00
aI00
aI01
aI00
aI00
aI00
aI00
aI01
aI00
aI01
aI01
aI01
aI01
aa(lp76
I01
aI00
aI00
aI01
aI01
aI00
aI00
aI00
aI00
aI00
aI01
aI00
aI00
aI00
aI00
aI00
aI00
aI01
aa(lp77
I01
aI00
aI00
aI01
aI00
aI00
aI00
aI01
aI00
aI00
aI00
aI00
aI01
aI00
aI01
aI01
aI00
aI01
aa(lp78
I01
aI00
aI00
aI00
aI00
aI00
aI00
aI01
aI00
aI00
aI00
aI00
aI01
aI00
aI00
aI01
aI00
aI01
aa(lp79
I01
aI00
aI00
aI00
aI00
aI00
aI01
aI01
aI01
aI00
aI01
aI01
aI01
aI01
aI01
aI01
aI01
aI01
aa(lp80
I01
aI00
aI00
aI00
aI00
aI00
aI00
aI00
aI00
aI00
aI00
aI00
aI00
aI00
aI00
aI00
aI00
aI01
aa(lp81
I01
aI00
aI00
aI00
aI00
aI00
aI00
aI00
aI00
aI00
aI00
aI00
aI00
aI00
aI00
aI00
aI00
aI01
aa(lp82
I01
aI01
aI01
aI01
aI01
aI01
aI01
aI01
aI00
aI01
aI01
aI01
aI00
aI00
aI00
aI00
aI00
aI01
aa(lp83
I01
aI00
aI01
aI00
aI00
aI01
aI00
aI00
aI00
aI00
aI01
aI00
aI00
aI00
aI00
aI00
aI00
aI01
aa(lp84
I01
aI00
aI01
aI01
aI00
aI01
aI00
aI00
aI00
aI00
aI01
aI00
aI00
aI00
aI01
aI00
aI00
aI01
aa(lp85
I01
aI00
aI00
aI00
aI00
aI00
aI00
aI01
aI00
aI00
aI00
aI00
aI00
aI01
aI01
aI00
aI00
aI01
aa(lp86
I01
aI01
aI01
aI01
aI00
aI01
aI00
aI00
aI00
aI00
aI01
aI00
aI00
aI00
aI01
aI00
aI00
aI01
aa(lp87
I01
aI00
aI00
aI00
aI00
aI01
aI00
aI00
aI00
aI00
aI01
aI00
aI01
aI00
aI01
aI00
aI00
aI01
aa(lp88
I01
aI01
aI00
aI01
aI01
aI01
aI01
aI01
aI01
aI00
aI00
aI00
aI01
aI00
aI00
aI00
aI00
aI01
aa(lp89
I01
aI00
aI00
aI00
aI00
aI00
aI00
aI01
aI00
aI00
aI01
aI00
aI01
aI00
aI01
aI00
aI00
aI01
aa(lp90
I01
aI00
aI00
aI00
aI01
aI01
aI00
aI01
aI01
aI00
aI01
aI00
aI01
aI00
aI01
aI01
aI00
aI01
aa(lp91
I01
aI00
aI01
aI00
aI01
aI00
aI00
aI00
aI00
aI00
aI00
aI00
aI01
aI00
aI01
aI00
aI00
aI01
aa(lp92
I01
aI00
aI01
aI01
aI01
aI00
aI01
aI01
aI01
aI01
aI01
aI00
aI00
aI00
aI01
aI01
aI00
aI01
aa(lp93
I01
aI00
aI01
aI00
aI01
aI00
aI00
aI01
aI00
aI00
aI01
aI00
aI01
aI00
aI00
aI00
aI00
aI01
aa(lp94
I01
aI00
aI01
aI00
aI01
aI00
aI00
aI01
aI00
aI00
aI01
aI01
aI01
aI01
aI00
aI01
aI01
aI01
aa(lp95
I01
aI00
aI00
aI00
aI01
aI00
aI01
aI01
aI00
aI01
aI01
aI00
aI00
aI00
aI00
aI00
aI00
aI01
aa(lp96
I01
aI00
aI01
aI00
aI01
aI00
aI00
aI00
aI00
aI00
aI01
aI00
aI00
aI01
aI00
aI00
aI00
aI01
aa(lp97
I01
aI01
aI01
aI01
aI01
aI01
aI01
aI01
aI01
aI01
aI01
aI01
aI01
aI01
aI01
aI01
aI01
aI01
aasg49
I18
sbsS'totalFood'
p98
I60
sS'layoutText'
p99
(lp100
S'%%%%%%%%%%%%%%%%%%%%%%%%%%%%%%%%%%'
p101
aS'%.   .   %.% ..%..            % 4%'
p102
aS'%%.%%%%    % %%% .  ..   .%.% % 2%'
p103
aS'%. ..%.  % % %.% .  %%%% %%%%    %'
p104
aS'%%%%%%%% %    .%     %        % %%'
p105
aS'%     .% %%%.%%%    .  %%%%% %%  %'
p106
aS'% % .%   %     %  %          .%  %'
p107
aS'%.%%%% %%%  %  %  %%% %% %% %%%%%%'
p108
aS'%    % %.%       .%         % .%.%'
p109
aS'%.%. %         %.       %.% %    %'
p110
aS'%%%%%% %% %% %%%  %  %  %%% %%%%.%'
p111
aS'%  %.          %  %     %   %. % %'
p112
aS'%  %% %%%%%  .    %%%.%%% %.     %'
p113
aS'%% %        %     %.    % %%%%%%%%'
p114
aS'%    %%%% %%%%  . %.% % %  .%.. .%'
p115
aS'%1 % %.%.   ..  . %%% %    %%%%.%%'
p116
aS'%3 %            ..%.. %.%   .   .%'
p117
aS'%%%%%%%%%%%%%%%%%%%%%%%%%%%%%%%%%%'
p118
asbsS'blueTeamName'
p119
S'Blue'
p120
sS'actions'
p121
(lp122
(I0
S'East'
p123
tp124
a(I1
S'West'
p125
tp126
a(I2
S'North'
p127
tp128
a(I3
g125
tp129
a(I0
g125
tp130
a(I1
S'South'
p131
tp132
a(I2
g131
tp133
a(I3
g131
tp134
a(I0
g127
tp135
a(I1
g125
tp136
a(I2
g127
tp137
a(I3
g131
tp138
a(I0
g123
tp139
a(I1
g125
tp140
a(I2
S'Stop'
p141
tp142
a(I3
g125
tp143
a(I0
g141
tp144
a(I1
g127
tp145
a(I2
g123
tp146
a(I3
g125
tp147
a(I0
g123
tp148
a(I1
g127
tp149
a(I2
g125
tp150
a(I3
g127
tp151
a(I0
g123
tp152
a(I1
g125
tp153
a(I2
g131
tp154
a(I3
g127
tp155
a(I0
g131
tp156
a(I1
g125
tp157
a(I2
g127
tp158
a(I3
g125
tp159
a(I0
g131
tp160
a(I1
g125
tp161
a(I2
g127
tp162
a(I3
g125
tp163
a(I0
g141
tp164
a(I1
g125
tp165
a(I2
g141
tp166
a(I3
g125
tp167
a(I0
g141
tp168
a(I1
g125
tp169
a(I2
g123
tp170
a(I3
g125
tp171
a(I0
g127
tp172
a(I1
g125
tp173
a(I2
g127
tp174
a(I3
g125
tp175
a(I0
g127
tp176
a(I1
g125
tp177
a(I2
g141
tp178
a(I3
g125
tp179
a(I0
g141
tp180
a(I1
g125
tp181
a(I2
g131
tp182
a(I3
g125
tp183
a(I0
g131
tp184
a(I1
g125
tp185
a(I2
g123
tp186
a(I3
g125
tp187
a(I0
g127
tp188
a(I1
g125
tp189
a(I2
g123
tp190
a(I3
g125
tp191
a(I0
g141
tp192
a(I1
g125
tp193
a(I2
g131
tp194
a(I3
g125
tp195
a(I0
g127
tp196
a(I1
g125
tp197
a(I2
g127
tp198
a(I3
g125
tp199
a(I0
g131
tp200
a(I1
g125
tp201
a(I2
g125
tp202
a(I3
g131
tp203
a(I0
g127
tp204
a(I1
g123
tp205
a(I2
g123
tp206
a(I3
g131
tp207
a(I0
g141
tp208
a(I1
g125
tp209
a(I2
g127
tp210
a(I3
g125
tp211
a(I0
g123
tp212
a(I1
g131
tp213
a(I2
g141
tp214
a(I3
g125
tp215
a(I0
g141
tp216
a(I1
g131
tp217
a(I2
g141
tp218
a(I3
g131
tp219
a(I0
g125
tp220
a(I1
g131
tp221
a(I2
g131
tp222
a(I3
g131
tp223
a(I0
g131
tp224
a(I1
g131
tp225
a(I2
g131
tp226
a(I3
g131
tp227
a(I0
g125
tp228
a(I1
g131
tp229
a(I2
g141
tp230
a(I3
g131
tp231
a(I0
g123
tp232
a(I1
g131
tp233
a(I2
g141
tp234
a(I3
g131
tp235
a(I0
g141
tp236
a(I1
g131
tp237
a(I2
g131
tp238
a(I3
g131
tp239
a(I0
g131
tp240
a(I1
g131
tp241
a(I2
g123
tp242
a(I3
g123
tp243
a(I0
g131
tp244
a(I1
g131
tp245
a(I2
g141
tp246
a(I3
g131
tp247
a(I0
g141
tp248
a(I1
g131
tp249
a(I2
g141
tp250
a(I3
g125
tp251
a(I0
g127
tp252
a(I1
g131
tp253
a(I2
g141
tp254
a(I3
g131
tp255
a(I0
g141
tp256
a(I1
g131
tp257
a(I2
g125
tp258
a(I3
g131
tp259
a(I0
g127
tp260
a(I1
g131
tp261
a(I2
g141
tp262
a(I3
g125
tp263
a(I0
g125
tp264
a(I1
g123
tp265
a(I2
g123
tp266
a(I3
g125
tp267
a(I0
g141
tp268
a(I1
g131
tp269
a(I2
g123
tp270
a(I3
g125
tp271
a(I0
g141
tp272
a(I1
g125
tp273
a(I2
g123
tp274
a(I3
g123
tp275
a(I0
g141
tp276
a(I1
g123
tp277
a(I2
g141
tp278
a(I3
g123
tp279
a(I0
g141
tp280
a(I1
g125
tp281
a(I2
g123
tp282
a(I3
g123
tp283
a(I0
g125
tp284
a(I1
g131
tp285
a(I2
g123
tp286
a(I3
g123
tp287
a(I0
g131
tp288
a(I1
g123
tp289
a(I2
g141
tp290
a(I3
g125
tp291
a(I0
g125
tp292
a(I1
g127
tp293
a(I2
g125
tp294
a(I3
g131
tp295
a(I0
g127
tp296
a(I1
g125
tp297
a(I2
g123
tp298
a(I3
g131
tp299
a(I0
g123
tp300
a(I1
g125
tp301
a(I2
g125
tp302
a(I3
g125
tp303
a(I0
g123
tp304
a(I1
g125
tp305
a(I2
g141
tp306
a(I3
g131
tp307
a(I0
g141
tp308
a(I1
g125
tp309
a(I2
g141
tp310
a(I3
g125
tp311
a(I0
g123
tp312
a(I1
g125
tp313
a(I2
g125
tp314
a(I3
g125
tp315
a(I0
g141
tp316
a(I1
g123
tp317
a(I2
g125
tp318
a(I3
g125
tp319
a(I0
g131
tp320
a(I1
g123
tp321
a(I2
g127
tp322
a(I3
g125
tp323
a(I0
g141
tp324
a(I1
g123
tp325
a(I2
g141
tp326
a(I3
g123
tp327
a(I0
g127
tp328
a(I1
g123
tp329
a(I2
g141
tp330
a(I3
g125
tp331
a(I0
g141
tp332
a(I1
g123
tp333
a(I2
g141
tp334
a(I3
g123
tp335
a(I0
g141
tp336
a(I1
g125
tp337
a(I2
g131
tp338
a(I3
g125
tp339
a(I0
g127
tp340
a(I1
g125
tp341
a(I2
g123
tp342
a(I3
g123
tp343
a(I0
g131
tp344
a(I1
g125
tp345
a(I2
g123
tp346
a(I3
g123
tp347
a(I0
g125
tp348
a(I1
g125
tp349
a(I2
g127
tp350
a(I3
g131
tp351
a(I0
g125
tp352
a(I1
g123
tp353
a(I2
g131
tp354
a(I3
g127
tp355
a(I0
g131
tp356
a(I1
g125
tp357
a(I2
g127
tp358
a(I3
g123
tp359
a(I0
g131
tp360
a(I1
g131
tp361
a(I2
g131
tp362
a(I3
g123
tp363
a(I0
g125
tp364
a(I1
g127
tp365
a(I2
g127
tp366
a(I3
g131
tp367
a(I0
g127
tp368
a(I1
g123
tp369
a(I2
g141
tp370
a(I3
g125
tp371
a(I0
g123
tp372
a(I1
g125
tp373
a(I2
g123
tp374
a(I3
g123
tp375
a(I0
g131
tp376
a(I1
g123
tp377
a(I2
g123
tp378
a(I3
g123
tp379
a(I0
g141
tp380
a(I1
g123
tp381
a(I2
g131
tp382
a(I3
g127
tp383
a(I0
g127
tp384
a(I1
g125
tp385
a(I2
g141
tp386
a(I3
g127
tp387
a(I0
g131
tp388
a(I1
g123
tp389
a(I2
g125
tp390
a(I3
g125
tp391
a(I0
g127
tp392
a(I1
g125
tp393
a(I2
g125
tp394
a(I3
g125
tp395
a(I0
g127
tp396
a(I1
g125
tp397
a(I2
g141
tp398
a(I3
g131
tp399
a(I0
g131
tp400
a(I1
g125
tp401
a(I2
g127
tp402
a(I3
g123
tp403
a(I0
g131
tp404
a(I1
g131
tp405
a(I2
g141
tp406
a(I3
g123
tp407
a(I0
g125
tp408
a(I1
g123
tp409
a(I2
g131
tp410
a(I3
g127
tp411
a(I0
g141
tp412
a(I1
g127
tp413
a(I2
g125
tp414
a(I3
g125
tp415
a(I0
g127
tp416
a(I1
g125
tp417
a(I2
g141
tp418
a(I3
g131
tp419
a(I0
g127
tp420
a(I1
g125
tp421
a(I2
g141
tp422
a(I3
g123
tp423
a(I0
g123
tp424
a(I1
g123
tp425
a(I2
g125
tp426
a(I3
g125
tp427
a(I0
g127
tp428
a(I1
g125
tp429
a(I2
g125
tp430
a(I3
g125
tp431
a(I0
g131
tp432
a(I1
g125
tp433
a(I2
g141
tp434
a(I3
g125
tp435
a(I0
g127
tp436
a(I1
g125
tp437
a(I2
g123
tp438
a(I3
g123
tp439
a(I0
g131
tp440
a(I1
g125
tp441
a(I2
g125
tp442
a(I3
g123
tp443
a(I0
g125
tp444
a(I1
g123
tp445
a(I2
g125
tp446
a(I3
g125
tp447
a(I0
g131
tp448
a(I1
g123
tp449
a(I2
g127
tp450
a(I3
g131
tp451
a(I0
g127
tp452
a(I1
g123
tp453
a(I2
g141
tp454
a(I3
g125
tp455
a(I0
g131
tp456
a(I1
g131
tp457
a(I2
g131
tp458
a(I3
g125
tp459
a(I0
g123
tp460
a(I1
g123
tp461
a(I2
g141
tp462
a(I3
g125
tp463
a(I0
g141
tp464
a(I1
g123
tp465
a(I2
g127
tp466
a(I3
g125
tp467
a(I0
g141
tp468
a(I1
g123
tp469
a(I2
g127
tp470
a(I3
g125
tp471
a(I0
g131
tp472
a(I1
g123
tp473
a(I2
g131
tp474
a(I3
g125
tp475
a(I0
g127
tp476
a(I1
g123
tp477
a(I2
g131
tp478
a(I3
g123
tp479
a(I0
g125
tp480
a(I1
g123
tp481
a(I2
g127
tp482
a(I3
g125
tp483
a(I0
g141
tp484
a(I1
g127
tp485
a(I2
g127
tp486
a(I3
g125
tp487
a(I0
g131
tp488
a(I1
g125
tp489
a(I2
g131
tp490
a(I3
g123
tp491
a(I0
g127
tp492
a(I1
g127
tp493
a(I2
g131
tp494
a(I3
g123
tp495
a(I0
g127
tp496
a(I1
g127
tp497
a(I2
g127
tp498
a(I3
g125
tp499
a(I0
g131
tp500
a(I1
g127
tp501
a(I2
g131
tp502
a(I3
g127
tp503
a(I0
g123
tp504
a(I1
g127
tp505
a(I2
g127
tp506
a(I3
g123
tp507
a(I0
g125
tp508
a(I1
g127
tp509
a(I2
g131
tp510
a(I3
g131
tp511
a(I0
g131
tp512
a(I1
g127
tp513
a(I2
g127
tp514
a(I3
g125
tp515
a(I0
g127
tp516
a(I1
g127
tp517
a(I2
g141
tp518
a(I3
g127
tp519
a(I0
g131
tp520
a(I1
g127
tp521
a(I2
g141
tp522
a(I3
g123
tp523
a(I0
g123
tp524
a(I1
g127
tp525
a(I2
g141
tp526
a(I3
g123
tp527
a(I0
g141
tp528
a(I1
g131
tp529
a(I2
g141
tp530
a(I3
g131
tp531
a(I0
g127
tp532
a(I1
g131
tp533
a(I2
g141
tp534
a(I3
g125
tp535
a(I0
g141
tp536
a(I1
g125
tp537
a(I2
g131
tp538
a(I3
g127
tp539
a(I0
g131
tp540
a(I1
g125
tp541
a(I2
g123
tp542
a(I3
g123
tp543
a(I0
g141
tp544
a(I1
g127
tp545
a(I2
g123
tp546
a(I3
g123
tp547
a(I0
g141
tp548
a(I1
g127
tp549
a(I2
g123
tp550
a(I3
g123
tp551
a(I0
g125
tp552
a(I1
g125
tp553
a(I2
g141
tp554
a(I3
g125
tp555
a(I0
g127
tp556
a(I1
g125
tp557
a(I2
g141
tp558
a(I3
g123
tp559
a(I0
g127
tp560
a(I1
g127
tp561
a(I2
g125
tp562
a(I3
g131
tp563
a(I0
g141
tp564
a(I1
g131
tp565
a(I2
g141
tp566
a(I3
g125
tp567
a(I0
g131
tp568
a(I1
g127
tp569
a(I2
g127
tp570
a(I3
g125
tp571
a(I0
g131
tp572
a(I1
g127
tp573
a(I2
g131
tp574
a(I3
g123
tp575
a(I0
g127
tp576
a(I1
g123
tp577
a(I2
g141
tp578
a(I3
g123
tp579
a(I0
g127
tp580
a(I1
g123
tp581
a(I2
g123
tp582
a(I3
g127
tp583
a(I0
g123
tp584
a(I1
g127
tp585
a(I2
g125
tp586
a(I3
g125
tp587
a(I0
g141
tp588
a(I1
g131
tp589
a(I2
g127
tp590
a(I3
g123
tp591
a(I0
g141
tp592
a(I1
g125
tp593
a(I2
g131
tp594
a(I3
g131
tp595
a(I0
g131
tp596
a(I1
g125
tp597
a(I2
g125
tp598
a(I3
g125
tp599
a(I0
g141
tp600
a(I1
g131
tp601
a(I2
g125
tp602
a(I3
g125
tp603
a(I0
g131
tp604
a(I1
g131
tp605
a(I2
g123
tp606
a(I3
g123
tp607
a(I0
g127
tp608
a(I1
g123
tp609
a(I2
g141
tp610
a(I3
g125
tp611
a(I0
g141
tp612
a(I1
g123
tp613
a(I2
g141
tp614
a(I3
g123
tp615
a(I0
g125
tp616
a(I1
g131
tp617
a(I2
g125
tp618
a(I3
g125
tp619
a(I0
g141
tp620
a(I1
g131
tp621
a(I2
g127
tp622
a(I3
g125
tp623
a(I0
g141
tp624
a(I1
g123
tp625
a(I2
g127
tp626
a(I3
g125
tp627
a(I0
g131
tp628
a(I1
g123
tp629
a(I2
g141
tp630
a(I3
g125
tp631
a(I0
g127
tp632
a(I1
g123
tp633
a(I2
g127
tp634
a(I3
g125
tp635
a(I0
g131
tp636
a(I1
g127
tp637
a(I2
g131
tp638
a(I3
g127
tp639
a(I0
g123
tp640
a(I1
g125
tp641
a(I2
g131
tp642
a(I3
g131
tp643
a(I0
g141
tp644
a(I1
g127
tp645
a(I2
g141
tp646
a(I3
g123
tp647
a(I0
g141
tp648
a(I1
g127
tp649
a(I2
g141
tp650
a(I3
g123
tp651
a(I0
g125
tp652
a(I1
g127
tp653
a(I2
g131
tp654
a(I3
g123
tp655
a(I0
g123
tp656
a(I1
g127
tp657
a(I2
g141
tp658
a(I3
g127
tp659
a(I0
g141
tp660
a(I1
g131
tp661
a(I2
g127
tp662
a(I3
g123
tp663
a(I0
g125
tp664
a(I1
g131
tp665
a(I2
g127
tp666
a(I3
g123
tp667
a(I0
g123
tp668
a(I1
g131
tp669
a(I2
g127
tp670
a(I3
g123
tp671
a(I0
g127
tp672
a(I1
g131
tp673
a(I2
g141
tp674
a(I3
g123
tp675
a(I0
g131
tp676
a(I1
g131
tp677
a(I2
g141
tp678
a(I3
g123
tp679
a(I0
g127
tp680
a(I1
g125
tp681
a(I2
g131
tp682
a(I3
g123
tp683
a(I0
g127
tp684
a(I1
g125
tp685
a(I2
g131
tp686
a(I3
g123
tp687
a(I0
g125
tp688
a(I1
g125
tp689
a(I2
g141
tp690
a(I3
g123
tp691
a(I0
g123
tp692
a(I1
g131
tp693
a(I2
g141
tp694
a(I3
g127
tp695
a(I0
g125
tp696
a(I1
g125
tp697
a(I2
g131
tp698
a(I3
g125
tp699
a(I0
g141
tp700
a(I1
g125
tp701
a(I2
g127
tp702
a(I3
g127
tp703
a(I0
g141
tp704
a(I1
g125
tp705
a(I2
g131
tp706
a(I3
g127
tp707
a(I0
g141
tp708
a(I1
g125
tp709
a(I2
g127
tp710
a(I3
g125
tp711
a(I0
g123
tp712
a(I1
g125
tp713
a(I2
g141
tp714
a(I3
g125
tp715
a(I0
g125
tp716
a(I1
g127
tp717
a(I2
g141
tp718
a(I3
g125
tp719
a(I0
g123
tp720
a(I1
g131
tp721
a(I2
g127
tp722
a(I3
g125
tp723
a(I0
g141
tp724
a(I1
g123
tp725
a(I2
g131
tp726
a(I3
g125
tp727
a(I0
g123
tp728
a(I1
g123
tp729
a(I2
g127
tp730
a(I3
g127
tp731
a(I0
g141
tp732
a(I1
g127
tp733
a(I2
g141
tp734
a(I3
g125
tp735
a(I0
g141
tp736
a(I1
g123
tp737
a(I2
g127
tp738
a(I3
g125
tp739
a(I0
g125
tp740
a(I1
g123
tp741
a(I2
g141
tp742
a(I3
g125
tp743
a(I0
g123
tp744
a(I1
g123
tp745
a(I2
g141
tp746
a(I3
g125
tp747
a(I0
g141
tp748
a(I1
g123
tp749
a(I2
g131
tp750
a(I3
g125
tp751
a(I0
g125
tp752
a(I1
g123
tp753
a(I2
g131
tp754
a(I3
g125
tp755
a(I0
g125
tp756
a(I1
g123
tp757
a(I2
g141
tp758
a(I3
g125
tp759
a(I0
g141
tp760
a(I1
g123
tp761
a(I2
g141
tp762
a(I3
g123
tp763
a(I0
g131
tp764
a(I1
g125
tp765
a(I2
g141
tp766
a(I3
g123
tp767
a(I0
g127
tp768
a(I1
g125
tp769
a(I2
g131
tp770
a(I3
g123
tp771
a(I0
g141
tp772
a(I1
g125
tp773
a(I2
g141
tp774
a(I3
g123
tp775
a(I0
g131
tp776
a(I1
g125
tp777
a(I2
g141
tp778
a(I3
g123
tp779
a(I0
g127
tp780
a(I1
g127
tp781
a(I2
g123
tp782
a(I3
g123
tp783
a(I0
g123
tp784
a(I1
g127
tp785
a(I2
g123
tp786
a(I3
g123
tp787
a(I0
g125
tp788
a(I1
g125
tp789
a(I2
g127
tp790
a(I3
g131
tp791
a(I0
g131
tp792
a(I1
g127
tp793
a(I2
g131
tp794
a(I3
g123
tp795
a(I0
g141
tp796
a(I1
g127
tp797
a(I2
g125
tp798
a(I3
g123
tp799
a(I0
g141
tp800
a(I1
g127
tp801
a(I2
g141
tp802
a(I3
g123
tp803
a(I0
g141
tp804
a(I1
g127
tp805
a(I2
g141
tp806
a(I3
g123
tp807
a(I0
g141
tp808
a(I1
g127
tp809
a(I2
g123
tp810
a(I3
g123
tp811
a(I0
g127
tp812
a(I1
g123
tp813
a(I2
g141
tp814
a(I3
g123
tp815
a(I0
g123
tp816
a(I1
g123
tp817
a(I2
g127
tp818
a(I3
g127
tp819
a(I0
g125
tp820
a(I1
g125
tp821
a(I2
g131
tp822
a(I3
g125
tp823
a(I0
g123
tp824
a(I1
g125
tp825
a(I2
g141
tp826
a(I3
g127
tp827
a(I0
g125
tp828
a(I1
g131
tp829
a(I2
g125
tp830
a(I3
g127
tp831
a(I0
g131
tp832
a(I1
g131
tp833
a(I2
g141
tp834
a(I3
g127
tp835
a(I0
g123
tp836
a(I1
g131
tp837
a(I2
g141
tp838
a(I3
g125
tp839
a(I0
g141
tp840
a(I1
g131
tp841
a(I2
g123
tp842
a(I3
g125
tp843
a(I0
g127
tp844
a(I1
g131
tp845
a(I2
g127
tp846
a(I3
g127
tp847
a(I0
g141
tp848
a(I1
g123
tp849
a(I2
g131
tp850
a(I3
g127
tp851
a(I0
g141
tp852
a(I1
g123
tp853
a(I2
g123
tp854
a(I3
g125
tp855
a(I0
g141
tp856
a(I1
g131
tp857
a(I2
g125
tp858
a(I3
g125
tp859
a(I0
g125
tp860
a(I1
g131
tp861
a(I2
g141
tp862
a(I3
g127
tp863
a(I0
g141
tp864
a(I1
g123
tp865
a(I2
g125
tp866
a(I3
g127
tp867
a(I0
g141
tp868
a(I1
g123
tp869
a(I2
g141
tp870
a(I3
g125
tp871
a(I0
g131
tp872
a(I1
g123
tp873
a(I2
g141
tp874
a(I3
g125
tp875
a(I0
g141
tp876
a(I1
g125
tp877
a(I2
g141
tp878
a(I3
g127
tp879
a(I0
g123
tp880
a(I1
g125
tp881
a(I2
g125
tp882
a(I3
g127
tp883
a(I0
g141
tp884
a(I1
g125
tp885
a(I2
g141
tp886
a(I3
g127
tp887
a(I0
g131
tp888
a(I1
g131
tp889
a(I2
g141
tp890
a(I3
g131
tp891
a(I0
g125
tp892
a(I1
g125
tp893
a(I2
g141
tp894
a(I3
g131
tp895
a(I0
g141
tp896
a(I1
g125
tp897
a(I2
g127
tp898
a(I3
g131
tp899
a(I0
g127
tp900
a(I1
g125
tp901
a(I2
g127
tp902
a(I3
g123
tp903
a(I0
g123
tp904
a(I1
g125
tp905
a(I2
g131
tp906
a(I3
g123
tp907
a(I0
g141
tp908
a(I1
g125
tp909
a(I2
g141
tp910
a(I3
g131
tp911
a(I0
g127
tp912
a(I1
g125
tp913
a(I2
g127
tp914
a(I3
g131
tp915
a(I0
g131
tp916
a(I1
g125
tp917
a(I2
g131
tp918
a(I3
g123
tp919
a(I0
g141
tp920
a(I1
g125
tp921
a(I2
g141
tp922
a(I3
g131
tp923
a(I0
g141
tp924
a(I1
g127
tp925
a(I2
g141
tp926
a(I3
g131
tp927
a(I0
g141
tp928
a(I1
g127
tp929
a(I2
g141
tp930
a(I3
g123
tp931
a(I0
g127
tp932
a(I1
g127
tp933
a(I2
g127
tp934
a(I3
g123
tp935
a(I0
g141
tp936
a(I1
g127
tp937
a(I2
g127
tp938
a(I3
g123
tp939
a(I0
g141
tp940
a(I1
g131
tp941
a(I2
g131
tp942
a(I3
g123
tp943
a(I0
g127
tp944
a(I1
g131
tp945
a(I2
g127
tp946
a(I3
g125
tp947
a(I0
g131
tp948
a(I1
g131
tp949
a(I2
g123
tp950
a(I3
g125
tp951
a(I0
g127
tp952
a(I1
g131
tp953
a(I2
g141
tp954
a(I3
g123
tp955
a(I0
g127
tp956
a(I1
g123
tp957
a(I2
g123
tp958
a(I3
g127
tp959
a(I0
g125
tp960
a(I1
g123
tp961
a(I2
g141
tp962
a(I3
g131
tp963
a(I0
g141
tp964
a(I1
g123
tp965
a(I2
g125
tp966
a(I3
g125
tp967
a(I0
g127
tp968
a(I1
g123
tp969
a(I2
g141
tp970
a(I3
g125
tp971
a(I0
g141
tp972
a(I1
g127
tp973
a(I2
g141
tp974
a(I3
g125
tp975
a(I0
g141
tp976
a(I1
g123
tp977
a(I2
g123
tp978
a(I3
g127
tp979
a(I0
g141
tp980
a(I1
g123
tp981
a(I2
g125
tp982
a(I3
g127
tp983
a(I0
g141
tp984
a(I1
g123
tp985
a(I2
g127
tp986
a(I3
g125
tp987
a(I0
g131
tp988
a(I1
g123
tp989
a(I2
g141
tp990
a(I3
g127
tp991
a(I0
g141
tp992
a(I1
g123
tp993
a(I2
g127
tp994
a(I3
g127
tp995
a(I0
g127
tp996
a(I1
g123
tp997
a(I2
g141
tp998
a(I3
g125
tp999
a(I0
g131
tp1000
a(I1
g123
tp1001
a(I2
g123
tp1002
a(I3
g125
tp1003
a(I0
g127
tp1004
a(I1
g125
tp1005
a(I2
g123
tp1006
a(I3
g127
tp1007
a(I0
g141
tp1008
a(I1
g125
tp1009
a(I2
g123
tp1010
a(I3
g127
tp1011
a(I0
g131
tp1012
a(I1
g125
tp1013
a(I2
g125
tp1014
a(I3
g125
tp1015
a(I0
g141
tp1016
a(I1
g125
tp1017
a(I2
g141
tp1018
a(I3
g125
tp1019
a(I0
g141
tp1020
a(I1
g127
tp1021
a(I2
g141
tp1022
a(I3
g131
tp1023
a(I0
g141
tp1024
a(I1
g127
tp1025
a(I2
g125
tp1026
a(I3
g125
tp1027
a(I0
g141
tp1028
a(I1
g125
tp1029
a(I2
g141
tp1030
a(I3
g125
tp1031
a(I0
g127
tp1032
a(I1
g127
tp1033
a(I2
g127
tp1034
a(I3
g123
tp1035
a(I0
g131
tp1036
a(I1
g127
tp1037
a(I2
g141
tp1038
a(I3
g127
tp1039
a(I0
g141
tp1040
a(I1
g125
tp1041
a(I2
g131
tp1042
a(I3
g123
tp1043
a(I0
g141
tp1044
a(I1
g125
tp1045
a(I2
g123
tp1046
a(I3
g123
tp1047
a(I0
g127
tp1048
a(I1
g127
tp1049
a(I2
g141
tp1050
a(I3
g123
tp1051
a(I0
g123
tp1052
a(I1
g127
tp1053
a(I2
g141
tp1054
a(I3
g131
tp1055
a(I0
g131
tp1056
a(I1
g125
tp1057
a(I2
g123
tp1058
a(I3
g131
tp1059
a(I0
g125
tp1060
a(I1
g125
tp1061
a(I2
g125
tp1062
a(I3
g123
tp1063
a(I0
g123
tp1064
a(I1
g127
tp1065
a(I2
g123
tp1066
a(I3
g123
tp1067
a(I0
g131
tp1068
a(I1
g125
tp1069
a(I2
g141
tp1070
a(I3
g131
tp1071
a(I0
g141
tp1072
a(I1
g125
tp1073
a(I2
g125
tp1074
a(I3
g131
tp1075
a(I0
g127
tp1076
a(I1
g125
tp1077
a(I2
g141
tp1078
a(I3
g123
tp1079
a(I0
g131
tp1080
a(I1
g123
tp1081
a(I2
g123
tp1082
a(I3
g131
tp1083
a(I0
g131
tp1084
a(I1
g123
tp1085
a(I2
g125
tp1086
a(I3
g131
tp1087
a(I0
g127
tp1088
a(I1
g123
tp1089
a(I2
g125
tp1090
a(I3
g123
tp1091
a(I0
g127
tp1092
a(I1
g131
tp1093
a(I2
g123
tp1094
a(I3
g123
tp1095
a(I0
g125
tp1096
a(I1
g123
tp1097
a(I2
g141
tp1098
a(I3
g123
tp1099
a(I0
g123
tp1100
a(I1
g123
tp1101
a(I2
g125
tp1102
a(I3
g123
tp1103
a(I0
g141
tp1104
a(I1
g131
tp1105
a(I2
g127
tp1106
a(I3
g125
tp1107
a(I0
g125
tp1108
a(I1
g131
tp1109
a(I2
g127
tp1110
a(I3
g125
tp1111
a(I0
g127
tp1112
a(I1
g123
tp1113
a(I2
g127
tp1114
a(I3
g125
tp1115
a(I0
g141
tp1116
a(I1
g123
tp1117
a(I2
g127
tp1118
a(I3
g125
tp1119
a(I0
g141
tp1120
a(I1
g131
tp1121
a(I2
g127
tp1122
a(I3
g131
tp1123
a(I0
g123
tp1124
a(I1
g131
tp1125
a(I2
g131
tp1126
a(I3
g125
tp1127
a(I0
g141
tp1128
a(I1
g123
tp1129
a(I2
g131
tp1130
a(I3
g125
tp1131
a(I0
g125
tp1132
a(I1
g131
tp1133
a(I2
g141
tp1134
a(I3
g125
tp1135
a(I0
g141
tp1136
a(I1
g123
tp1137
a(I2
g141
tp1138
a(I3
g127
tp1139
a(I0
g123
tp1140
a(I1
g127
tp1141
a(I2
g131
tp1142
a(I3
g127
tp1143
a(I0
g141
tp1144
a(I1
g131
tp1145
a(I2
g141
tp1146
a(I3
g131
tp1147
a(I0
g131
tp1148
a(I1
g127
tp1149
a(I2
g131
tp1150
a(I3
g131
tp1151
a(I0
g141
tp1152
a(I1
g131
tp1153
a(I2
g127
tp1154
a(I3
g127
tp1155
a(I0
g131
tp1156
a(I1
g127
tp1157
a(I2
g141
tp1158
a(I3
g123
tp1159
a(I0
g131
tp1160
a(I1
g131
tp1161
a(I2
g127
tp1162
a(I3
g123
tp1163
a(I0
g125
tp1164
a(I1
g131
tp1165
a(I2
g131
tp1166
a(I3
g131
tp1167
a(I0
g123
tp1168
a(I1
g123
tp1169
a(I2
g123
tp1170
a(I3
g127
tp1171
a(I0
g141
tp1172
a(I1
g123
tp1173
a(I2
g123
tp1174
a(I3
g123
tp1175
a(I0
g127
tp1176
a(I1
g123
tp1177
a(I2
g125
tp1178
a(I3
g131
tp1179
a(I0
g127
tp1180
a(I1
g125
tp1181
a(I2
g123
tp1182
a(I3
g123
tp1183
a(I0
g131
tp1184
a(I1
g125
tp1185
a(I2
g125
tp1186
a(I3
g125
tp1187
a(I0
g127
tp1188
a(I1
g125
tp1189
a(I2
g123
tp1190
a(I3
g123
tp1191
a(I0
g125
tp1192
a(I1
g125
tp1193
a(I2
g125
tp1194
a(I3
g125
tp1195
a(I0
g141
tp1196
a(I1
g131
tp1197
a(I2
g123
tp1198
a(I3
g127
tp1199
a(I0
g127
tp1200
a(I1
g127
tp1201
a(I2
g125
tp1202
a(I3
g131
tp1203
a(I0
g123
tp1204
a(I1
g125
tp1205
a(I2
g125
tp1206
a(I3
g125
tp1207
a(I0
g131
tp1208
a(I1
g131
tp1209
a(I2
g127
tp1210
a(I3
g125
tp1211
a(I0
g141
tp1212
a(I1
g125
tp1213
a(I2
g141
tp1214
a(I3
g125
tp1215
a(I0
g127
tp1216
a(I1
g123
tp1217
a(I2
g141
tp1218
a(I3
g127
tp1219
a(I0
g125
tp1220
a(I1
g127
tp1221
a(I2
g131
tp1222
a(I3
g123
tp1223
a(I0
g123
tp1224
a(I1
g131
tp1225
a(I2
g141
tp1226
a(I3
g125
tp1227
a(I0
g125
tp1228
a(I1
g123
tp1229
a(I2
g131
tp1230
a(I3
g131
tp1231
a(I0
g131
tp1232
a(I1
g127
tp1233
a(I2
g131
tp1234
a(I3
g125
tp1235
a(I0
g127
tp1236
a(I1
g127
tp1237
a(I2
g141
tp1238
a(I3
g123
tp1239
a(I0
g131
tp1240
a(I1
g131
tp1241
a(I2
g127
tp1242
a(I3
g123
tp1243
a(I0
g127
tp1244
a(I1
g131
tp1245
a(I2
g127
tp1246
a(I3
g123
tp1247
a(I0
g131
tp1248
a(I1
g125
tp1249
a(I2
g131
tp1250
a(I3
g125
tp1251
a(I0
g127
tp1252
a(I1
g125
tp1253
a(I2
g131
tp1254
a(I3
g125
tp1255
a(I0
g131
tp1256
a(I1
g125
tp1257
a(I2
g125
tp1258
a(I3
g125
tp1259
a(I0
g123
tp1260
a(I1
g125
tp1261
a(I2
g131
tp1262
a(I3
g125
tp1263
a(I0
g141
tp1264
a(I1
g125
tp1265
a(I2
g131
tp1266
a(I3
g125
tp1267
a(I0
g125
tp1268
a(I1
g125
tp1269
a(I2
g123
tp1270
a(I3
g123
tp1271
a(I0
g127
tp1272
a(I1
g123
tp1273
a(I2
g125
tp1274
a(I3
g125
tp1275
a(I0
g131
tp1276
a(I1
g125
tp1277
a(I2
g123
tp1278
a(I3
g123
tp1279
a(I0
g141
tp1280
a(I1
g123
tp1281
a(I2
g125
tp1282
a(I3
g125
tp1283
a(I0
g123
tp1284
a(I1
g125
tp1285
a(I2
g141
tp1286
a(I3
g125
tp1287
a(I0
g141
tp1288
a(I1
g123
tp1289
a(I2
g125
tp1290
a(I3
g127
tp1291
a(I0
g141
tp1292
a(I1
g125
tp1293
a(I2
g131
tp1294
a(I3
g127
tp1295
a(I0
g125
tp1296
a(I1
g125
tp1297
a(I2
g127
tp1298
a(I3
g127
tp1299
a(I0
g127
tp1300
a(I1
g127
tp1301
a(I2
g141
tp1302
a(I3
g127
tp1303
a(I0
g123
tp1304
a(I1
g127
tp1305
a(I2
g131
tp1306
a(I3
g125
tp1307
a(I0
g125
tp1308
a(I1
g127
tp1309
a(I2
g141
tp1310
a(I3
g125
tp1311
a(I0
g141
tp1312
a(I1
g127
tp1313
a(I2
g131
tp1314
a(I3
g131
tp1315
a(I0
g131
tp1316
a(I1
g125
tp1317
a(I2
g131
tp1318
a(I3
g127
tp1319
a(I0
g127
tp1320
a(I1
g125
tp1321
a(I2
g127
tp1322
a(I3
g123
tp1323
a(I0
g131
tp1324
a(I1
g125
tp1325
a(I2
g141
tp1326
a(I3
g123
tp1327
asS'length'
p1328
I1200
sS'agents'
p1329
(lp1330
(igame
Agent
p1331
(dp1332
S'index'
p1333
I0
sba(igame
Agent
p1334
(dp1335
g1333
I0
sba(igame
Agent
p1336
(dp1337
g1333
I0
sba(igame
Agent
p1338
(dp1339
g1333
I0
sbasS'redTeamName'
p1340
S'Red'
p1341
s.