(dp1
S'layout'
p2
(ilayout
Layout
p3
(dp4
S'capsules'
p5
(lp6
sS'numGhosts'
p7
I4
sS'food'
p8
(igame
Grid
p9
(dp10
S'CELLS_PER_INT'
p11
I30
sS'width'
p12
I34
sS'data'
p13
(lp14
(lp15
I00
aI00
aI00
aI00
aI00
aI00
aI00
aI00
aI00
aI00
aI00
aI00
aI00
aI00
aI00
aI00
aI00
aI00
aa(lp16
I00
aI00
aI00
aI00
aI00
aI00
aI00
aI00
aI01
aI00
aI01
aI00
aI00
aI00
aI01
aI00
aI01
aI00
aa(lp17
I00
aI00
aI00
aI00
aI00
aI00
aI00
aI00
aI00
aI00
aI00
aI00
aI00
aI00
aI00
aI01
aI00
aI00
aa(lp18
I00
aI00
aI00
aI00
aI00
aI00
aI00
aI00
aI01
aI00
aI00
aI00
aI00
aI00
aI01
aI00
aI00
aI00
aa(lp19
I00
aI00
aI00
aI00
aI00
aI00
aI01
aI00
aI00
aI00
aI00
aI01
aI00
aI00
aI01
aI00
aI00
aI00
aa(lp20
I00
aI00
aI00
aI00
aI00
aI00
aI00
aI00
aI00
aI00
aI00
aI00
aI00
aI00
aI00
aI00
aI01
aI00
aa(lp21
I00
aI00
aI01
aI00
aI00
aI00
aI00
aI00
aI00
aI00
aI00
aI00
aI01
aI00
aI01
aI00
aI00
aI00
aa(lp22
I00
aI00
aI00
aI00
aI00
aI00
aI00
aI00
aI00
aI00
aI00
aI00
aI00
aI00
aI00
aI00
aI00
aI00
aa(lp23
I00
aI00
aI01
aI00
aI00
aI00
aI00
aI00
aI00
aI01
aI00
aI00
aI00
aI00
aI00
aI00
aI00
aI00
aa(lp24
I00
aI00
aI00
aI00
aI00
aI00
aI00
aI00
aI00
aI00
aI00
aI00
aI00
aI00
aI00
aI00
aI00
aI00
aa(lp25
I00
aI00
aI00
aI00
aI00
aI00
aI00
aI00
aI00
aI00
aI00
aI00
aI00
aI00
aI00
aI00
aI01
aI00
aa(lp26
I00
aI00
aI00
aI00
aI00
aI00
aI00
aI00
aI00
aI00
aI00
aI00
aI00
aI00
aI00
aI00
aI00
aI00
aa(lp27
I00
aI00
aI01
aI00
aI00
aI00
aI00
aI00
aI00
aI00
aI00
aI00
aI01
aI00
aI00
aI00
aI00
aI00
aa(lp28
I00
aI00
aI01
aI00
aI00
aI01
aI00
aI00
aI00
aI00
aI00
aI00
aI00
aI00
aI00
aI00
aI01
aI00
aa(lp29
I00
aI00
aI00
aI00
aI00
aI00
aI00
aI00
aI00
aI00
aI00
aI00
aI00
aI01
aI01
aI00
aI01
aI00
aa(lp30
I00
aI00
aI00
aI00
aI00
aI00
aI00
aI00
aI00
aI00
aI00
aI00
aI00
aI00
aI00
aI00
aI00
aI00
aa(lp31
I00
aI01
aI01
aI01
aI00
aI00
aI00
aI00
aI01
aI00
aI00
aI00
aI00
aI00
aI00
aI00
aI01
aI00
aa(lp32
I00
aI01
aI00
aI00
aI00
aI00
aI00
aI00
aI00
aI01
aI00
aI00
aI00
aI00
aI01
aI01
aI01
aI00
aa(lp33
I00
aI00
aI00
aI00
aI00
aI00
aI00
aI00
aI00
aI00
aI00
aI00
aI00
aI00
aI00
aI00
aI00
aI00
aa(lp34
I00
aI01
aI00
aI01
aI01
aI00
aI00
aI00
aI00
aI00
aI00
aI00
aI00
aI00
aI00
aI00
aI00
aI00
aa(lp35
I00
aI01
aI00
aI00
aI00
aI00
aI00
aI00
aI00
aI00
aI00
aI00
aI01
aI00
aI00
aI01
aI00
aI00
aa(lp36
I00
aI00
aI00
aI00
aI00
aI01
aI00
aI00
aI00
aI00
aI00
aI00
aI00
aI00
aI00
aI01
aI00
aI00
aa(lp37
I00
aI00
aI00
aI00
aI00
aI00
aI00
aI00
aI00
aI00
aI00
aI00
aI00
aI00
aI00
aI00
aI00
aI00
aa(lp38
I00
aI01
aI00
aI00
aI00
aI00
aI00
aI00
aI00
aI00
aI00
aI00
aI00
aI00
aI00
aI00
aI00
aI00
aa(lp39
I00
aI00
aI00
aI00
aI00
aI00
aI00
aI00
aI00
aI00
aI00
aI00
aI00
aI00
aI00
aI00
aI00
aI00
aa(lp40
I00
aI00
aI00
aI00
aI00
aI00
aI00
aI00
aI01
aI00
aI00
aI00
aI00
aI00
aI00
aI01
aI00
aI00
aa(lp41
I00
aI00
aI00
aI00
aI00
aI00
aI00
aI00
aI00
aI00
aI00
aI00
aI00
aI00
aI00
aI00
aI00
aI00
aa(lp42
I00
aI00
aI00
aI01
aI00
aI01
aI00
aI00
aI00
aI00
aI00
aI00
aI00
aI00
aI00
aI01
aI00
aI00
aa(lp43
I00
aI01
aI00
aI00
aI00
aI00
aI00
aI00
aI00
aI00
aI00
aI00
aI00
aI00
aI00
aI00
aI00
aI00
aa(lp44
I00
aI00
aI00
aI01
aI00
aI00
aI01
aI00
aI00
aI00
aI00
aI01
aI00
aI00
aI00
aI00
aI00
aI00
aa(lp45
I00
aI00
aI00
aI01
aI00
aI00
aI00
aI00
aI00
aI01
aI00
aI00
aI00
aI00
aI00
aI00
aI00
aI00
aa(lp46
I00
aI00
aI01
aI00
aI00
aI00
aI00
aI00
aI00
aI00
aI00
aI00
aI00
aI00
aI00
aI00
aI00
aI00
aa(lp47
I00
aI01
aI00
aI01
aI00
aI00
aI00
aI01
aI00
aI01
aI00
aI00
aI00
aI00
aI00
aI00
aI00
aI00
aa(lp48
I00
aI00
aI00
aI00
aI00
aI00
aI00
aI00
aI00
aI00
aI00
aI00
aI00
aI00
aI00
aI00
aI00
aI00
aasS'height'
p49
I18
sbsS'agentPositions'
p50
(lp51
(I00
(I1
I2
tp52
tp53
a(I00
(I32
I15
tp54
tp55
a(I00
(I1
I1
tp56
tp57
a(I00
(I32
I16
tp58
tp59
asg49
I18
sg12
I34
sS'walls'
p60
(igame
Grid
p61
(dp62
g11
I30
sg12
I34
sg13
(lp63
(lp64
I01
aI01
aI01
aI01
aI01
aI01
aI01
aI01
aI01
aI01
aI01
aI01
aI01
aI01
aI01
aI01
aI01
aI01
aa(lp65
I01
aI00
aI00
aI00
aI01
aI00
aI00
aI01
aI00
aI00
aI00
aI00
aI00
aI01
aI00
aI01
aI00
aI01
aa(lp66
I01
aI00
aI00
aI00
aI00
aI00
aI00
aI01
aI01
aI00
aI01
aI01
aI00
aI01
aI00
aI00
aI00
aI01
aa(lp67
I01
aI01
aI01
aI00
aI01
aI01
aI01
aI01
aI00
aI00
aI01
aI00
aI00
aI01
aI00
aI01
aI00
aI01
aa(lp68
I01
aI00
aI00
aI00
aI00
aI01
aI00
aI01
aI00
aI00
aI01
aI00
aI00
aI01
aI00
aI01
aI00
aI01
aa(lp69
I01
aI00
aI01
aI01
aI00
aI00
aI00
aI01
aI01
aI01
aI01
aI01
aI00
aI01
aI01
aI01
aI00
aI01
aa(lp70
I01
aI00
aI00
aI01
aI00
aI01
aI00
aI00
aI00
aI00
aI00
aI00
aI00
aI01
aI00
aI01
aI00
aI01
aa(lp71
I01
aI00
aI01
aI01
aI00
aI01
aI00
aI01
aI00
aI01
aI01
aI00
aI01
aI01
aI00
aI00
aI00
aI01
aa(lp72
I01
aI00
aI00
aI01
aI00
aI01
aI00
aI01
aI00
aI00
aI01
aI00
aI00
aI00
aI00
aI00
aI00
aI01
aa(lp73
I01
aI00
aI00
aI00
aI00
aI01
aI00
aI00
aI00
aI01
aI01
aI01
aI01
aI01
aI01
aI00
aI01
aI01
aa(lp74
I01
aI00
aI00
aI01
aI00
aI01
aI00
aI01
aI00
aI00
aI00
aI00
aI01
aI00
aI00
aI00
aI00
aI01
aa(lp75
I01
aI00
aI00
aI01
aI00
aI00
aI00
aI01
aI00
aI00
aI00
aI00
aI01
aI00
aI01
aI01
aI01
aI01
aa(lp76
I01
aI00
aI00
aI01
aI01
aI00
aI00
aI00
aI00
aI00
aI01
aI00
aI00
aI00
aI00
aI00
aI00
aI01
aa(lp77
I01
aI00
aI00
aI01
aI00
aI00
aI00
aI01
aI00
aI00
aI00
aI00
aI01
aI00
aI01
aI01
aI00
aI01
aa(lp78
I01
aI00
aI00
aI00
aI00
aI00
aI00
aI01
aI00
aI00
aI00
aI00
aI01
aI00
aI00
aI01
aI00
aI01
aa(lp79
I01
aI00
aI00
aI00
aI00
aI00
aI01
aI01
aI01
aI00
aI01
aI01
aI01
aI01
aI01
aI01
aI01
aI01
aa(lp80
I01
aI00
aI00
aI00
aI00
aI00
aI00
aI00
aI00
aI00
aI00
aI00
aI00
aI00
aI00
aI00
aI00
aI01
aa(lp81
I01
aI00
aI00
aI00
aI00
aI00
aI00
aI00
aI00
aI00
aI00
aI00
aI00
aI00
aI00
aI00
aI00
aI01
aa(lp82
I01
aI01
aI01
aI01
aI01
aI01
aI01
aI01
aI00
aI01
aI01
aI01
aI00
aI00
aI00
aI00
aI00
aI01
aa(lp83
I01
aI00
aI01
aI00
aI00
aI01
aI00
aI00
aI00
aI00
aI01
aI00
aI00
aI00
aI00
aI00
aI00
aI01
aa(lp84
I01
aI00
aI01
aI01
aI00
aI01
aI00
aI00
aI00
aI00
aI01
aI00
aI00
aI00
aI01
aI00
aI00
aI01
aa(lp85
I01
aI00
aI00
aI00
aI00
aI00
aI00
aI01
aI00
aI00
aI00
aI00
aI00
aI01
aI01
aI00
aI00
aI01
aa(lp86
I01
aI01
aI01
aI01
aI00
aI01
aI00
aI00
aI00
aI00
aI01
aI00
aI00
aI00
aI01
aI00
aI00
aI01
aa(lp87
I01
aI00
aI00
aI00
aI00
aI01
aI00
aI00
aI00
aI00
aI01
aI00
aI01
aI00
aI01
aI00
aI00
aI01
aa(lp88
I01
aI01
aI00
aI01
aI01
aI01
aI01
aI01
aI01
aI00
aI00
aI00
aI01
aI00
aI00
aI00
aI00
aI01
aa(lp89
I01
aI00
aI00
aI00
aI00
aI00
aI00
aI01
aI00
aI00
aI01
aI00
aI01
aI00
aI01
aI00
aI00
aI01
aa(lp90
I01
aI00
aI00
aI00
aI01
aI01
aI00
aI01
aI01
aI00
aI01
aI00
aI01
aI00
aI01
aI01
aI00
aI01
aa(lp91
I01
aI00
aI01
aI00
aI01
aI00
aI00
aI00
aI00
aI00
aI00
aI00
aI01
aI00
aI01
aI00
aI00
aI01
aa(lp92
I01
aI00
aI01
aI01
aI01
aI00
aI01
aI01
aI01
aI01
aI01
aI00
aI00
aI00
aI01
aI01
aI00
aI01
aa(lp93
I01
aI00
aI01
aI00
aI01
aI00
aI00
aI01
aI00
aI00
aI01
aI00
aI01
aI00
aI00
aI00
aI00
aI01
aa(lp94
I01
aI00
aI01
aI00
aI01
aI00
aI00
aI01
aI00
aI00
aI01
aI01
aI01
aI01
aI00
aI01
aI01
aI01
aa(lp95
I01
aI00
aI00
aI00
aI01
aI00
aI01
aI01
aI00
aI01
aI01
aI00
aI00
aI00
aI00
aI00
aI00
aI01
aa(lp96
I01
aI00
aI01
aI00
aI01
aI00
aI00
aI00
aI00
aI00
aI01
aI00
aI00
aI01
aI00
aI00
aI00
aI01
aa(lp97
I01
aI01
aI01
aI01
aI01
aI01
aI01
aI01
aI01
aI01
aI01
aI01
aI01
aI01
aI01
aI01
aI01
aI01
aasg49
I18
sbsS'totalFood'
p98
I60
sS'layoutText'
p99
(lp100
S'%%%%%%%%%%%%%%%%%%%%%%%%%%%%%%%%%%'
p101
aS'%.   .   %.% ..%..            % 4%'
p102
aS'%%.%%%%    % %%% .  ..   .%.% % 2%'
p103
aS'%. ..%.  % % %.% .  %%%% %%%%    %'
p104
aS'%%%%%%%% %    .%     %        % %%'
p105
aS'%     .% %%%.%%%    .  %%%%% %%  %'
p106
aS'% % .%   %     %  %          .%  %'
p107
aS'%.%%%% %%%  %  %  %%% %% %% %%%%%%'
p108
aS'%    % %.%       .%         % .%.%'
p109
aS'%.%. %         %.       %.% %    %'
p110
aS'%%%%%% %% %% %%%  %  %  %%% %%%%.%'
p111
aS'%  %.          %  %     %   %. % %'
p112
aS'%  %% %%%%%  .    %%%.%%% %.     %'
p113
aS'%% %        %     %.    % %%%%%%%%'
p114
aS'%    %%%% %%%%  . %.% % %  .%.. .%'
p115
aS'%1 % %.%.   ..  . %%% %    %%%%.%%'
p116
aS'%3 %            ..%.. %.%   .   .%'
p117
aS'%%%%%%%%%%%%%%%%%%%%%%%%%%%%%%%%%%'
p118
asbsS'blueTeamName'
p119
S'Blue'
p120
sS'actions'
p121
(lp122
(I1
S'South'
p123
tp124
a(I2
S'East'
p125
tp126
a(I3
S'West'
p127
tp128
a(I0
S'Stop'
p129
tp130
a(I1
g127
tp131
a(I2
g127
tp132
a(I3
g123
tp133
a(I0
g129
tp134
a(I1
g127
tp135
a(I2
g129
tp136
a(I3
g123
tp137
a(I0
g125
tp138
a(I1
g127
tp139
a(I2
g125
tp140
a(I3
g127
tp141
a(I0
g123
tp142
a(I1
S'North'
p143
tp144
a(I2
g143
tp145
a(I3
g127
tp146
a(I0
g129
tp147
a(I1
g143
tp148
a(I2
g127
tp149
a(I3
g143
tp150
a(I0
g129
tp151
a(I1
g127
tp152
a(I2
g129
tp153
a(I3
g143
tp154
a(I0
g127
tp155
a(I1
g127
tp156
a(I2
g123
tp157
a(I3
g127
tp158
a(I0
g143
tp159
a(I1
g127
tp160
a(I2
g129
tp161
a(I3
g127
tp162
a(I0
g143
tp163
a(I1
g127
tp164
a(I2
g129
tp165
a(I3
g123
tp166
a(I0
g125
tp167
a(I1
g127
tp168
a(I2
g129
tp169
a(I3
g143
tp170
a(I0
g129
tp171
a(I1
g127
tp172
a(I2
g129
tp173
a(I3
g123
tp174
a(I0
g127
tp175
a(I1
g127
tp176
a(I2
g143
tp177
a(I3
g143
tp178
a(I0
g123
tp179
a(I1
g127
tp180
a(I2
g123
tp181
a(I3
g123
tp182
a(I0
g129
tp183
a(I1
g127
tp184
a(I2
g125
tp185
a(I3
g143
tp186
a(I0
g123
tp187
a(I1
g127
tp188
a(I2
g129
tp189
a(I3
g123
tp190
a(I0
g125
tp191
a(I1
g127
tp192
a(I2
g143
tp193
a(I3
g143
tp194
a(I0
g127
tp195
a(I1
g127
tp196
a(I2
g129
tp197
a(I3
g123
tp198
a(I0
g143
tp199
a(I1
g127
tp200
a(I2
g127
tp201
a(I3
g143
tp202
a(I0
g143
tp203
a(I1
g123
tp204
a(I2
g123
tp205
a(I3
g123
tp206
a(I0
g123
tp207
a(I1
g123
tp208
a(I2
g125
tp209
a(I3
g143
tp210
a(I0
g143
tp211
a(I1
g123
tp212
a(I2
g129
tp213
a(I3
g123
tp214
a(I0
g129
tp215
a(I1
g123
tp216
a(I2
g143
tp217
a(I3
g143
tp218
a(I0
g125
tp219
a(I1
g123
tp220
a(I2
g127
tp221
a(I3
g123
tp222
a(I0
g143
tp223
a(I1
g123
tp224
a(I2
g129
tp225
a(I3
g143
tp226
a(I0
g143
tp227
a(I1
g123
tp228
a(I2
g125
tp229
a(I3
g123
tp230
a(I0
g123
tp231
a(I1
g123
tp232
a(I2
g127
tp233
a(I3
g143
tp234
a(I0
g123
tp235
a(I1
g123
tp236
a(I2
g125
tp237
a(I3
g123
tp238
a(I0
g129
tp239
a(I1
g123
tp240
a(I2
g129
tp241
a(I3
g143
tp242
a(I0
g123
tp243
a(I1
g123
tp244
a(I2
g129
tp245
a(I3
g123
tp246
a(I0
g123
tp247
a(I1
g123
tp248
a(I2
g127
tp249
a(I3
g143
tp250
a(I0
g127
tp251
a(I1
g123
tp252
a(I2
g125
tp253
a(I3
g123
tp254
a(I0
g143
tp255
a(I1
g123
tp256
a(I2
g123
tp257
a(I3
g143
tp258
a(I0
g129
tp259
a(I1
g123
tp260
a(I2
g143
tp261
a(I3
g123
tp262
a(I0
g129
tp263
a(I1
g127
tp264
a(I2
g127
tp265
a(I3
g143
tp266
a(I0
g129
tp267
a(I1
g143
tp268
a(I2
g129
tp269
a(I3
g123
tp270
a(I0
g143
tp271
a(I1
g127
tp272
a(I2
g123
tp273
a(I3
g143
tp274
a(I0
g123
tp275
a(I1
g127
tp276
a(I2
g143
tp277
a(I3
g123
tp278
a(I0
g129
tp279
a(I1
g127
tp280
a(I2
g129
tp281
a(I3
g143
tp282
a(I0
g123
tp283
a(I1
g127
tp284
a(I2
g143
tp285
a(I3
g123
tp286
a(I0
g125
tp287
a(I1
g127
tp288
a(I2
g123
tp289
a(I3
g143
tp290
a(I0
g129
tp291
a(I1
g127
tp292
a(I2
g123
tp293
a(I3
g123
tp294
a(I0
g127
tp295
a(I1
g127
tp296
a(I2
g143
tp297
a(I3
g143
tp298
a(I0
g129
tp299
a(I1
g123
tp300
a(I2
g143
tp301
a(I3
g123
tp302
a(I0
g143
tp303
a(I1
g127
tp304
a(I2
g129
tp305
a(I3
g143
tp306
a(I0
g123
tp307
a(I1
g127
tp308
a(I2
g123
tp309
a(I3
g123
tp310
a(I0
g143
tp311
a(I1
g143
tp312
a(I2
g125
tp313
a(I3
g143
tp314
a(I0
g123
tp315
a(I1
g123
tp316
a(I2
g127
tp317
a(I3
g123
tp318
a(I0
g129
tp319
a(I1
g127
tp320
a(I2
g125
tp321
a(I3
g143
tp322
a(I0
g125
tp323
a(I1
g127
tp324
a(I2
g123
tp325
a(I3
g123
tp326
a(I0
g129
tp327
a(I1
g143
tp328
a(I2
g129
tp329
a(I3
g143
tp330
a(I0
g143
tp331
a(I1
g143
tp332
a(I2
g127
tp333
a(I3
g123
tp334
a(I0
g143
tp335
a(I1
g143
tp336
a(I2
g125
tp337
a(I3
g143
tp338
a(I0
g125
tp339
a(I1
g125
tp340
a(I2
g143
tp341
a(I3
g123
tp342
a(I0
g129
tp343
a(I1
g143
tp344
a(I2
g143
tp345
a(I3
g143
tp346
a(I0
g125
tp347
a(I1
g143
tp348
a(I2
g125
tp349
a(I3
g123
tp350
a(I0
g127
tp351
a(I1
g127
tp352
a(I2
g125
tp353
a(I3
g143
tp354
a(I0
g125
tp355
a(I1
g125
tp356
a(I2
g127
tp357
a(I3
g123
tp358
a(I0
g123
tp359
a(I1
g125
tp360
a(I2
g129
tp361
a(I3
g143
tp362
a(I0
g123
tp363
a(I1
g143
tp364
a(I2
g125
tp365
a(I3
g123
tp366
a(I0
g129
tp367
a(I1
g143
tp368
a(I2
g127
tp369
a(I3
g143
tp370
a(I0
g125
tp371
a(I1
g125
tp372
a(I2
g125
tp373
a(I3
g123
tp374
a(I0
g127
tp375
a(I1
g125
tp376
a(I2
g123
tp377
a(I3
g143
tp378
a(I0
g143
tp379
a(I1
g143
tp380
a(I2
g143
tp381
a(I3
g123
tp382
a(I0
g129
tp383
a(I1
g123
tp384
a(I2
g129
tp385
a(I3
g143
tp386
a(I0
g143
tp387
a(I1
g127
tp388
a(I2
g127
tp389
a(I3
g123
tp390
a(I0
g129
tp391
a(I1
g127
tp392
a(I2
g127
tp393
a(I3
g143
tp394
a(I0
g123
tp395
a(I1
g143
tp396
a(I2
g143
tp397
a(I3
g123
tp398
a(I0
g123
tp399
a(I1
g143
tp400
a(I2
g129
tp401
a(I3
g143
tp402
a(I0
g125
tp403
a(I1
g143
tp404
a(I2
g129
tp405
a(I3
g123
tp406
a(I0
g129
tp407
a(I1
g143
tp408
a(I2
g143
tp409
a(I3
g143
tp410
a(I0
g129
tp411
a(I1
g127
tp412
a(I2
g129
tp413
a(I3
g123
tp414
a(I0
g127
tp415
a(I1
g127
tp416
a(I2
g143
tp417
a(I3
g143
tp418
a(I0
g125
tp419
a(I1
g123
tp420
a(I2
g129
tp421
a(I3
g123
tp422
a(I0
g125
tp423
a(I1
g143
tp424
a(I2
g123
tp425
a(I3
g143
tp426
a(I0
g127
tp427
a(I1
g127
tp428
a(I2
g123
tp429
a(I3
g123
tp430
a(I0
g127
tp431
a(I1
g127
tp432
a(I2
g143
tp433
a(I3
g143
tp434
a(I0
g125
tp435
a(I1
g127
tp436
a(I2
g143
tp437
a(I3
g123
tp438
a(I0
g125
tp439
a(I1
g123
tp440
a(I2
g129
tp441
a(I3
g143
tp442
a(I0
g125
tp443
a(I1
g123
tp444
a(I2
g129
tp445
a(I3
g123
tp446
a(I0
g125
tp447
a(I1
g123
tp448
a(I2
g123
tp449
a(I3
g143
tp450
a(I0
g143
tp451
a(I1
g123
tp452
a(I2
g123
tp453
a(I3
g123
tp454
a(I0
g129
tp455
a(I1
g143
tp456
a(I2
g129
tp457
a(I3
g143
tp458
a(I0
g125
tp459
a(I1
g125
tp460
a(I2
g129
tp461
a(I3
g123
tp462
a(I0
g123
tp463
a(I1
g125
tp464
a(I2
g123
tp465
a(I3
g143
tp466
a(I0
g127
tp467
a(I1
g123
tp468
a(I2
g143
tp469
a(I3
g123
tp470
a(I0
g143
tp471
a(I1
g143
tp472
a(I2
g123
tp473
a(I3
g143
tp474
a(I0
g125
tp475
a(I1
g127
tp476
a(I2
g127
tp477
a(I3
g123
tp478
a(I0
g129
tp479
a(I1
g127
tp480
a(I2
g129
tp481
a(I3
g143
tp482
a(I0
g125
tp483
a(I1
g143
tp484
a(I2
g129
tp485
a(I3
g123
tp486
a(I0
g125
tp487
a(I1
g143
tp488
a(I2
g123
tp489
a(I3
g143
tp490
a(I0
g129
tp491
a(I1
g143
tp492
a(I2
g143
tp493
a(I3
g123
tp494
a(I0
g123
tp495
a(I1
g125
tp496
a(I2
g125
tp497
a(I3
g143
tp498
a(I0
g127
tp499
a(I1
g125
tp500
a(I2
g129
tp501
a(I3
g123
tp502
a(I0
g143
tp503
a(I1
g125
tp504
a(I2
g127
tp505
a(I3
g143
tp506
a(I0
g127
tp507
a(I1
g125
tp508
a(I2
g125
tp509
a(I3
g123
tp510
a(I0
g143
tp511
a(I1
g125
tp512
a(I2
g123
tp513
a(I3
g143
tp514
a(I0
g129
tp515
a(I1
g123
tp516
a(I2
g127
tp517
a(I3
g123
tp518
a(I0
g123
tp519
a(I1
g125
tp520
a(I2
g143
tp521
a(I3
g143
tp522
a(I0
g125
tp523
a(I1
g125
tp524
a(I2
g129
tp525
a(I3
g123
tp526
a(I0
g125
tp527
a(I1
g143
tp528
a(I2
g125
tp529
a(I3
g143
tp530
a(I0
g129
tp531
a(I1
g143
tp532
a(I2
g125
tp533
a(I3
g123
tp534
a(I0
g127
tp535
a(I1
g143
tp536
a(I2
g129
tp537
a(I3
g143
tp538
a(I0
g127
tp539
a(I1
g127
tp540
a(I2
g125
tp541
a(I3
g123
tp542
a(I0
g129
tp543
a(I1
g127
tp544
a(I2
g129
tp545
a(I3
g143
tp546
a(I0
g123
tp547
a(I1
g125
tp548
a(I2
g129
tp549
a(I3
g123
tp550
a(I0
g127
tp551
a(I1
g143
tp552
a(I2
g143
tp553
a(I3
g143
tp554
a(I0
g125
tp555
a(I1
g143
tp556
a(I2
g125
tp557
a(I3
g123
tp558
a(I0
g125
tp559
a(I1
g127
tp560
a(I2
g129
tp561
a(I3
g143
tp562
a(I0
g125
tp563
a(I1
g127
tp564
a(I2
g125
tp565
a(I3
g123
tp566
a(I0
g129
tp567
a(I1
g127
tp568
a(I2
g127
tp569
a(I3
g143
tp570
a(I0
g129
tp571
a(I1
g127
tp572
a(I2
g129
tp573
a(I3
g123
tp574
a(I0
g127
tp575
a(I1
g127
tp576
a(I2
g129
tp577
a(I3
g143
tp578
a(I0
g143
tp579
a(I1
g127
tp580
a(I2
g143
tp581
a(I3
g123
tp582
a(I0
g127
tp583
a(I1
g125
tp584
a(I2
g129
tp585
a(I3
g143
tp586
a(I0
g127
tp587
a(I1
g123
tp588
a(I2
g123
tp589
a(I3
g123
tp590
a(I0
g125
tp591
a(I1
g123
tp592
a(I2
g125
tp593
a(I3
g143
tp594
a(I0
g127
tp595
a(I1
g125
tp596
a(I2
g127
tp597
a(I3
g123
tp598
a(I0
g123
tp599
a(I1
g125
tp600
a(I2
g127
tp601
a(I3
g143
tp602
a(I0
g143
tp603
a(I1
g127
tp604
a(I2
g129
tp605
a(I3
g123
tp606
a(I0
g129
tp607
a(I1
g127
tp608
a(I2
g125
tp609
a(I3
g143
tp610
a(I0
g129
tp611
a(I1
g127
tp612
a(I2
g127
tp613
a(I3
g123
tp614
a(I0
g123
tp615
a(I1
g125
tp616
a(I2
g129
tp617
a(I3
g143
tp618
a(I0
g129
tp619
a(I1
g143
tp620
a(I2
g129
tp621
a(I3
g123
tp622
a(I0
g127
tp623
a(I1
g143
tp624
a(I2
g125
tp625
a(I3
g143
tp626
a(I0
g129
tp627
a(I1
g125
tp628
a(I2
g143
tp629
a(I3
g123
tp630
a(I0
g129
tp631
a(I1
g125
tp632
a(I2
g143
tp633
a(I3
g143
tp634
a(I0
g127
tp635
a(I1
g125
tp636
a(I2
g125
tp637
a(I3
g123
tp638
a(I0
g143
tp639
a(I1
g125
tp640
a(I2
g129
tp641
a(I3
g143
tp642
a(I0
g129
tp643
a(I1
g125
tp644
a(I2
g125
tp645
a(I3
g123
tp646
a(I0
g123
tp647
a(I1
g123
tp648
a(I2
g129
tp649
a(I3
g143
tp650
a(I0
g129
tp651
a(I1
g125
tp652
a(I2
g127
tp653
a(I3
g123
tp654
a(I0
g127
tp655
a(I1
g125
tp656
a(I2
g143
tp657
a(I3
g143
tp658
a(I0
g125
tp659
a(I1
g125
tp660
a(I2
g143
tp661
a(I3
g123
tp662
a(I0
g125
tp663
a(I1
g143
tp664
a(I2
g129
tp665
a(I3
g143
tp666
a(I0
g127
tp667
a(I1
g123
tp668
a(I2
g123
tp669
a(I3
g123
tp670
a(I0
g129
tp671
a(I1
g123
tp672
a(I2
g123
tp673
a(I3
g143
tp674
a(I0
g143
tp675
a(I1
g123
tp676
a(I2
g127
tp677
a(I3
g123
tp678
a(I0
g123
tp679
a(I1
g125
tp680
a(I2
g127
tp681
a(I3
g143
tp682
a(I0
g129
tp683
a(I1
g125
tp684
a(I2
g129
tp685
a(I3
g123
tp686
a(I0
g127
tp687
a(I1
g123
tp688
a(I2
g129
tp689
a(I3
g143
tp690
a(I0
g127
tp691
a(I1
g143
tp692
a(I2
g129
tp693
a(I3
g123
tp694
a(I0
g143
tp695
a(I1
g125
tp696
a(I2
g125
tp697
a(I3
g143
tp698
a(I0
g123
tp699
a(I1
g125
tp700
a(I2
g127
tp701
a(I3
g123
tp702
a(I0
g143
tp703
a(I1
g143
tp704
a(I2
g129
tp705
a(I3
g143
tp706
a(I0
g143
tp707
a(I1
g123
tp708
a(I2
g129
tp709
a(I3
g123
tp710
a(I0
g123
tp711
a(I1
g127
tp712
a(I2
g129
tp713
a(I3
g143
tp714
a(I0
g123
tp715
a(I1
g127
tp716
a(I2
g125
tp717
a(I3
g123
tp718
a(I0
g125
tp719
a(I1
g143
tp720
a(I2
g127
tp721
a(I3
g143
tp722
a(I0
g129
tp723
a(I1
g143
tp724
a(I2
g125
tp725
a(I3
g123
tp726
a(I0
g125
tp727
a(I1
g143
tp728
a(I2
g123
tp729
a(I3
g143
tp730
a(I0
g129
tp731
a(I1
g125
tp732
a(I2
g123
tp733
a(I3
g125
tp734
a(I0
g125
tp735
a(I1
g127
tp736
a(I2
g125
tp737
a(I3
g125
tp738
a(I0
g129
tp739
a(I1
g123
tp740
a(I2
g129
tp741
a(I3
g123
tp742
a(I0
g129
tp743
a(I1
g123
tp744
a(I2
g127
tp745
a(I3
g123
tp746
a(I0
g129
tp747
a(I1
g123
tp748
a(I2
g129
tp749
a(I3
g125
tp750
a(I0
g129
tp751
a(I1
g123
tp752
a(I2
g143
tp753
a(I3
g125
tp754
a(I0
g125
tp755
a(I1
g123
tp756
a(I2
g143
tp757
a(I3
g125
tp758
a(I0
g127
tp759
a(I1
g125
tp760
a(I2
g127
tp761
a(I3
g143
tp762
a(I0
g129
tp763
a(I1
g125
tp764
a(I2
g125
tp765
a(I3
g143
tp766
a(I0
g125
tp767
a(I1
g123
tp768
a(I2
g125
tp769
a(I3
g129
tp770
a(I0
g125
tp771
a(I1
g123
tp772
a(I2
g129
tp773
a(I3
g129
tp774
a(I0
g129
tp775
a(I1
g125
tp776
a(I2
g125
tp777
a(I3
g129
tp778
a(I0
g143
tp779
a(I1
g125
tp780
a(I2
g127
tp781
a(I3
g129
tp782
a(I0
g123
tp783
a(I1
g125
tp784
asS'length'
p785
I1200
sS'agents'
p786
(lp787
(igame
Agent
p788
(dp789
S'index'
p790
I0
sba(igame
Agent
p791
(dp792
g790
I0
sba(igame
Agent
p793
(dp794
g790
I0
sba(igame
Agent
p795
(dp796
g790
I0
sbasS'redTeamName'
p797
S'Red'
p798
s.